ARM GAS  C:\Users\louis\AppData\Local\Temp\ccj8Y2ua.s 			page 1


   1              		.syntax unified
   2              		.cpu cortex-m4
   3              		.eabi_attribute 27, 1
   4              		.fpu fpv4-sp-d16
   5              		.eabi_attribute 20, 1
   6              		.eabi_attribute 21, 1
   7              		.eabi_attribute 23, 3
   8              		.eabi_attribute 24, 1
   9              		.eabi_attribute 25, 1
  10              		.eabi_attribute 26, 1
  11              		.eabi_attribute 30, 1
  12              		.eabi_attribute 34, 1
  13              		.eabi_attribute 18, 4
  14              		.thumb
  15              		.syntax unified
  16              		.file	"main_cm4.c"
  17              		.text
  18              	.Ltext0:
  19              		.cfi_sections	.debug_frame
  20              		.section	.text.UpdateDisplay,"ax",%progbits
  21              		.align	2
  22              		.global	UpdateDisplay
  23              		.thumb
  24              		.thumb_func
  25              		.type	UpdateDisplay, %function
  26              	UpdateDisplay:
  27              	.LFB681:
  28              		.file 1 "main_cm4.c"
   1:main_cm4.c    **** /******************************************************************************
   2:main_cm4.c    **** * File Name: main_cm4.c
   3:main_cm4.c    **** *
   4:main_cm4.c    **** * Version: 1.20
   5:main_cm4.c    **** *
   6:main_cm4.c    **** * Description: This file main application code for the CE223727 EmWin Graphics
   7:main_cm4.c    **** *				library EInk Display.
   8:main_cm4.c    **** *
   9:main_cm4.c    **** * Hardware Dependency: CY8CKIT-028-EPD E-Ink Display Shield
  10:main_cm4.c    **** *					   CY8CKIT-062-BLE PSoC6 BLE Pioneer Kit
  11:main_cm4.c    **** *
  12:main_cm4.c    **** ******************************************************************************* 
  13:main_cm4.c    **** * Copyright (2019), Cypress Semiconductor Corporation. All rights reserved. 
  14:main_cm4.c    **** ******************************************************************************* 
  15:main_cm4.c    **** * This software, including source code, documentation and related materials 
  16:main_cm4.c    **** * (“Software”), is owned by Cypress Semiconductor Corporation or one of its 
  17:main_cm4.c    **** * subsidiaries (“Cypress”) and is protected by and subject to worldwide patent 
  18:main_cm4.c    **** * protection (United States and foreign), United States copyright laws and 
  19:main_cm4.c    **** * international treaty provisions. Therefore, you may use this Software only 
  20:main_cm4.c    **** * as provided in the license agreement accompanying the software package from 
  21:main_cm4.c    **** * which you obtained this Software (“EULA”). 
  22:main_cm4.c    **** * 
  23:main_cm4.c    **** * If no EULA applies, Cypress hereby grants you a personal, non-exclusive, 
  24:main_cm4.c    **** * non-transferable license to copy, modify, and compile the Software source 
  25:main_cm4.c    **** * code solely for use in connection with Cypress’s integrated circuit products. 
  26:main_cm4.c    **** * Any reproduction, modification, translation, compilation, or representation 
  27:main_cm4.c    **** * of this Software except as specified above is prohibited without the express 
  28:main_cm4.c    **** * written permission of Cypress. 
  29:main_cm4.c    **** * 
ARM GAS  C:\Users\louis\AppData\Local\Temp\ccj8Y2ua.s 			page 2


  30:main_cm4.c    **** * Disclaimer: THIS SOFTWARE IS PROVIDED AS-IS, WITH NO WARRANTY OF ANY KIND, 
  31:main_cm4.c    **** * EXPRESS OR IMPLIED, INCLUDING, BUT NOT LIMITED TO, NONINFRINGEMENT, IMPLIED 
  32:main_cm4.c    **** * WARRANTIES OF MERCHANTABILITY AND FITNESS FOR A PARTICULAR PURPOSE. Cypress 
  33:main_cm4.c    **** * reserves the right to make changes to the Software without notice. Cypress 
  34:main_cm4.c    **** * does not assume any liability arising out of the application or use of the 
  35:main_cm4.c    **** * Software or any product or circuit described in the Software. Cypress does 
  36:main_cm4.c    **** * not authorize its products for use in any products where a malfunction or 
  37:main_cm4.c    **** * failure of the Cypress product may reasonably be expected to result in 
  38:main_cm4.c    **** * significant property damage, injury or death (“High Risk Product”). By 
  39:main_cm4.c    **** * including Cypress’s product in a High Risk Product, the manufacturer of such 
  40:main_cm4.c    **** * system or application assumes all risk of such use and in doing so agrees to 
  41:main_cm4.c    **** * indemnify Cypress against all liability.
  42:main_cm4.c    **** ********************************************************************************/
  43:main_cm4.c    **** 
  44:main_cm4.c    **** #include "project.h"
  45:main_cm4.c    **** #include "GUI.h"
  46:main_cm4.c    **** #include "pervasive_eink_hardware_driver.h"
  47:main_cm4.c    **** #include "cy_eink_library.h"
  48:main_cm4.c    **** #include "LCDConf.h"
  49:main_cm4.c    **** #include "Thermistor.h"
  50:main_cm4.c    **** #include <stdio.h>
  51:main_cm4.c    **** #include <stdlib.h>
  52:main_cm4.c    **** 
  53:main_cm4.c    **** 
  54:main_cm4.c    **** #define Buzzer P12_5_PORT 
  55:main_cm4.c    **** #define Buzzer1 P12_5_NUM
  56:main_cm4.c    **** 
  57:main_cm4.c    **** /* Image buffer cache */
  58:main_cm4.c    **** uint8 imageBufferCache[CY_EINK_FRAME_SIZE] = {0};
  59:main_cm4.c    **** 
  60:main_cm4.c    **** /* Reference to the bitmap image for the startup screen */
  61:main_cm4.c    **** extern GUI_CONST_STORAGE GUI_BITMAP bmCypressLogoFullColor_PNG_1bpp;
  62:main_cm4.c    **** 
  63:main_cm4.c    **** 
  64:main_cm4.c    **** /* Function prototypes */
  65:main_cm4.c    **** void TemperatureDisplay(void);
  66:main_cm4.c    **** void GasSensor(void);
  67:main_cm4.c    **** void EggTimer(void);
  68:main_cm4.c    **** void CampingActivity(void);
  69:main_cm4.c    **** /* Array of demo pages functions */
  70:main_cm4.c    **** void (*demoPageArray[])(void) = {
  71:main_cm4.c    ****     TemperatureDisplay,
  72:main_cm4.c    ****     CampingActivity,
  73:main_cm4.c    ****     EggTimer,
  74:main_cm4.c    ****     GasSensor,
  75:main_cm4.c    **** };
  76:main_cm4.c    **** 
  77:main_cm4.c    **** /* Number of demo pages */
  78:main_cm4.c    **** #define NUMBER_OF_DEMO_PAGES    (sizeof(demoPageArray)/sizeof(demoPageArray[0]))
  79:main_cm4.c    **** 
  80:main_cm4.c    **** /*******************************************************************************
  81:main_cm4.c    **** * Function Name: void UpdateDisplay(void)
  82:main_cm4.c    **** ********************************************************************************
  83:main_cm4.c    **** *
  84:main_cm4.c    **** * Summary: This function updates the display with the data in the display 
  85:main_cm4.c    **** *			buffer.  The function first transfers the content of the EmWin
  86:main_cm4.c    **** *			display buffer to the primary EInk display buffer.  Then it calls
ARM GAS  C:\Users\louis\AppData\Local\Temp\ccj8Y2ua.s 			page 3


  87:main_cm4.c    **** *			the Cy_EINK_ShowFrame function to update the display, and then
  88:main_cm4.c    **** *			it copies the EmWin display buffer to the Eink display cache buffer
  89:main_cm4.c    **** *
  90:main_cm4.c    **** * Parameters:
  91:main_cm4.c    **** *  None
  92:main_cm4.c    **** *
  93:main_cm4.c    **** * Return:
  94:main_cm4.c    **** *  None
  95:main_cm4.c    **** *
  96:main_cm4.c    **** * Side Effects:
  97:main_cm4.c    **** *  It takes about a second to refresh the display.  This is a blocking function
  98:main_cm4.c    **** *  and only returns after the display refresh
  99:main_cm4.c    **** *
 100:main_cm4.c    **** *******************************************************************************/
 101:main_cm4.c    **** void UpdateDisplay(cy_eink_update_t updateMethod, bool powerCycle)
 102:main_cm4.c    **** {
  29              		.loc 1 102 0
  30              		.cfi_startproc
  31              		@ args = 0, pretend = 0, frame = 0
  32              		@ frame_needed = 0, uses_anonymous_args = 0
  33              	.LVL0:
  34 0000 F8B5     		push	{r3, r4, r5, r6, r7, lr}
  35              		.cfi_def_cfa_offset 24
  36              		.cfi_offset 3, -24
  37              		.cfi_offset 4, -20
  38              		.cfi_offset 5, -16
  39              		.cfi_offset 6, -12
  40              		.cfi_offset 7, -8
  41              		.cfi_offset 14, -4
  42 0002 0646     		mov	r6, r0
  43 0004 0F46     		mov	r7, r1
 103:main_cm4.c    ****     cy_eink_frame_t* pEmwinBuffer;
 104:main_cm4.c    **** 
 105:main_cm4.c    ****     /* Get the pointer to Emwin's display buffer */
 106:main_cm4.c    ****     pEmwinBuffer = (cy_eink_frame_t*)LCD_GetDisplayBuffer();
  44              		.loc 1 106 0
  45 0006 FFF7FEFF 		bl	LCD_GetDisplayBuffer
  46              	.LVL1:
  47 000a 0546     		mov	r5, r0
  48              	.LVL2:
 107:main_cm4.c    **** 
 108:main_cm4.c    ****     /* Update the EInk display */
 109:main_cm4.c    ****     Cy_EINK_ShowFrame(imageBufferCache, pEmwinBuffer, updateMethod, powerCycle);
  49              		.loc 1 109 0
  50 000c 064C     		ldr	r4, .L3
  51 000e 3B46     		mov	r3, r7
  52 0010 3246     		mov	r2, r6
  53 0012 0146     		mov	r1, r0
  54 0014 2046     		mov	r0, r4
  55              	.LVL3:
  56 0016 FFF7FEFF 		bl	Cy_EINK_ShowFrame
  57              	.LVL4:
 110:main_cm4.c    **** 
 111:main_cm4.c    ****     /* Copy the EmWin display buffer to the imageBuffer cache*/
 112:main_cm4.c    ****     memcpy(imageBufferCache, pEmwinBuffer, CY_EINK_FRAME_SIZE);
  58              		.loc 1 112 0
  59 001a 41F2B062 		movw	r2, #5808
ARM GAS  C:\Users\louis\AppData\Local\Temp\ccj8Y2ua.s 			page 4


  60 001e 2946     		mov	r1, r5
  61 0020 2046     		mov	r0, r4
  62 0022 FFF7FEFF 		bl	memcpy
  63              	.LVL5:
  64 0026 F8BD     		pop	{r3, r4, r5, r6, r7, pc}
  65              	.LVL6:
  66              	.L4:
  67              		.align	2
  68              	.L3:
  69 0028 00000000 		.word	.LANCHOR0
  70              		.cfi_endproc
  71              	.LFE681:
  72              		.size	UpdateDisplay, .-UpdateDisplay
  73              		.global	__aeabi_f2d
  74              		.global	__aeabi_dmul
  75              		.global	__aeabi_dadd
  76              		.section	.text.TemperatureDisplay,"ax",%progbits
  77              		.align	2
  78              		.global	TemperatureDisplay
  79              		.thumb
  80              		.thumb_func
  81              		.type	TemperatureDisplay, %function
  82              	TemperatureDisplay:
  83              	.LFB686:
 113:main_cm4.c    **** }
 114:main_cm4.c    **** 
 115:main_cm4.c    **** /*******************************************************************************
 116:main_cm4.c    **** * Function Name: void ShowStartupScreen(void)
 117:main_cm4.c    **** ********************************************************************************
 118:main_cm4.c    **** *
 119:main_cm4.c    **** * Summary: This function displays the startup screen with Cypress Logo and 
 120:main_cm4.c    **** *			the demo description text
 121:main_cm4.c    **** *
 122:main_cm4.c    **** * Parameters:
 123:main_cm4.c    **** *  None
 124:main_cm4.c    **** *
 125:main_cm4.c    **** * Return:
 126:main_cm4.c    **** *  None
 127:main_cm4.c    **** *
 128:main_cm4.c    **** *******************************************************************************/
 129:main_cm4.c    **** void ShowStartupScreen(void)
 130:main_cm4.c    **** {
 131:main_cm4.c    ****     /* Set foreground and background color and font size */
 132:main_cm4.c    ****     GUI_SetFont(GUI_FONT_20_1);
 133:main_cm4.c    ****     GUI_SetColor(GUI_BLACK);
 134:main_cm4.c    ****     GUI_SetBkColor(GUI_WHITE);
 135:main_cm4.c    ****     GUI_Clear();
 136:main_cm4.c    **** 
 137:main_cm4.c    ****     GUI_DrawBitmap(&bmCypressLogoFullColor_PNG_1bpp, 2, 2);
 138:main_cm4.c    ****     GUI_SetTextAlign(GUI_TA_HCENTER);
 139:main_cm4.c    ****     GUI_DispStringAt("Campanion", 132, 105);
 140:main_cm4.c    ****     GUI_SetTextAlign(GUI_TA_HCENTER);
 141:main_cm4.c    ****     GUI_DispStringAt("Your Camping Buddy", 132, 125);
 142:main_cm4.c    ****    // GUI_SetTextAlign(GUI_TA_HCENTER);
 143:main_cm4.c    ****     //GUI_DispStringAt("EINK DISPLAY DEMO", 132, 125);
 144:main_cm4.c    ****   
 145:main_cm4.c    ****     /* Send the display buffer data to display*/
ARM GAS  C:\Users\louis\AppData\Local\Temp\ccj8Y2ua.s 			page 5


 146:main_cm4.c    ****     UpdateDisplay(CY_EINK_FULL_4STAGE, true);
 147:main_cm4.c    **** }
 148:main_cm4.c    **** 
 149:main_cm4.c    **** 
 150:main_cm4.c    **** /*******************************************************************************
 151:main_cm4.c    **** * Function Name: void ShowInstructionsScreen(void)
 152:main_cm4.c    **** ********************************************************************************
 153:main_cm4.c    **** *
 154:main_cm4.c    **** * Summary: This function shows screen with instructions to press SW2 to
 155:main_cm4.c    **** *			scroll through various display pages
 156:main_cm4.c    **** *
 157:main_cm4.c    **** * Parameters:
 158:main_cm4.c    **** *  None
 159:main_cm4.c    **** *
 160:main_cm4.c    **** * Return:
 161:main_cm4.c    **** *  None
 162:main_cm4.c    **** *
 163:main_cm4.c    **** *******************************************************************************/
 164:main_cm4.c    **** void ShowInstructionsScreen(void)
 165:main_cm4.c    **** {
 166:main_cm4.c    ****     /* Set font size, background color and text mode */
 167:main_cm4.c    ****     GUI_SetFont(GUI_FONT_16B_1);
 168:main_cm4.c    ****     GUI_SetBkColor(GUI_WHITE);
 169:main_cm4.c    ****     GUI_SetColor(GUI_BLACK);	
 170:main_cm4.c    ****     GUI_SetTextMode(GUI_TM_NORMAL);
 171:main_cm4.c    **** 
 172:main_cm4.c    ****     /* Clear the display */
 173:main_cm4.c    ****     GUI_Clear();
 174:main_cm4.c    **** 
 175:main_cm4.c    ****     /* Display instructions text */
 176:main_cm4.c    ****     GUI_SetTextAlign(GUI_TA_HCENTER);
 177:main_cm4.c    ****     GUI_DispStringAt("PRESS THE PUSH BUTTON", 132, 58);
 178:main_cm4.c    ****     GUI_SetTextAlign(GUI_TA_HCENTER);
 179:main_cm4.c    ****     GUI_DispStringAt("TO SCROLL THROUGH ", 132, 78);
 180:main_cm4.c    ****     GUI_SetTextAlign(GUI_TA_HCENTER);
 181:main_cm4.c    ****     GUI_DispStringAt("THE PAGES!", 132, 98);
 182:main_cm4.c    **** 
 183:main_cm4.c    ****     /* Send the display buffer data to display*/
 184:main_cm4.c    ****     UpdateDisplay(CY_EINK_FULL_4STAGE, true);
 185:main_cm4.c    **** }
 186:main_cm4.c    **** 
 187:main_cm4.c    **** 
 188:main_cm4.c    **** /*******************************************************************************
 189:main_cm4.c    **** * Function Name: void ClearScreen(void)
 190:main_cm4.c    **** ********************************************************************************
 191:main_cm4.c    **** *
 192:main_cm4.c    **** * Summary: This function clears the screen
 193:main_cm4.c    **** *
 194:main_cm4.c    **** * Parameters:
 195:main_cm4.c    **** *  None
 196:main_cm4.c    **** *
 197:main_cm4.c    **** * Return:
 198:main_cm4.c    **** *  None
 199:main_cm4.c    **** *
 200:main_cm4.c    **** *******************************************************************************/
 201:main_cm4.c    **** void ClearScreen(void)
 202:main_cm4.c    **** {
ARM GAS  C:\Users\louis\AppData\Local\Temp\ccj8Y2ua.s 			page 6


 203:main_cm4.c    ****     GUI_SetColor(GUI_BLACK);
 204:main_cm4.c    ****     GUI_SetBkColor(GUI_WHITE);
 205:main_cm4.c    ****     GUI_Clear();
 206:main_cm4.c    ****     UpdateDisplay(CY_EINK_FULL_4STAGE, true);
 207:main_cm4.c    **** }
 208:main_cm4.c    **** 
 209:main_cm4.c    **** 
 210:main_cm4.c    **** /*******************************************************************************
 211:main_cm4.c    **** * Function Name: void WaitforSwitchPressAndRelease(void)
 212:main_cm4.c    **** ********************************************************************************
 213:main_cm4.c    **** *
 214:main_cm4.c    **** * Summary: This implements a simple "Wait for button press and release"
 215:main_cm4.c    **** *			function.  It first waits for the button to be pressed and then
 216:main_cm4.c    **** *			waits for the button to be released.
 217:main_cm4.c    **** *
 218:main_cm4.c    **** * Parameters:
 219:main_cm4.c    **** *  None
 220:main_cm4.c    **** *
 221:main_cm4.c    **** * Return:
 222:main_cm4.c    **** *  None
 223:main_cm4.c    **** *
 224:main_cm4.c    **** * Side Effects:
 225:main_cm4.c    **** *  This is a blocking function and exits only on a button press and release
 226:main_cm4.c    **** *
 227:main_cm4.c    **** *******************************************************************************/
 228:main_cm4.c    **** void WaitforSwitchPressAndRelease(void)
 229:main_cm4.c    **** {
 230:main_cm4.c    ****     /* Wait for SW2 to be pressed */
 231:main_cm4.c    ****     while(Status_SW2_Read() != 0);
 232:main_cm4.c    ****     
 233:main_cm4.c    ****     /* Wait for SW2 to be released */
 234:main_cm4.c    ****     while(Status_SW2_Read() == 0);
 235:main_cm4.c    **** }
 236:main_cm4.c    **** 
 237:main_cm4.c    **** 
 238:main_cm4.c    **** 
 239:main_cm4.c    **** 
 240:main_cm4.c    **** void TemperatureDisplay(void)
 241:main_cm4.c    **** {
  84              		.loc 1 241 0
  85              		.cfi_startproc
  86              		@ args = 0, pretend = 0, frame = 56
  87              		@ frame_needed = 0, uses_anonymous_args = 0
  88 0000 2DE9F043 		push	{r4, r5, r6, r7, r8, r9, lr}
  89              		.cfi_def_cfa_offset 28
  90              		.cfi_offset 4, -28
  91              		.cfi_offset 5, -24
  92              		.cfi_offset 6, -20
  93              		.cfi_offset 7, -16
  94              		.cfi_offset 8, -12
  95              		.cfi_offset 9, -8
  96              		.cfi_offset 14, -4
  97 0004 2DED048B 		vpush.64	{d8, d9}
  98              		.cfi_def_cfa_offset 44
  99              		.cfi_offset 80, -44
 100              		.cfi_offset 81, -40
 101              		.cfi_offset 82, -36
ARM GAS  C:\Users\louis\AppData\Local\Temp\ccj8Y2ua.s 			page 7


 102              		.cfi_offset 83, -32
 103 0008 97B0     		sub	sp, sp, #92
 104              		.cfi_def_cfa_offset 136
 242:main_cm4.c    **** 
 243:main_cm4.c    ****     UART_1_Start();
 105              		.loc 1 243 0
 106 000a FFF7FEFF 		bl	UART_1_Start
 107              	.LVL7:
 244:main_cm4.c    ****     ADC_1_Start();
 108              		.loc 1 244 0
 109 000e FFF7FEFF 		bl	ADC_1_Start
 110              	.LVL8:
 245:main_cm4.c    ****     Cy_SAR_StartConvert(SAR,CY_SAR_START_CONVERT_CONTINUOUS);
 111              		.loc 1 245 0
 112 0012 4F4C     		ldr	r4, .L7+8
 113 0014 0121     		movs	r1, #1
 114 0016 2046     		mov	r0, r4
 115 0018 FFF7FEFF 		bl	Cy_SAR_StartConvert
 116              	.LVL9:
 246:main_cm4.c    ****     
 247:main_cm4.c    ****     float v1,v2;
 248:main_cm4.c    ****     int16_t countThermistor, countReference;
 249:main_cm4.c    **** 
 250:main_cm4.c    ****     /* Read the ADC count values */
 251:main_cm4.c    ****     countReference  = Cy_SAR_GetResult16(SAR,0);
 117              		.loc 1 251 0
 118 001c 0021     		movs	r1, #0
 119 001e 2046     		mov	r0, r4
 120 0020 FFF7FEFF 		bl	Cy_SAR_GetResult16
 121              	.LVL10:
 122 0024 0546     		mov	r5, r0
 123              	.LVL11:
 252:main_cm4.c    ****     countThermistor = Cy_SAR_GetResult16(SAR,1);
 124              		.loc 1 252 0
 125 0026 0121     		movs	r1, #1
 126 0028 2046     		mov	r0, r4
 127 002a FFF7FEFF 		bl	Cy_SAR_GetResult16
 128              	.LVL12:
 129 002e 0646     		mov	r6, r0
 130              	.LVL13:
 253:main_cm4.c    **** 
 254:main_cm4.c    ****     v1 = Cy_SAR_CountsTo_Volts(SAR,0,countReference);
 131              		.loc 1 254 0
 132 0030 2A46     		mov	r2, r5
 133 0032 0021     		movs	r1, #0
 134 0034 2046     		mov	r0, r4
 135 0036 FFF7FEFF 		bl	Cy_SAR_CountsTo_Volts
 136              	.LVL14:
 137 003a 08EE900A 		vmov	s17, r0
 138              	.LVL15:
 255:main_cm4.c    ****     v2 = Cy_SAR_CountsTo_Volts(SAR,1,countThermistor);
 139              		.loc 1 255 0
 140 003e 3246     		mov	r2, r6
 141 0040 0121     		movs	r1, #1
 142 0042 2046     		mov	r0, r4
 143              	.LVL16:
 144 0044 FFF7FEFF 		bl	Cy_SAR_CountsTo_Volts
ARM GAS  C:\Users\louis\AppData\Local\Temp\ccj8Y2ua.s 			page 8


 145              	.LVL17:
 146 0048 08EE100A 		vmov	s16, r0
 147              	.LVL18:
 256:main_cm4.c    **** 
 257:main_cm4.c    ****     uint32 resT = Thermistor_GetResistance(countReference, countThermistor);
 148              		.loc 1 257 0
 149 004c 3146     		mov	r1, r6
 150 004e 2846     		mov	r0, r5
 151              	.LVL19:
 152 0050 FFF7FEFF 		bl	Thermistor_GetResistance
 153              	.LVL20:
 258:main_cm4.c    ****     float temperature = (float)Thermistor_GetTemperature(resT) / 100.0 ;
 154              		.loc 1 258 0
 155 0054 FFF7FEFF 		bl	Thermistor_GetTemperature
 156              	.LVL21:
 157 0058 07EE900A 		vmov	s15, r0	@ int
 158 005c B8EEE77A 		vcvt.f32.s32	s14, s15
 159              	.LVL22:
 259:main_cm4.c    **** 
 260:main_cm4.c    ****     printf("V1 = %fv V2=%fv Vtot =%fv T=%fC T=%fF\r\n",v1,v2,v1+v2,temperature,9.0/5.0*temperature 
 160              		.loc 1 260 0
 161 0060 38EE889A 		vadd.f32	s18, s17, s16
 162 0064 DFED3B7A 		vldr.32	s15, .L7+12
 163 0068 C7EE276A 		vdiv.f32	s13, s14, s15
 164              	.LVL23:
 165 006c 16EE900A 		vmov	r0, s13
 166 0070 FFF7FEFF 		bl	__aeabi_f2d
 167              	.LVL24:
 168 0074 0446     		mov	r4, r0
 169 0076 0D46     		mov	r5, r1
 170              	.LVL25:
 171 0078 33A3     		adr	r3, .L7
 172 007a D3E90023 		ldrd	r2, [r3]
 173 007e FFF7FEFF 		bl	__aeabi_dmul
 174              	.LVL26:
 175 0082 8046     		mov	r8, r0
 176 0084 8946     		mov	r9, r1
 177 0086 18EE900A 		vmov	r0, s17
 178 008a FFF7FEFF 		bl	__aeabi_f2d
 179              	.LVL27:
 180 008e 0646     		mov	r6, r0
 181              	.LVL28:
 182 0090 0F46     		mov	r7, r1
 183 0092 0022     		movs	r2, #0
 184 0094 304B     		ldr	r3, .L7+16
 185 0096 4046     		mov	r0, r8
 186 0098 4946     		mov	r1, r9
 187 009a FFF7FEFF 		bl	__aeabi_dadd
 188              	.LVL29:
 189 009e CDE90601 		strd	r0, [sp, #24]
 190 00a2 CDE90445 		strd	r4, [sp, #16]
 191 00a6 19EE100A 		vmov	r0, s18
 192 00aa FFF7FEFF 		bl	__aeabi_f2d
 193              	.LVL30:
 194 00ae CDE90201 		strd	r0, [sp, #8]
 195 00b2 18EE100A 		vmov	r0, s16
 196 00b6 FFF7FEFF 		bl	__aeabi_f2d
ARM GAS  C:\Users\louis\AppData\Local\Temp\ccj8Y2ua.s 			page 9


 197              	.LVL31:
 198 00ba CDE90001 		strd	r0, [sp]
 199 00be 3246     		mov	r2, r6
 200 00c0 3B46     		mov	r3, r7
 201 00c2 2648     		ldr	r0, .L7+20
 202 00c4 FFF7FEFF 		bl	printf
 203              	.LVL32:
 261:main_cm4.c    ****      
 262:main_cm4.c    ****      char c[50]; //size of the number
 263:main_cm4.c    ****      sprintf(c, "%g", temperature);
 204              		.loc 1 263 0
 205 00c8 2246     		mov	r2, r4
 206 00ca 2B46     		mov	r3, r5
 207 00cc 2449     		ldr	r1, .L7+24
 208 00ce 09A8     		add	r0, sp, #36
 209 00d0 FFF7FEFF 		bl	sprintf
 210              	.LVL33:
 264:main_cm4.c    ****     
 265:main_cm4.c    **** 
 266:main_cm4.c    ****     
 267:main_cm4.c    ****     /* Set font size, foreground and background colors */
 268:main_cm4.c    ****     GUI_SetColor(GUI_BLACK);
 211              		.loc 1 268 0
 212 00d4 0020     		movs	r0, #0
 213 00d6 FFF7FEFF 		bl	GUI_SetColor
 214              	.LVL34:
 269:main_cm4.c    ****     GUI_SetBkColor(GUI_WHITE);
 215              		.loc 1 269 0
 216 00da 6FF07F40 		mvn	r0, #-16777216
 217 00de FFF7FEFF 		bl	GUI_SetBkColor
 218              	.LVL35:
 270:main_cm4.c    ****     GUI_SetTextMode(GUI_TM_NORMAL);
 219              		.loc 1 270 0
 220 00e2 0020     		movs	r0, #0
 221 00e4 FFF7FEFF 		bl	GUI_SetTextMode
 222              	.LVL36:
 271:main_cm4.c    ****     GUI_SetTextStyle(GUI_TS_NORMAL);
 223              		.loc 1 271 0
 224 00e8 0020     		movs	r0, #0
 225 00ea FFF7FEFF 		bl	GUI_SetTextStyle
 226              	.LVL37:
 272:main_cm4.c    ****     
 273:main_cm4.c    **** 
 274:main_cm4.c    ****     /* Clear the screen */
 275:main_cm4.c    ****     GUI_Clear();
 227              		.loc 1 275 0
 228 00ee FFF7FEFF 		bl	GUI_Clear
 229              	.LVL38:
 276:main_cm4.c    ****     
 277:main_cm4.c    ****         /* Display page title */
 278:main_cm4.c    ****     GUI_SetFont(GUI_FONT_20_1);
 230              		.loc 1 278 0
 231 00f2 1C4C     		ldr	r4, .L7+28
 232 00f4 2046     		mov	r0, r4
 233 00f6 FFF7FEFF 		bl	GUI_SetFont
 234              	.LVL39:
 279:main_cm4.c    ****     GUI_SetTextAlign(GUI_TA_HCENTER);
ARM GAS  C:\Users\louis\AppData\Local\Temp\ccj8Y2ua.s 			page 10


 235              		.loc 1 279 0
 236 00fa 0220     		movs	r0, #2
 237 00fc FFF7FEFF 		bl	GUI_SetTextAlign
 238              	.LVL40:
 280:main_cm4.c    ****     GUI_DispStringAt("Current temperature", 132, 5);
 239              		.loc 1 280 0
 240 0100 0522     		movs	r2, #5
 241 0102 8421     		movs	r1, #132
 242 0104 1848     		ldr	r0, .L7+32
 243 0106 FFF7FEFF 		bl	GUI_DispStringAt
 244              	.LVL41:
 281:main_cm4.c    ****     
 282:main_cm4.c    **** 
 283:main_cm4.c    ****     /* Display labels */	
 284:main_cm4.c    ****     GUI_SetFont(GUI_FONT_D64);
 245              		.loc 1 284 0
 246 010a 1848     		ldr	r0, .L7+36
 247 010c FFF7FEFF 		bl	GUI_SetFont
 248              	.LVL42:
 285:main_cm4.c    ****     GUI_SetTextAlign(GUI_TA_HCENTER);
 249              		.loc 1 285 0
 250 0110 0220     		movs	r0, #2
 251 0112 FFF7FEFF 		bl	GUI_SetTextAlign
 252              	.LVL43:
 286:main_cm4.c    ****     GUI_DispStringAt(c, 132, 53);
 253              		.loc 1 286 0
 254 0116 3522     		movs	r2, #53
 255 0118 8421     		movs	r1, #132
 256 011a 09A8     		add	r0, sp, #36
 257 011c FFF7FEFF 		bl	GUI_DispStringAt
 258              	.LVL44:
 287:main_cm4.c    **** 
 288:main_cm4.c    ****     GUI_SetFont(GUI_FONT_20_1);
 259              		.loc 1 288 0
 260 0120 2046     		mov	r0, r4
 261 0122 FFF7FEFF 		bl	GUI_SetFont
 262              	.LVL45:
 289:main_cm4.c    ****     GUI_SetTextAlign(GUI_TA_HCENTER);
 263              		.loc 1 289 0
 264 0126 0220     		movs	r0, #2
 265 0128 FFF7FEFF 		bl	GUI_SetTextAlign
 266              	.LVL46:
 290:main_cm4.c    ****     GUI_DispStringAt("degrees", 132, 150);
 267              		.loc 1 290 0
 268 012c 9622     		movs	r2, #150
 269 012e 8421     		movs	r1, #132
 270 0130 0F48     		ldr	r0, .L7+40
 271 0132 FFF7FEFF 		bl	GUI_DispStringAt
 272              	.LVL47:
 291:main_cm4.c    ****     
 292:main_cm4.c    ****     
 293:main_cm4.c    ****     
 294:main_cm4.c    ****     UpdateDisplay(CY_EINK_FULL_4STAGE, true);
 273              		.loc 1 294 0
 274 0136 0121     		movs	r1, #1
 275 0138 0846     		mov	r0, r1
 276 013a FFF7FEFF 		bl	UpdateDisplay
ARM GAS  C:\Users\louis\AppData\Local\Temp\ccj8Y2ua.s 			page 11


 277              	.LVL48:
 295:main_cm4.c    ****     
 296:main_cm4.c    **** 
 297:main_cm4.c    ****     
 298:main_cm4.c    **** }  
 278              		.loc 1 298 0
 279 013e 17B0     		add	sp, sp, #92
 280              		.cfi_def_cfa_offset 44
 281              		@ sp needed
 282 0140 BDEC048B 		vldm	sp!, {d8-d9}
 283              		.cfi_restore 82
 284              		.cfi_restore 83
 285              		.cfi_restore 80
 286              		.cfi_restore 81
 287              		.cfi_def_cfa_offset 28
 288              	.LVL49:
 289 0144 BDE8F083 		pop	{r4, r5, r6, r7, r8, r9, pc}
 290              	.L8:
 291              		.align	3
 292              	.L7:
 293 0148 CDCCCCCC 		.word	-858993459
 294 014c CCCCFC3F 		.word	1073532108
 295 0150 00001D41 		.word	1092419584
 296 0154 0000C842 		.word	1120403456
 297 0158 00004040 		.word	1077936128
 298 015c 00000000 		.word	.LC7
 299 0160 28000000 		.word	.LC8
 300 0164 00000000 		.word	GUI_Font20_1
 301 0168 2C000000 		.word	.LC9
 302 016c 00000000 		.word	GUI_FontD64
 303 0170 40000000 		.word	.LC10
 304              		.cfi_endproc
 305              	.LFE686:
 306              		.size	TemperatureDisplay, .-TemperatureDisplay
 307              		.global	__aeabi_dcmpgt
 308              		.section	.text.GasSensor,"ax",%progbits
 309              		.align	2
 310              		.global	GasSensor
 311              		.thumb
 312              		.thumb_func
 313              		.type	GasSensor, %function
 314              	GasSensor:
 315              	.LFB687:
 299:main_cm4.c    **** 
 300:main_cm4.c    **** void GasSensor(void)
 301:main_cm4.c    **** {
 316              		.loc 1 301 0
 317              		.cfi_startproc
 318              		@ args = 0, pretend = 0, frame = 72
 319              		@ frame_needed = 0, uses_anonymous_args = 0
 320 0000 70B5     		push	{r4, r5, r6, lr}
 321              		.cfi_def_cfa_offset 16
 322              		.cfi_offset 4, -16
 323              		.cfi_offset 5, -12
 324              		.cfi_offset 6, -8
 325              		.cfi_offset 14, -4
 326 0002 2DED028B 		vpush.64	{d8}
ARM GAS  C:\Users\louis\AppData\Local\Temp\ccj8Y2ua.s 			page 12


 327              		.cfi_def_cfa_offset 24
 328              		.cfi_offset 80, -24
 329              		.cfi_offset 81, -20
 330 0006 92B0     		sub	sp, sp, #72
 331              		.cfi_def_cfa_offset 96
 302:main_cm4.c    ****     UART_1_Start();
 332              		.loc 1 302 0
 333 0008 FFF7FEFF 		bl	UART_1_Start
 334              	.LVL50:
 303:main_cm4.c    ****     ADC_1_Start();
 335              		.loc 1 303 0
 336 000c FFF7FEFF 		bl	ADC_1_Start
 337              	.LVL51:
 304:main_cm4.c    ****     Cy_SAR_StartConvert(SAR,CY_SAR_START_CONVERT_CONTINUOUS);
 338              		.loc 1 304 0
 339 0010 0121     		movs	r1, #1
 340 0012 4148     		ldr	r0, .L17+8
 341 0014 FFF7FEFF 		bl	Cy_SAR_StartConvert
 342              	.LVL52:
 343              	.L13:
 344              	.LBB28:
 305:main_cm4.c    ****     
 306:main_cm4.c    ****     float value;
 307:main_cm4.c    ****   //  int16_t value;
 308:main_cm4.c    **** 
 309:main_cm4.c    ****     /* Read the ADC count values */
 310:main_cm4.c    ****     
 311:main_cm4.c    ****     
 312:main_cm4.c    **** 
 313:main_cm4.c    ****     
 314:main_cm4.c    ****     //v2 = Cy_SAR_CountsTo_Volts(SAR,2,countThermistor);
 315:main_cm4.c    **** 
 316:main_cm4.c    ****     float reading, calc;
 317:main_cm4.c    ****     //int16_t reading;
 318:main_cm4.c    ****     for (;;) {
 319:main_cm4.c    ****         /* Read the ADC count values */
 320:main_cm4.c    ****         value  = Cy_SAR_GetResult16(SAR,2);
 345              		.loc 1 320 0
 346 0018 3F4C     		ldr	r4, .L17+8
 347 001a 0221     		movs	r1, #2
 348 001c 2046     		mov	r0, r4
 349 001e FFF7FEFF 		bl	Cy_SAR_GetResult16
 350              	.LVL53:
 351 0022 07EE900A 		vmov	s15, r0	@ int
 352 0026 B8EEE78A 		vcvt.f32.s32	s16, s15
 353              	.LVL54:
 321:main_cm4.c    ****         reading  = Cy_SAR_GetResult16(SAR,2);
 354              		.loc 1 321 0
 355 002a 0221     		movs	r1, #2
 356 002c 2046     		mov	r0, r4
 357 002e FFF7FEFF 		bl	Cy_SAR_GetResult16
 358              	.LVL55:
 322:main_cm4.c    ****         calc = Cy_SAR_CountsTo_Volts(SAR,2,reading);
 359              		.loc 1 322 0
 360 0032 0246     		mov	r2, r0
 361 0034 0221     		movs	r1, #2
 362 0036 2046     		mov	r0, r4
ARM GAS  C:\Users\louis\AppData\Local\Temp\ccj8Y2ua.s 			page 13


 363              	.LVL56:
 364 0038 FFF7FEFF 		bl	Cy_SAR_CountsTo_Volts
 365              	.LVL57:
 323:main_cm4.c    ****         char c[50]; //size of the number
 324:main_cm4.c    ****         sprintf(c, "%g", calc);
 366              		.loc 1 324 0
 367 003c FFF7FEFF 		bl	__aeabi_f2d
 368              	.LVL58:
 369 0040 0446     		mov	r4, r0
 370 0042 0D46     		mov	r5, r1
 371 0044 0246     		mov	r2, r0
 372 0046 0B46     		mov	r3, r1
 373 0048 3449     		ldr	r1, .L17+12
 374 004a 05A8     		add	r0, sp, #20
 375 004c FFF7FEFF 		bl	sprintf
 376              	.LVL59:
 325:main_cm4.c    ****         char str[20];
 326:main_cm4.c    ****         sprintf(str, "%f", value);
 377              		.loc 1 326 0
 378 0050 18EE100A 		vmov	r0, s16
 379 0054 FFF7FEFF 		bl	__aeabi_f2d
 380              	.LVL60:
 381 0058 0246     		mov	r2, r0
 382 005a 0B46     		mov	r3, r1
 383 005c 3049     		ldr	r1, .L17+16
 384 005e 6846     		mov	r0, sp
 385 0060 FFF7FEFF 		bl	sprintf
 386              	.LVL61:
 327:main_cm4.c    ****         printf("You have entered: %s", str);
 387              		.loc 1 327 0
 388 0064 6946     		mov	r1, sp
 389 0066 2F48     		ldr	r0, .L17+20
 390 0068 FFF7FEFF 		bl	printf
 391              	.LVL62:
 328:main_cm4.c    ****         
 329:main_cm4.c    ****         
 330:main_cm4.c    ****         /* Set font size, foreground and background colors */
 331:main_cm4.c    ****         GUI_SetColor(GUI_BLACK);
 392              		.loc 1 331 0
 393 006c 0020     		movs	r0, #0
 394 006e FFF7FEFF 		bl	GUI_SetColor
 395              	.LVL63:
 332:main_cm4.c    ****         GUI_SetBkColor(GUI_WHITE);
 396              		.loc 1 332 0
 397 0072 6FF07F40 		mvn	r0, #-16777216
 398 0076 FFF7FEFF 		bl	GUI_SetBkColor
 399              	.LVL64:
 333:main_cm4.c    ****         GUI_SetTextMode(GUI_TM_NORMAL);
 400              		.loc 1 333 0
 401 007a 0020     		movs	r0, #0
 402 007c FFF7FEFF 		bl	GUI_SetTextMode
 403              	.LVL65:
 334:main_cm4.c    ****         GUI_SetTextStyle(GUI_TS_NORMAL);
 404              		.loc 1 334 0
 405 0080 0020     		movs	r0, #0
 406 0082 FFF7FEFF 		bl	GUI_SetTextStyle
 407              	.LVL66:
ARM GAS  C:\Users\louis\AppData\Local\Temp\ccj8Y2ua.s 			page 14


 335:main_cm4.c    ****         
 336:main_cm4.c    **** 
 337:main_cm4.c    ****         /* Clear the screen */
 338:main_cm4.c    ****         GUI_Clear();
 408              		.loc 1 338 0
 409 0086 FFF7FEFF 		bl	GUI_Clear
 410              	.LVL67:
 339:main_cm4.c    ****         
 340:main_cm4.c    ****             /* Display page title */
 341:main_cm4.c    ****         GUI_SetFont(GUI_FONT_20_1);
 411              		.loc 1 341 0
 412 008a 274E     		ldr	r6, .L17+24
 413 008c 3046     		mov	r0, r6
 414 008e FFF7FEFF 		bl	GUI_SetFont
 415              	.LVL68:
 342:main_cm4.c    ****         GUI_SetTextAlign(GUI_TA_HCENTER);
 416              		.loc 1 342 0
 417 0092 0220     		movs	r0, #2
 418 0094 FFF7FEFF 		bl	GUI_SetTextAlign
 419              	.LVL69:
 343:main_cm4.c    ****         GUI_DispStringAt("Gas reading", 132, 5);
 420              		.loc 1 343 0
 421 0098 0522     		movs	r2, #5
 422 009a 8421     		movs	r1, #132
 423 009c 2348     		ldr	r0, .L17+28
 424 009e FFF7FEFF 		bl	GUI_DispStringAt
 425              	.LVL70:
 344:main_cm4.c    ****         
 345:main_cm4.c    **** 
 346:main_cm4.c    ****         /* Display labels */	
 347:main_cm4.c    ****         GUI_SetFont(GUI_FONT_D32);
 426              		.loc 1 347 0
 427 00a2 2348     		ldr	r0, .L17+32
 428 00a4 FFF7FEFF 		bl	GUI_SetFont
 429              	.LVL71:
 348:main_cm4.c    ****         GUI_SetTextAlign(GUI_TA_HCENTER);
 430              		.loc 1 348 0
 431 00a8 0220     		movs	r0, #2
 432 00aa FFF7FEFF 		bl	GUI_SetTextAlign
 433              	.LVL72:
 349:main_cm4.c    ****         GUI_DispStringAt(c, 132, 53);
 434              		.loc 1 349 0
 435 00ae 3522     		movs	r2, #53
 436 00b0 8421     		movs	r1, #132
 437 00b2 05A8     		add	r0, sp, #20
 438 00b4 FFF7FEFF 		bl	GUI_DispStringAt
 439              	.LVL73:
 350:main_cm4.c    **** 
 351:main_cm4.c    ****         GUI_SetFont(GUI_FONT_20_1);
 440              		.loc 1 351 0
 441 00b8 3046     		mov	r0, r6
 442 00ba FFF7FEFF 		bl	GUI_SetFont
 443              	.LVL74:
 352:main_cm4.c    ****         GUI_SetTextAlign(GUI_TA_HCENTER);
 444              		.loc 1 352 0
 445 00be 0220     		movs	r0, #2
 446 00c0 FFF7FEFF 		bl	GUI_SetTextAlign
ARM GAS  C:\Users\louis\AppData\Local\Temp\ccj8Y2ua.s 			page 15


 447              	.LVL75:
 353:main_cm4.c    ****         GUI_DispStringAt("", 132, 150);
 448              		.loc 1 353 0
 449 00c4 9622     		movs	r2, #150
 450 00c6 8421     		movs	r1, #132
 451 00c8 1A48     		ldr	r0, .L17+36
 452 00ca FFF7FEFF 		bl	GUI_DispStringAt
 453              	.LVL76:
 354:main_cm4.c    ****         
 355:main_cm4.c    ****         printf("test"); 
 454              		.loc 1 355 0
 455 00ce 1A48     		ldr	r0, .L17+40
 456 00d0 FFF7FEFF 		bl	printf
 457              	.LVL77:
 356:main_cm4.c    ****     
 357:main_cm4.c    ****         UpdateDisplay(CY_EINK_FULL_4STAGE, true);
 458              		.loc 1 357 0
 459 00d4 0121     		movs	r1, #1
 460 00d6 0846     		mov	r0, r1
 461 00d8 FFF7FEFF 		bl	UpdateDisplay
 462              	.LVL78:
 358:main_cm4.c    ****         
 359:main_cm4.c    ****         
 360:main_cm4.c    ****         if (calc > 0.3) {
 463              		.loc 1 360 0
 464 00dc 0CA3     		adr	r3, .L17
 465 00de D3E90023 		ldrd	r2, [r3]
 466 00e2 2046     		mov	r0, r4
 467 00e4 2946     		mov	r1, r5
 468 00e6 FFF7FEFF 		bl	__aeabi_dcmpgt
 469              	.LVL79:
 470 00ea 48B1     		cbz	r0, .L15
 361:main_cm4.c    ****             PWM_Start();
 471              		.loc 1 361 0
 472 00ec FFF7FEFF 		bl	PWM_Start
 473              	.LVL80:
 362:main_cm4.c    ****                CyDelay(10000);
 474              		.loc 1 362 0
 475 00f0 42F21070 		movw	r0, #10000
 476 00f4 FFF7FEFF 		bl	Cy_SysLib_Delay
 477              	.LVL81:
 478              	.LBB29:
 479              	.LBB30:
 480              	.LBB31:
 481              		.file 2 "Generated_Source\\PSoC6\\pdl\\drivers/peripheral/tcpwm/cy_tcpwm.h"
   1:Generated_Source\PSoC6\pdl\drivers/peripheral/tcpwm/cy_tcpwm.h **** /***************************************************************************//**
   2:Generated_Source\PSoC6\pdl\drivers/peripheral/tcpwm/cy_tcpwm.h **** * \file cy_tcpwm.h
   3:Generated_Source\PSoC6\pdl\drivers/peripheral/tcpwm/cy_tcpwm.h **** * \version 1.10
   4:Generated_Source\PSoC6\pdl\drivers/peripheral/tcpwm/cy_tcpwm.h **** *
   5:Generated_Source\PSoC6\pdl\drivers/peripheral/tcpwm/cy_tcpwm.h **** * The header file of the TCPWM driver.
   6:Generated_Source\PSoC6\pdl\drivers/peripheral/tcpwm/cy_tcpwm.h **** *
   7:Generated_Source\PSoC6\pdl\drivers/peripheral/tcpwm/cy_tcpwm.h **** ********************************************************************************
   8:Generated_Source\PSoC6\pdl\drivers/peripheral/tcpwm/cy_tcpwm.h **** * \copyright
   9:Generated_Source\PSoC6\pdl\drivers/peripheral/tcpwm/cy_tcpwm.h **** * Copyright 2016-2018, Cypress Semiconductor Corporation. All rights reserved.
  10:Generated_Source\PSoC6\pdl\drivers/peripheral/tcpwm/cy_tcpwm.h **** * You may use this file only in accordance with the license, terms, conditions,
  11:Generated_Source\PSoC6\pdl\drivers/peripheral/tcpwm/cy_tcpwm.h **** * disclaimers, and limitations in the end user license agreement accompanying
  12:Generated_Source\PSoC6\pdl\drivers/peripheral/tcpwm/cy_tcpwm.h **** * the software package with which this file was provided.
ARM GAS  C:\Users\louis\AppData\Local\Temp\ccj8Y2ua.s 			page 16


  13:Generated_Source\PSoC6\pdl\drivers/peripheral/tcpwm/cy_tcpwm.h **** *******************************************************************************/
  14:Generated_Source\PSoC6\pdl\drivers/peripheral/tcpwm/cy_tcpwm.h **** 
  15:Generated_Source\PSoC6\pdl\drivers/peripheral/tcpwm/cy_tcpwm.h **** /**
  16:Generated_Source\PSoC6\pdl\drivers/peripheral/tcpwm/cy_tcpwm.h **** * \addtogroup group_tcpwm
  17:Generated_Source\PSoC6\pdl\drivers/peripheral/tcpwm/cy_tcpwm.h **** * \{
  18:Generated_Source\PSoC6\pdl\drivers/peripheral/tcpwm/cy_tcpwm.h **** * \defgroup group_tcpwm_common  Common
  19:Generated_Source\PSoC6\pdl\drivers/peripheral/tcpwm/cy_tcpwm.h **** * \defgroup group_tcpwm_counter Timer/Counter (TCPWM)
  20:Generated_Source\PSoC6\pdl\drivers/peripheral/tcpwm/cy_tcpwm.h **** * \defgroup group_tcpwm_pwm     PWM (TCPWM)
  21:Generated_Source\PSoC6\pdl\drivers/peripheral/tcpwm/cy_tcpwm.h **** * \defgroup group_tcpwm_quaddec Quadrature Decoder (TCPWM)
  22:Generated_Source\PSoC6\pdl\drivers/peripheral/tcpwm/cy_tcpwm.h **** * \} */
  23:Generated_Source\PSoC6\pdl\drivers/peripheral/tcpwm/cy_tcpwm.h **** 
  24:Generated_Source\PSoC6\pdl\drivers/peripheral/tcpwm/cy_tcpwm.h **** /**
  25:Generated_Source\PSoC6\pdl\drivers/peripheral/tcpwm/cy_tcpwm.h **** * \addtogroup group_tcpwm
  26:Generated_Source\PSoC6\pdl\drivers/peripheral/tcpwm/cy_tcpwm.h **** * \{
  27:Generated_Source\PSoC6\pdl\drivers/peripheral/tcpwm/cy_tcpwm.h **** * 
  28:Generated_Source\PSoC6\pdl\drivers/peripheral/tcpwm/cy_tcpwm.h **** * The TCPWM driver is a multifunction driver that implements Timer Counter, 
  29:Generated_Source\PSoC6\pdl\drivers/peripheral/tcpwm/cy_tcpwm.h **** * PWM, and Quadrature Decoder functionality using the TCPWM block.
  30:Generated_Source\PSoC6\pdl\drivers/peripheral/tcpwm/cy_tcpwm.h **** *
  31:Generated_Source\PSoC6\pdl\drivers/peripheral/tcpwm/cy_tcpwm.h **** * The functions and other declarations used in this driver are in cy_tcpwm_counter.h, 
  32:Generated_Source\PSoC6\pdl\drivers/peripheral/tcpwm/cy_tcpwm.h **** * cy_tcpwm_pwm.h, cy_tcpwm_quaddec.h respectively. Include cy_pdl.h 
  33:Generated_Source\PSoC6\pdl\drivers/peripheral/tcpwm/cy_tcpwm.h **** * (ModusToolbox only) to get access to all functions and declarations in the PDL.
  34:Generated_Source\PSoC6\pdl\drivers/peripheral/tcpwm/cy_tcpwm.h **** *
  35:Generated_Source\PSoC6\pdl\drivers/peripheral/tcpwm/cy_tcpwm.h **** * Each TCPWM block is a collection of counters that can all be triggered 
  36:Generated_Source\PSoC6\pdl\drivers/peripheral/tcpwm/cy_tcpwm.h **** * simultaneously. For each function call, the base register address of 
  37:Generated_Source\PSoC6\pdl\drivers/peripheral/tcpwm/cy_tcpwm.h **** * the TCPWM being used must be passed first, followed by the index of 
  38:Generated_Source\PSoC6\pdl\drivers/peripheral/tcpwm/cy_tcpwm.h **** * the counter you want to touch next. 
  39:Generated_Source\PSoC6\pdl\drivers/peripheral/tcpwm/cy_tcpwm.h **** * For some functions, you can manage multiple counters simultaneously. You 
  40:Generated_Source\PSoC6\pdl\drivers/peripheral/tcpwm/cy_tcpwm.h **** * provide a bit field representing each counter, rather than the single counter 
  41:Generated_Source\PSoC6\pdl\drivers/peripheral/tcpwm/cy_tcpwm.h **** * index). 
  42:Generated_Source\PSoC6\pdl\drivers/peripheral/tcpwm/cy_tcpwm.h **** *
  43:Generated_Source\PSoC6\pdl\drivers/peripheral/tcpwm/cy_tcpwm.h **** * The TCPWM supports three operating modes:
  44:Generated_Source\PSoC6\pdl\drivers/peripheral/tcpwm/cy_tcpwm.h **** * * Timer/Counter
  45:Generated_Source\PSoC6\pdl\drivers/peripheral/tcpwm/cy_tcpwm.h **** * * PWM
  46:Generated_Source\PSoC6\pdl\drivers/peripheral/tcpwm/cy_tcpwm.h **** * * Quadrature Decoder
  47:Generated_Source\PSoC6\pdl\drivers/peripheral/tcpwm/cy_tcpwm.h **** *
  48:Generated_Source\PSoC6\pdl\drivers/peripheral/tcpwm/cy_tcpwm.h **** * \n
  49:Generated_Source\PSoC6\pdl\drivers/peripheral/tcpwm/cy_tcpwm.h **** * \b Timer/Counter
  50:Generated_Source\PSoC6\pdl\drivers/peripheral/tcpwm/cy_tcpwm.h **** *
  51:Generated_Source\PSoC6\pdl\drivers/peripheral/tcpwm/cy_tcpwm.h **** * Use this mode whenever a specific timing interval or measurement is 
  52:Generated_Source\PSoC6\pdl\drivers/peripheral/tcpwm/cy_tcpwm.h **** * needed. Examples include:
  53:Generated_Source\PSoC6\pdl\drivers/peripheral/tcpwm/cy_tcpwm.h **** * * Creating a periodic interrupt for running other system tasks
  54:Generated_Source\PSoC6\pdl\drivers/peripheral/tcpwm/cy_tcpwm.h **** * * Measuring frequency of an input signal
  55:Generated_Source\PSoC6\pdl\drivers/peripheral/tcpwm/cy_tcpwm.h **** * * Measuring pulse width of an input signal
  56:Generated_Source\PSoC6\pdl\drivers/peripheral/tcpwm/cy_tcpwm.h **** * * Measuring time between two external events
  57:Generated_Source\PSoC6\pdl\drivers/peripheral/tcpwm/cy_tcpwm.h **** * * Counting events
  58:Generated_Source\PSoC6\pdl\drivers/peripheral/tcpwm/cy_tcpwm.h **** * * Triggering other system resources after x number events
  59:Generated_Source\PSoC6\pdl\drivers/peripheral/tcpwm/cy_tcpwm.h **** * * Capturing time stamps when events occur
  60:Generated_Source\PSoC6\pdl\drivers/peripheral/tcpwm/cy_tcpwm.h **** *
  61:Generated_Source\PSoC6\pdl\drivers/peripheral/tcpwm/cy_tcpwm.h **** * The Timer/Counter has the following features:
  62:Generated_Source\PSoC6\pdl\drivers/peripheral/tcpwm/cy_tcpwm.h **** * * 16- or 32-bit Timer/Counter
  63:Generated_Source\PSoC6\pdl\drivers/peripheral/tcpwm/cy_tcpwm.h **** * * Programmable Period Register
  64:Generated_Source\PSoC6\pdl\drivers/peripheral/tcpwm/cy_tcpwm.h **** * * Programmable Compare Register. Compare value can be swapped with a 
  65:Generated_Source\PSoC6\pdl\drivers/peripheral/tcpwm/cy_tcpwm.h **** * buffered compare value on comparison event
  66:Generated_Source\PSoC6\pdl\drivers/peripheral/tcpwm/cy_tcpwm.h **** * * Capture with buffer register
  67:Generated_Source\PSoC6\pdl\drivers/peripheral/tcpwm/cy_tcpwm.h **** * * Count Up, Count Down, or Count Up and Down Counting modes
  68:Generated_Source\PSoC6\pdl\drivers/peripheral/tcpwm/cy_tcpwm.h **** * * Continuous or One Shot Run modes
  69:Generated_Source\PSoC6\pdl\drivers/peripheral/tcpwm/cy_tcpwm.h **** * * Interrupt and Output on Overflow, Underflow, Capture, or Compare 
ARM GAS  C:\Users\louis\AppData\Local\Temp\ccj8Y2ua.s 			page 17


  70:Generated_Source\PSoC6\pdl\drivers/peripheral/tcpwm/cy_tcpwm.h **** * * Start, Reload, Stop, Capture, and Count Inputs
  71:Generated_Source\PSoC6\pdl\drivers/peripheral/tcpwm/cy_tcpwm.h **** *
  72:Generated_Source\PSoC6\pdl\drivers/peripheral/tcpwm/cy_tcpwm.h **** * \n
  73:Generated_Source\PSoC6\pdl\drivers/peripheral/tcpwm/cy_tcpwm.h **** * \b PWM
  74:Generated_Source\PSoC6\pdl\drivers/peripheral/tcpwm/cy_tcpwm.h **** *
  75:Generated_Source\PSoC6\pdl\drivers/peripheral/tcpwm/cy_tcpwm.h **** * Use this mode when an output square wave is needed with a specific 
  76:Generated_Source\PSoC6\pdl\drivers/peripheral/tcpwm/cy_tcpwm.h **** * period and duty cycle, such as:
  77:Generated_Source\PSoC6\pdl\drivers/peripheral/tcpwm/cy_tcpwm.h **** * * Creating arbitrary square wave outputs
  78:Generated_Source\PSoC6\pdl\drivers/peripheral/tcpwm/cy_tcpwm.h **** * * Driving an LED (changing the brightness)
  79:Generated_Source\PSoC6\pdl\drivers/peripheral/tcpwm/cy_tcpwm.h **** * * Driving Motors (dead time assertion available)
  80:Generated_Source\PSoC6\pdl\drivers/peripheral/tcpwm/cy_tcpwm.h **** *
  81:Generated_Source\PSoC6\pdl\drivers/peripheral/tcpwm/cy_tcpwm.h **** * The PWM has the following features:
  82:Generated_Source\PSoC6\pdl\drivers/peripheral/tcpwm/cy_tcpwm.h **** * * 16- or 32-bit Counter
  83:Generated_Source\PSoC6\pdl\drivers/peripheral/tcpwm/cy_tcpwm.h **** * * Two Programmable Period registers that can be swapped
  84:Generated_Source\PSoC6\pdl\drivers/peripheral/tcpwm/cy_tcpwm.h **** * * Two Output Compare registers that can be swapped on overflow and/or 
  85:Generated_Source\PSoC6\pdl\drivers/peripheral/tcpwm/cy_tcpwm.h **** * underflow
  86:Generated_Source\PSoC6\pdl\drivers/peripheral/tcpwm/cy_tcpwm.h **** * * Left Aligned, Right Aligned, Center Aligned, and Asymmetric Aligned modes
  87:Generated_Source\PSoC6\pdl\drivers/peripheral/tcpwm/cy_tcpwm.h **** * * Continuous or One Shot run modes
  88:Generated_Source\PSoC6\pdl\drivers/peripheral/tcpwm/cy_tcpwm.h **** * * Pseudo Random mode
  89:Generated_Source\PSoC6\pdl\drivers/peripheral/tcpwm/cy_tcpwm.h **** * * Two PWM outputs with Dead Time insertion, and programmable polarity
  90:Generated_Source\PSoC6\pdl\drivers/peripheral/tcpwm/cy_tcpwm.h **** * * Interrupt and Output on Overflow, Underflow, or Compare 
  91:Generated_Source\PSoC6\pdl\drivers/peripheral/tcpwm/cy_tcpwm.h **** * * Start, Reload, Stop, Swap (Capture), and Count Inputs
  92:Generated_Source\PSoC6\pdl\drivers/peripheral/tcpwm/cy_tcpwm.h **** * * Multiple Components can be synchronized together for applications 
  93:Generated_Source\PSoC6\pdl\drivers/peripheral/tcpwm/cy_tcpwm.h **** * such as three phase motor control
  94:Generated_Source\PSoC6\pdl\drivers/peripheral/tcpwm/cy_tcpwm.h **** *
  95:Generated_Source\PSoC6\pdl\drivers/peripheral/tcpwm/cy_tcpwm.h **** * \n
  96:Generated_Source\PSoC6\pdl\drivers/peripheral/tcpwm/cy_tcpwm.h **** * \b Quadrature \b Decoder
  97:Generated_Source\PSoC6\pdl\drivers/peripheral/tcpwm/cy_tcpwm.h **** *
  98:Generated_Source\PSoC6\pdl\drivers/peripheral/tcpwm/cy_tcpwm.h **** * A quadrature decoder is used to decode the output of a quadrature encoder. 
  99:Generated_Source\PSoC6\pdl\drivers/peripheral/tcpwm/cy_tcpwm.h **** * A quadrature encoder senses the position, velocity, and direction of 
 100:Generated_Source\PSoC6\pdl\drivers/peripheral/tcpwm/cy_tcpwm.h **** * an object (for example a rotating axle, or a spinning mouse ball). 
 101:Generated_Source\PSoC6\pdl\drivers/peripheral/tcpwm/cy_tcpwm.h **** * A quadrature decoder can also be used for precision measurement of speed, 
 102:Generated_Source\PSoC6\pdl\drivers/peripheral/tcpwm/cy_tcpwm.h **** * acceleration, and position of a motor's rotor, or with a rotary switch to 
 103:Generated_Source\PSoC6\pdl\drivers/peripheral/tcpwm/cy_tcpwm.h **** * determine user input. \n
 104:Generated_Source\PSoC6\pdl\drivers/peripheral/tcpwm/cy_tcpwm.h **** * 
 105:Generated_Source\PSoC6\pdl\drivers/peripheral/tcpwm/cy_tcpwm.h **** * The Quadrature Decoder has the following features:
 106:Generated_Source\PSoC6\pdl\drivers/peripheral/tcpwm/cy_tcpwm.h **** * * 16- or 32-bit Counter
 107:Generated_Source\PSoC6\pdl\drivers/peripheral/tcpwm/cy_tcpwm.h **** * * Counter Resolution of x1, x2, and x4 the frequency of the phiA (Count) and 
 108:Generated_Source\PSoC6\pdl\drivers/peripheral/tcpwm/cy_tcpwm.h **** * phiB (Start) inputs
 109:Generated_Source\PSoC6\pdl\drivers/peripheral/tcpwm/cy_tcpwm.h **** * * Index Input to determine absolute position
 110:Generated_Source\PSoC6\pdl\drivers/peripheral/tcpwm/cy_tcpwm.h **** * * A positive edge on phiA increments the counter when phiB is 0 and decrements
 111:Generated_Source\PSoC6\pdl\drivers/peripheral/tcpwm/cy_tcpwm.h **** * the counter when phiB is 1
 112:Generated_Source\PSoC6\pdl\drivers/peripheral/tcpwm/cy_tcpwm.h **** *
 113:Generated_Source\PSoC6\pdl\drivers/peripheral/tcpwm/cy_tcpwm.h **** * \section group_tcpwm_configuration Configuration Considerations
 114:Generated_Source\PSoC6\pdl\drivers/peripheral/tcpwm/cy_tcpwm.h **** *
 115:Generated_Source\PSoC6\pdl\drivers/peripheral/tcpwm/cy_tcpwm.h **** * For each mode, the TCPWM driver has a configuration structure, an Init 
 116:Generated_Source\PSoC6\pdl\drivers/peripheral/tcpwm/cy_tcpwm.h **** * function, and an Enable function. 
 117:Generated_Source\PSoC6\pdl\drivers/peripheral/tcpwm/cy_tcpwm.h **** *
 118:Generated_Source\PSoC6\pdl\drivers/peripheral/tcpwm/cy_tcpwm.h **** * Provide the configuration parameters in the appropriate structure (see
 119:Generated_Source\PSoC6\pdl\drivers/peripheral/tcpwm/cy_tcpwm.h **** * Counter \ref group_tcpwm_data_structures_counter, PWM 
 120:Generated_Source\PSoC6\pdl\drivers/peripheral/tcpwm/cy_tcpwm.h **** * \ref group_tcpwm_data_structures_pwm, or QuadDec 
 121:Generated_Source\PSoC6\pdl\drivers/peripheral/tcpwm/cy_tcpwm.h **** * \ref group_tcpwm_data_structures_quaddec). 
 122:Generated_Source\PSoC6\pdl\drivers/peripheral/tcpwm/cy_tcpwm.h **** * Then call the appropriate Init function: 
 123:Generated_Source\PSoC6\pdl\drivers/peripheral/tcpwm/cy_tcpwm.h **** * \ref Cy_TCPWM_Counter_Init, \ref Cy_TCPWM_PWM_Init, or 
 124:Generated_Source\PSoC6\pdl\drivers/peripheral/tcpwm/cy_tcpwm.h **** * \ref Cy_TCPWM_QuadDec_Init. Provide the address of the filled structure as a 
 125:Generated_Source\PSoC6\pdl\drivers/peripheral/tcpwm/cy_tcpwm.h **** * parameter. To enable the counter, call the appropriate Enable function: 
 126:Generated_Source\PSoC6\pdl\drivers/peripheral/tcpwm/cy_tcpwm.h **** * \ref Cy_TCPWM_Counter_Enable, \ref Cy_TCPWM_PWM_Enable, or 
ARM GAS  C:\Users\louis\AppData\Local\Temp\ccj8Y2ua.s 			page 18


 127:Generated_Source\PSoC6\pdl\drivers/peripheral/tcpwm/cy_tcpwm.h **** * \ref Cy_TCPWM_QuadDec_Enable).
 128:Generated_Source\PSoC6\pdl\drivers/peripheral/tcpwm/cy_tcpwm.h **** *
 129:Generated_Source\PSoC6\pdl\drivers/peripheral/tcpwm/cy_tcpwm.h **** * Many functions work with an individual counter. You can also manage multiple 
 130:Generated_Source\PSoC6\pdl\drivers/peripheral/tcpwm/cy_tcpwm.h **** * counters simultaneously for certain functions. These are listed in the 
 131:Generated_Source\PSoC6\pdl\drivers/peripheral/tcpwm/cy_tcpwm.h **** * \ref group_tcpwm_functions_common 
 132:Generated_Source\PSoC6\pdl\drivers/peripheral/tcpwm/cy_tcpwm.h **** * section of the TCPWM. You can enable, disable, or trigger (in various ways) 
 133:Generated_Source\PSoC6\pdl\drivers/peripheral/tcpwm/cy_tcpwm.h **** * multiple counters simultaneously. For these functions you provide a bit field 
 134:Generated_Source\PSoC6\pdl\drivers/peripheral/tcpwm/cy_tcpwm.h **** * representing each counter in the TCPWM you want to control. You can 
 135:Generated_Source\PSoC6\pdl\drivers/peripheral/tcpwm/cy_tcpwm.h **** * represent the bit field as an ORed mask of each counter, like 
 136:Generated_Source\PSoC6\pdl\drivers/peripheral/tcpwm/cy_tcpwm.h **** * ((1U << cntNumX) | (1U << cntNumX) | (1U << cntNumX)), where X is the counter 
 137:Generated_Source\PSoC6\pdl\drivers/peripheral/tcpwm/cy_tcpwm.h **** * number from 0 to 31.
 138:Generated_Source\PSoC6\pdl\drivers/peripheral/tcpwm/cy_tcpwm.h **** *
 139:Generated_Source\PSoC6\pdl\drivers/peripheral/tcpwm/cy_tcpwm.h **** * \note
 140:Generated_Source\PSoC6\pdl\drivers/peripheral/tcpwm/cy_tcpwm.h **** * * If none of the input terminals (start, reload(index)) are used, the 
 141:Generated_Source\PSoC6\pdl\drivers/peripheral/tcpwm/cy_tcpwm.h **** * software event \ref Cy_TCPWM_TriggerStart or 
 142:Generated_Source\PSoC6\pdl\drivers/peripheral/tcpwm/cy_tcpwm.h **** * \ref Cy_TCPWM_TriggerReloadOrIndex must be called to start the counting.
 143:Generated_Source\PSoC6\pdl\drivers/peripheral/tcpwm/cy_tcpwm.h **** * * If count input terminal is not used, the \ref CY_TCPWM_INPUT_LEVEL macro 
 144:Generated_Source\PSoC6\pdl\drivers/peripheral/tcpwm/cy_tcpwm.h **** * should be set for the countInputMode parameter and the \ref CY_TCPWM_INPUT_1 
 145:Generated_Source\PSoC6\pdl\drivers/peripheral/tcpwm/cy_tcpwm.h **** * macro should be set for the countInput parameter in the configuration 
 146:Generated_Source\PSoC6\pdl\drivers/peripheral/tcpwm/cy_tcpwm.h **** * structure of the appropriate mode(Counter 
 147:Generated_Source\PSoC6\pdl\drivers/peripheral/tcpwm/cy_tcpwm.h **** * \ref group_tcpwm_data_structures_counter, PWM 
 148:Generated_Source\PSoC6\pdl\drivers/peripheral/tcpwm/cy_tcpwm.h **** * \ref group_tcpwm_data_structures_pwm, or QuadDec 
 149:Generated_Source\PSoC6\pdl\drivers/peripheral/tcpwm/cy_tcpwm.h **** * \ref group_tcpwm_data_structures_quaddec).
 150:Generated_Source\PSoC6\pdl\drivers/peripheral/tcpwm/cy_tcpwm.h **** *
 151:Generated_Source\PSoC6\pdl\drivers/peripheral/tcpwm/cy_tcpwm.h **** * \subsection group_tcpwm_pins Assign and Configure Pins
 152:Generated_Source\PSoC6\pdl\drivers/peripheral/tcpwm/cy_tcpwm.h **** * The dedicated TCPWM pins can be used. The HSIOM register must be configured to
 153:Generated_Source\PSoC6\pdl\drivers/peripheral/tcpwm/cy_tcpwm.h **** * connect the block to the pins. Use the \ref group_gpio driver API to do that.
 154:Generated_Source\PSoC6\pdl\drivers/peripheral/tcpwm/cy_tcpwm.h **** *
 155:Generated_Source\PSoC6\pdl\drivers/peripheral/tcpwm/cy_tcpwm.h **** * \snippet tcpwm\1.10\counter\snippet\main.c snippet_Cy_TCPWM_Pins
 156:Generated_Source\PSoC6\pdl\drivers/peripheral/tcpwm/cy_tcpwm.h **** *
 157:Generated_Source\PSoC6\pdl\drivers/peripheral/tcpwm/cy_tcpwm.h **** * \subsection group_tcpwm_clock Assign Clock Divider
 158:Generated_Source\PSoC6\pdl\drivers/peripheral/tcpwm/cy_tcpwm.h **** * The clock source must be connected to proper working.
 159:Generated_Source\PSoC6\pdl\drivers/peripheral/tcpwm/cy_tcpwm.h **** * Any of the peripheral clock dividers could be used. Use the  
 160:Generated_Source\PSoC6\pdl\drivers/peripheral/tcpwm/cy_tcpwm.h **** * \ref group_sysclk driver API to do that.
 161:Generated_Source\PSoC6\pdl\drivers/peripheral/tcpwm/cy_tcpwm.h **** *
 162:Generated_Source\PSoC6\pdl\drivers/peripheral/tcpwm/cy_tcpwm.h **** * \snippet tcpwm\1.10\counter\snippet\main.c snippet_Cy_TCPWM_Clock
 163:Generated_Source\PSoC6\pdl\drivers/peripheral/tcpwm/cy_tcpwm.h **** *
 164:Generated_Source\PSoC6\pdl\drivers/peripheral/tcpwm/cy_tcpwm.h **** * \section group_tcpwm_more_information More Information
 165:Generated_Source\PSoC6\pdl\drivers/peripheral/tcpwm/cy_tcpwm.h **** *
 166:Generated_Source\PSoC6\pdl\drivers/peripheral/tcpwm/cy_tcpwm.h **** * For more information on the TCPWM peripheral, refer to the technical 
 167:Generated_Source\PSoC6\pdl\drivers/peripheral/tcpwm/cy_tcpwm.h **** * reference manual (TRM).
 168:Generated_Source\PSoC6\pdl\drivers/peripheral/tcpwm/cy_tcpwm.h **** *
 169:Generated_Source\PSoC6\pdl\drivers/peripheral/tcpwm/cy_tcpwm.h **** * \section group_tcpwm_MISRA MISRA-C Compliance 
 170:Generated_Source\PSoC6\pdl\drivers/peripheral/tcpwm/cy_tcpwm.h **** * <table class="doxtable">
 171:Generated_Source\PSoC6\pdl\drivers/peripheral/tcpwm/cy_tcpwm.h **** *   <tr>
 172:Generated_Source\PSoC6\pdl\drivers/peripheral/tcpwm/cy_tcpwm.h **** *     <th>MISRA Rule</th>
 173:Generated_Source\PSoC6\pdl\drivers/peripheral/tcpwm/cy_tcpwm.h **** *     <th>Rule Class (Required/Advisory)</th>
 174:Generated_Source\PSoC6\pdl\drivers/peripheral/tcpwm/cy_tcpwm.h **** *     <th>Rule Description</th>
 175:Generated_Source\PSoC6\pdl\drivers/peripheral/tcpwm/cy_tcpwm.h **** *     <th>Description of Deviation(s)</th>
 176:Generated_Source\PSoC6\pdl\drivers/peripheral/tcpwm/cy_tcpwm.h **** *   </tr>
 177:Generated_Source\PSoC6\pdl\drivers/peripheral/tcpwm/cy_tcpwm.h **** *   <tr>
 178:Generated_Source\PSoC6\pdl\drivers/peripheral/tcpwm/cy_tcpwm.h **** *     <td>14.2</td>
 179:Generated_Source\PSoC6\pdl\drivers/peripheral/tcpwm/cy_tcpwm.h **** *     <td>R</td>
 180:Generated_Source\PSoC6\pdl\drivers/peripheral/tcpwm/cy_tcpwm.h **** *     <td>All non-null statements shall either: a) have at least one side-effect
 181:Generated_Source\PSoC6\pdl\drivers/peripheral/tcpwm/cy_tcpwm.h **** *         however executed, or b) cause control flow to change.</td>
 182:Generated_Source\PSoC6\pdl\drivers/peripheral/tcpwm/cy_tcpwm.h **** *     <td>The unused function parameters are cast to void. This statement
 183:Generated_Source\PSoC6\pdl\drivers/peripheral/tcpwm/cy_tcpwm.h **** *         has no side-effect and is used to suppress a compiler warning.</td>
ARM GAS  C:\Users\louis\AppData\Local\Temp\ccj8Y2ua.s 			page 19


 184:Generated_Source\PSoC6\pdl\drivers/peripheral/tcpwm/cy_tcpwm.h **** *   </tr>
 185:Generated_Source\PSoC6\pdl\drivers/peripheral/tcpwm/cy_tcpwm.h **** * </table>
 186:Generated_Source\PSoC6\pdl\drivers/peripheral/tcpwm/cy_tcpwm.h **** *
 187:Generated_Source\PSoC6\pdl\drivers/peripheral/tcpwm/cy_tcpwm.h **** * \section group_tcpwm_changelog Changelog
 188:Generated_Source\PSoC6\pdl\drivers/peripheral/tcpwm/cy_tcpwm.h **** * <table class="doxtable">
 189:Generated_Source\PSoC6\pdl\drivers/peripheral/tcpwm/cy_tcpwm.h **** *   <tr><th>Version</th><th>Changes</th><th>Reason for Change</th></tr>
 190:Generated_Source\PSoC6\pdl\drivers/peripheral/tcpwm/cy_tcpwm.h **** *   <tr>
 191:Generated_Source\PSoC6\pdl\drivers/peripheral/tcpwm/cy_tcpwm.h **** *     <td rowspan="2">1.10</td>
 192:Generated_Source\PSoC6\pdl\drivers/peripheral/tcpwm/cy_tcpwm.h **** *     <td>Flattened the organization of the driver source code into the single 
 193:Generated_Source\PSoC6\pdl\drivers/peripheral/tcpwm/cy_tcpwm.h **** *         source directory and the single include directory.
 194:Generated_Source\PSoC6\pdl\drivers/peripheral/tcpwm/cy_tcpwm.h **** *     </td>
 195:Generated_Source\PSoC6\pdl\drivers/peripheral/tcpwm/cy_tcpwm.h **** *     <td>Driver library directory-structure simplification.</td>
 196:Generated_Source\PSoC6\pdl\drivers/peripheral/tcpwm/cy_tcpwm.h **** *   </tr>
 197:Generated_Source\PSoC6\pdl\drivers/peripheral/tcpwm/cy_tcpwm.h **** *   <tr>
 198:Generated_Source\PSoC6\pdl\drivers/peripheral/tcpwm/cy_tcpwm.h **** *     <td>Added register access layer. Use register access macros instead
 199:Generated_Source\PSoC6\pdl\drivers/peripheral/tcpwm/cy_tcpwm.h **** *         of direct register access using dereferenced pointers.</td>
 200:Generated_Source\PSoC6\pdl\drivers/peripheral/tcpwm/cy_tcpwm.h **** *     <td>Makes register access device-independent, so that the PDL does 
 201:Generated_Source\PSoC6\pdl\drivers/peripheral/tcpwm/cy_tcpwm.h **** *         not need to be recompiled for each supported part number.</td>
 202:Generated_Source\PSoC6\pdl\drivers/peripheral/tcpwm/cy_tcpwm.h **** *   </tr>
 203:Generated_Source\PSoC6\pdl\drivers/peripheral/tcpwm/cy_tcpwm.h **** *   <tr>
 204:Generated_Source\PSoC6\pdl\drivers/peripheral/tcpwm/cy_tcpwm.h **** *     <td>1.0.1</td>
 205:Generated_Source\PSoC6\pdl\drivers/peripheral/tcpwm/cy_tcpwm.h **** *     <td>Added a deviation to the MISRA Compliance section.
 206:Generated_Source\PSoC6\pdl\drivers/peripheral/tcpwm/cy_tcpwm.h **** *         Added function-level code snippets.</td>
 207:Generated_Source\PSoC6\pdl\drivers/peripheral/tcpwm/cy_tcpwm.h **** *     <td>Documentation update and clarification</td>
 208:Generated_Source\PSoC6\pdl\drivers/peripheral/tcpwm/cy_tcpwm.h **** *   </tr>
 209:Generated_Source\PSoC6\pdl\drivers/peripheral/tcpwm/cy_tcpwm.h **** *   <tr>
 210:Generated_Source\PSoC6\pdl\drivers/peripheral/tcpwm/cy_tcpwm.h **** *     <td>1.0</td>
 211:Generated_Source\PSoC6\pdl\drivers/peripheral/tcpwm/cy_tcpwm.h **** *     <td>Initial version</td>
 212:Generated_Source\PSoC6\pdl\drivers/peripheral/tcpwm/cy_tcpwm.h **** *     <td></td>
 213:Generated_Source\PSoC6\pdl\drivers/peripheral/tcpwm/cy_tcpwm.h **** *   </tr>
 214:Generated_Source\PSoC6\pdl\drivers/peripheral/tcpwm/cy_tcpwm.h **** * </table>
 215:Generated_Source\PSoC6\pdl\drivers/peripheral/tcpwm/cy_tcpwm.h **** */
 216:Generated_Source\PSoC6\pdl\drivers/peripheral/tcpwm/cy_tcpwm.h **** 
 217:Generated_Source\PSoC6\pdl\drivers/peripheral/tcpwm/cy_tcpwm.h **** /** \} group_tcpwm */
 218:Generated_Source\PSoC6\pdl\drivers/peripheral/tcpwm/cy_tcpwm.h **** 
 219:Generated_Source\PSoC6\pdl\drivers/peripheral/tcpwm/cy_tcpwm.h **** /**
 220:Generated_Source\PSoC6\pdl\drivers/peripheral/tcpwm/cy_tcpwm.h **** * \addtogroup group_tcpwm_common
 221:Generated_Source\PSoC6\pdl\drivers/peripheral/tcpwm/cy_tcpwm.h **** * Common API for the Timer Counter PWM Block.
 222:Generated_Source\PSoC6\pdl\drivers/peripheral/tcpwm/cy_tcpwm.h **** *
 223:Generated_Source\PSoC6\pdl\drivers/peripheral/tcpwm/cy_tcpwm.h **** * This is the common API that provides an interface to the TCPWM hardware.
 224:Generated_Source\PSoC6\pdl\drivers/peripheral/tcpwm/cy_tcpwm.h **** * The Timer Counter, PWM, and Quadrature Decoder drivers use this common API.
 225:Generated_Source\PSoC6\pdl\drivers/peripheral/tcpwm/cy_tcpwm.h **** * Most users will use individual drivers and do not need to use the common
 226:Generated_Source\PSoC6\pdl\drivers/peripheral/tcpwm/cy_tcpwm.h **** * API for the TCPWM.
 227:Generated_Source\PSoC6\pdl\drivers/peripheral/tcpwm/cy_tcpwm.h **** *
 228:Generated_Source\PSoC6\pdl\drivers/peripheral/tcpwm/cy_tcpwm.h **** * The functions and other declarations used in this part of the driver are in cy_tcpwm.h. 
 229:Generated_Source\PSoC6\pdl\drivers/peripheral/tcpwm/cy_tcpwm.h **** * Include either of cy_tcpwm_counter.h, cy_tcpwm_pwm.h, cy_tcpwm_quaddec.h 
 230:Generated_Source\PSoC6\pdl\drivers/peripheral/tcpwm/cy_tcpwm.h **** * depending on the desired functionality. You can also include cy_pdl.h 
 231:Generated_Source\PSoC6\pdl\drivers/peripheral/tcpwm/cy_tcpwm.h **** * to get access to all functions and declarations in the PDL.
 232:Generated_Source\PSoC6\pdl\drivers/peripheral/tcpwm/cy_tcpwm.h **** *
 233:Generated_Source\PSoC6\pdl\drivers/peripheral/tcpwm/cy_tcpwm.h **** * \{
 234:Generated_Source\PSoC6\pdl\drivers/peripheral/tcpwm/cy_tcpwm.h **** * \defgroup group_tcpwm_macros_common           Macros
 235:Generated_Source\PSoC6\pdl\drivers/peripheral/tcpwm/cy_tcpwm.h **** * \defgroup group_tcpwm_functions_common        Functions
 236:Generated_Source\PSoC6\pdl\drivers/peripheral/tcpwm/cy_tcpwm.h **** * \defgroup group_tcpwm_data_structures_common  Data Structures
 237:Generated_Source\PSoC6\pdl\drivers/peripheral/tcpwm/cy_tcpwm.h **** * \defgroup group_tcpwm_enums Enumerated Types
 238:Generated_Source\PSoC6\pdl\drivers/peripheral/tcpwm/cy_tcpwm.h **** */
 239:Generated_Source\PSoC6\pdl\drivers/peripheral/tcpwm/cy_tcpwm.h **** 
 240:Generated_Source\PSoC6\pdl\drivers/peripheral/tcpwm/cy_tcpwm.h **** 
ARM GAS  C:\Users\louis\AppData\Local\Temp\ccj8Y2ua.s 			page 20


 241:Generated_Source\PSoC6\pdl\drivers/peripheral/tcpwm/cy_tcpwm.h **** #if !defined(CY_TCPWM_H)
 242:Generated_Source\PSoC6\pdl\drivers/peripheral/tcpwm/cy_tcpwm.h **** #define CY_TCPWM_H
 243:Generated_Source\PSoC6\pdl\drivers/peripheral/tcpwm/cy_tcpwm.h **** 
 244:Generated_Source\PSoC6\pdl\drivers/peripheral/tcpwm/cy_tcpwm.h **** #include <stdint.h>
 245:Generated_Source\PSoC6\pdl\drivers/peripheral/tcpwm/cy_tcpwm.h **** #include <stdbool.h>
 246:Generated_Source\PSoC6\pdl\drivers/peripheral/tcpwm/cy_tcpwm.h **** #include <stddef.h>
 247:Generated_Source\PSoC6\pdl\drivers/peripheral/tcpwm/cy_tcpwm.h **** #include "cy_syslib.h"
 248:Generated_Source\PSoC6\pdl\drivers/peripheral/tcpwm/cy_tcpwm.h **** #include "cy_device_headers.h"
 249:Generated_Source\PSoC6\pdl\drivers/peripheral/tcpwm/cy_tcpwm.h **** #include "cy_device.h"
 250:Generated_Source\PSoC6\pdl\drivers/peripheral/tcpwm/cy_tcpwm.h **** 
 251:Generated_Source\PSoC6\pdl\drivers/peripheral/tcpwm/cy_tcpwm.h **** #ifdef CY_IP_MXTCPWM
 252:Generated_Source\PSoC6\pdl\drivers/peripheral/tcpwm/cy_tcpwm.h **** 
 253:Generated_Source\PSoC6\pdl\drivers/peripheral/tcpwm/cy_tcpwm.h **** #if defined(__cplusplus)
 254:Generated_Source\PSoC6\pdl\drivers/peripheral/tcpwm/cy_tcpwm.h **** extern "C" {
 255:Generated_Source\PSoC6\pdl\drivers/peripheral/tcpwm/cy_tcpwm.h **** #endif
 256:Generated_Source\PSoC6\pdl\drivers/peripheral/tcpwm/cy_tcpwm.h **** 
 257:Generated_Source\PSoC6\pdl\drivers/peripheral/tcpwm/cy_tcpwm.h **** /**
 258:Generated_Source\PSoC6\pdl\drivers/peripheral/tcpwm/cy_tcpwm.h **** * \addtogroup group_tcpwm_macros_common
 259:Generated_Source\PSoC6\pdl\drivers/peripheral/tcpwm/cy_tcpwm.h **** * \{
 260:Generated_Source\PSoC6\pdl\drivers/peripheral/tcpwm/cy_tcpwm.h **** */
 261:Generated_Source\PSoC6\pdl\drivers/peripheral/tcpwm/cy_tcpwm.h **** 
 262:Generated_Source\PSoC6\pdl\drivers/peripheral/tcpwm/cy_tcpwm.h **** /** Driver major version */
 263:Generated_Source\PSoC6\pdl\drivers/peripheral/tcpwm/cy_tcpwm.h **** #define CY_TCPWM_DRV_VERSION_MAJOR       1
 264:Generated_Source\PSoC6\pdl\drivers/peripheral/tcpwm/cy_tcpwm.h **** 
 265:Generated_Source\PSoC6\pdl\drivers/peripheral/tcpwm/cy_tcpwm.h **** /** Driver minor version */
 266:Generated_Source\PSoC6\pdl\drivers/peripheral/tcpwm/cy_tcpwm.h **** #define CY_TCPWM_DRV_VERSION_MINOR       10
 267:Generated_Source\PSoC6\pdl\drivers/peripheral/tcpwm/cy_tcpwm.h **** 
 268:Generated_Source\PSoC6\pdl\drivers/peripheral/tcpwm/cy_tcpwm.h **** 
 269:Generated_Source\PSoC6\pdl\drivers/peripheral/tcpwm/cy_tcpwm.h **** /******************************************************************************
 270:Generated_Source\PSoC6\pdl\drivers/peripheral/tcpwm/cy_tcpwm.h **** * API Constants
 271:Generated_Source\PSoC6\pdl\drivers/peripheral/tcpwm/cy_tcpwm.h **** ******************************************************************************/
 272:Generated_Source\PSoC6\pdl\drivers/peripheral/tcpwm/cy_tcpwm.h **** 
 273:Generated_Source\PSoC6\pdl\drivers/peripheral/tcpwm/cy_tcpwm.h **** /** TCPWM driver identifier */
 274:Generated_Source\PSoC6\pdl\drivers/peripheral/tcpwm/cy_tcpwm.h **** #define CY_TCPWM_ID                     (CY_PDL_DRV_ID(0x2DU))
 275:Generated_Source\PSoC6\pdl\drivers/peripheral/tcpwm/cy_tcpwm.h **** 
 276:Generated_Source\PSoC6\pdl\drivers/peripheral/tcpwm/cy_tcpwm.h **** /** \defgroup group_tcpwm_input_selection  TCPWM Input Selection
 277:Generated_Source\PSoC6\pdl\drivers/peripheral/tcpwm/cy_tcpwm.h **** * \{
 278:Generated_Source\PSoC6\pdl\drivers/peripheral/tcpwm/cy_tcpwm.h **** * Selects which input to use
 279:Generated_Source\PSoC6\pdl\drivers/peripheral/tcpwm/cy_tcpwm.h **** */
 280:Generated_Source\PSoC6\pdl\drivers/peripheral/tcpwm/cy_tcpwm.h **** #define CY_TCPWM_INPUT_0                (0U)  /**< Input is tied to logic 0 */
 281:Generated_Source\PSoC6\pdl\drivers/peripheral/tcpwm/cy_tcpwm.h **** #define CY_TCPWM_INPUT_1                (1U)  /**< Input is tied to logic 1 */
 282:Generated_Source\PSoC6\pdl\drivers/peripheral/tcpwm/cy_tcpwm.h **** #define CY_TCPWM_INPUT_TRIG_0           (2U)  /**< Input is connected to the trigger input 0 */
 283:Generated_Source\PSoC6\pdl\drivers/peripheral/tcpwm/cy_tcpwm.h **** #define CY_TCPWM_INPUT_TRIG_1           (3U)  /**< Input is connected to the trigger input 1 */
 284:Generated_Source\PSoC6\pdl\drivers/peripheral/tcpwm/cy_tcpwm.h **** #define CY_TCPWM_INPUT_TRIG_2           (4U)  /**< Input is connected to the trigger input 2 */
 285:Generated_Source\PSoC6\pdl\drivers/peripheral/tcpwm/cy_tcpwm.h **** #define CY_TCPWM_INPUT_TRIG_3           (5U)  /**< Input is connected to the trigger input 3 */
 286:Generated_Source\PSoC6\pdl\drivers/peripheral/tcpwm/cy_tcpwm.h **** #define CY_TCPWM_INPUT_TRIG_4           (6U)  /**< Input is connected to the trigger input 4 */
 287:Generated_Source\PSoC6\pdl\drivers/peripheral/tcpwm/cy_tcpwm.h **** #define CY_TCPWM_INPUT_TRIG_5           (7U)  /**< Input is connected to the trigger input 5 */
 288:Generated_Source\PSoC6\pdl\drivers/peripheral/tcpwm/cy_tcpwm.h **** #define CY_TCPWM_INPUT_TRIG_6           (8U)  /**< Input is connected to the trigger input 6 */
 289:Generated_Source\PSoC6\pdl\drivers/peripheral/tcpwm/cy_tcpwm.h **** #define CY_TCPWM_INPUT_TRIG_7           (9U)  /**< Input is connected to the trigger input 7 */
 290:Generated_Source\PSoC6\pdl\drivers/peripheral/tcpwm/cy_tcpwm.h **** #define CY_TCPWM_INPUT_TRIG_8           (10U) /**< Input is connected to the trigger input 8 */
 291:Generated_Source\PSoC6\pdl\drivers/peripheral/tcpwm/cy_tcpwm.h **** #define CY_TCPWM_INPUT_TRIG_9           (11U) /**< Input is connected to the trigger input 9 */
 292:Generated_Source\PSoC6\pdl\drivers/peripheral/tcpwm/cy_tcpwm.h **** #define CY_TCPWM_INPUT_TRIG_10          (12U) /**< Input is connected to the trigger input 10 */
 293:Generated_Source\PSoC6\pdl\drivers/peripheral/tcpwm/cy_tcpwm.h **** #define CY_TCPWM_INPUT_TRIG_11          (13U) /**< Input is connected to the trigger input 11 */
 294:Generated_Source\PSoC6\pdl\drivers/peripheral/tcpwm/cy_tcpwm.h **** #define CY_TCPWM_INPUT_TRIG_12          (14U) /**< Input is connected to the trigger input 12 */
 295:Generated_Source\PSoC6\pdl\drivers/peripheral/tcpwm/cy_tcpwm.h **** #define CY_TCPWM_INPUT_TRIG_13          (15U) /**< Input is connected to the trigger input 13 */
 296:Generated_Source\PSoC6\pdl\drivers/peripheral/tcpwm/cy_tcpwm.h **** 
 297:Generated_Source\PSoC6\pdl\drivers/peripheral/tcpwm/cy_tcpwm.h **** /** Input is defined by Creator, and Init() function does not need to configure input */
ARM GAS  C:\Users\louis\AppData\Local\Temp\ccj8Y2ua.s 			page 21


 298:Generated_Source\PSoC6\pdl\drivers/peripheral/tcpwm/cy_tcpwm.h **** #define CY_TCPWM_INPUT_CREATOR          (0xFFFFFFFFU)
 299:Generated_Source\PSoC6\pdl\drivers/peripheral/tcpwm/cy_tcpwm.h **** /** \} group_tcpwm_input_selection */
 300:Generated_Source\PSoC6\pdl\drivers/peripheral/tcpwm/cy_tcpwm.h **** 
 301:Generated_Source\PSoC6\pdl\drivers/peripheral/tcpwm/cy_tcpwm.h **** /**
 302:Generated_Source\PSoC6\pdl\drivers/peripheral/tcpwm/cy_tcpwm.h **** * \defgroup group_tcpwm_input_modes  Input Modes
 303:Generated_Source\PSoC6\pdl\drivers/peripheral/tcpwm/cy_tcpwm.h **** * \{
 304:Generated_Source\PSoC6\pdl\drivers/peripheral/tcpwm/cy_tcpwm.h **** * Configures how TCPWM inputs behave
 305:Generated_Source\PSoC6\pdl\drivers/peripheral/tcpwm/cy_tcpwm.h **** */
 306:Generated_Source\PSoC6\pdl\drivers/peripheral/tcpwm/cy_tcpwm.h **** /** A rising edge triggers the event (Capture, Start, Reload, etc..) */
 307:Generated_Source\PSoC6\pdl\drivers/peripheral/tcpwm/cy_tcpwm.h **** #define CY_TCPWM_INPUT_RISINGEDGE       (0U)
 308:Generated_Source\PSoC6\pdl\drivers/peripheral/tcpwm/cy_tcpwm.h **** /** A falling edge triggers the event (Capture, Start, Reload, etc..) */
 309:Generated_Source\PSoC6\pdl\drivers/peripheral/tcpwm/cy_tcpwm.h **** #define CY_TCPWM_INPUT_FALLINGEDGE      (1U)
 310:Generated_Source\PSoC6\pdl\drivers/peripheral/tcpwm/cy_tcpwm.h **** /** A rising edge or falling edge triggers the event (Capture, Start, Reload, etc..) */
 311:Generated_Source\PSoC6\pdl\drivers/peripheral/tcpwm/cy_tcpwm.h **** #define CY_TCPWM_INPUT_EITHEREDGE       (2U)
 312:Generated_Source\PSoC6\pdl\drivers/peripheral/tcpwm/cy_tcpwm.h **** /** The event is triggered on each edge of the TCPWM clock if the input is high */
 313:Generated_Source\PSoC6\pdl\drivers/peripheral/tcpwm/cy_tcpwm.h **** #define CY_TCPWM_INPUT_LEVEL            (3U)
 314:Generated_Source\PSoC6\pdl\drivers/peripheral/tcpwm/cy_tcpwm.h **** /** \} group_tcpwm_input_modes */
 315:Generated_Source\PSoC6\pdl\drivers/peripheral/tcpwm/cy_tcpwm.h **** 
 316:Generated_Source\PSoC6\pdl\drivers/peripheral/tcpwm/cy_tcpwm.h **** /**
 317:Generated_Source\PSoC6\pdl\drivers/peripheral/tcpwm/cy_tcpwm.h **** * \defgroup group_tcpwm_interrupt_sources  Interrupt Sources
 318:Generated_Source\PSoC6\pdl\drivers/peripheral/tcpwm/cy_tcpwm.h **** * \{
 319:Generated_Source\PSoC6\pdl\drivers/peripheral/tcpwm/cy_tcpwm.h **** * Interrupt Sources 
 320:Generated_Source\PSoC6\pdl\drivers/peripheral/tcpwm/cy_tcpwm.h **** */
 321:Generated_Source\PSoC6\pdl\drivers/peripheral/tcpwm/cy_tcpwm.h **** #define CY_TCPWM_INT_ON_TC              (1U) /**< Interrupt on Terminal count(TC) */
 322:Generated_Source\PSoC6\pdl\drivers/peripheral/tcpwm/cy_tcpwm.h **** #define CY_TCPWM_INT_ON_CC              (2U) /**< Interrupt on Compare/Capture(CC) */
 323:Generated_Source\PSoC6\pdl\drivers/peripheral/tcpwm/cy_tcpwm.h **** #define CY_TCPWM_INT_NONE               (0U) /**< No Interrupt */
 324:Generated_Source\PSoC6\pdl\drivers/peripheral/tcpwm/cy_tcpwm.h **** #define CY_TCPWM_INT_ON_CC_OR_TC        (3U) /**< Interrupt on TC or CC */
 325:Generated_Source\PSoC6\pdl\drivers/peripheral/tcpwm/cy_tcpwm.h **** /** \} group_tcpwm_interrupt_sources */
 326:Generated_Source\PSoC6\pdl\drivers/peripheral/tcpwm/cy_tcpwm.h **** 
 327:Generated_Source\PSoC6\pdl\drivers/peripheral/tcpwm/cy_tcpwm.h **** 
 328:Generated_Source\PSoC6\pdl\drivers/peripheral/tcpwm/cy_tcpwm.h **** /***************************************
 329:Generated_Source\PSoC6\pdl\drivers/peripheral/tcpwm/cy_tcpwm.h **** *        Registers Constants
 330:Generated_Source\PSoC6\pdl\drivers/peripheral/tcpwm/cy_tcpwm.h **** ***************************************/
 331:Generated_Source\PSoC6\pdl\drivers/peripheral/tcpwm/cy_tcpwm.h **** 
 332:Generated_Source\PSoC6\pdl\drivers/peripheral/tcpwm/cy_tcpwm.h **** /**
 333:Generated_Source\PSoC6\pdl\drivers/peripheral/tcpwm/cy_tcpwm.h **** * \defgroup group_tcpwm_reg_const Default registers constants
 334:Generated_Source\PSoC6\pdl\drivers/peripheral/tcpwm/cy_tcpwm.h **** * \{
 335:Generated_Source\PSoC6\pdl\drivers/peripheral/tcpwm/cy_tcpwm.h **** * Default constants for CNT Registers
 336:Generated_Source\PSoC6\pdl\drivers/peripheral/tcpwm/cy_tcpwm.h **** */
 337:Generated_Source\PSoC6\pdl\drivers/peripheral/tcpwm/cy_tcpwm.h **** #define CY_TCPWM_CNT_CTRL_DEFAULT           (0x0U) /**< Default value for CTRL register */
 338:Generated_Source\PSoC6\pdl\drivers/peripheral/tcpwm/cy_tcpwm.h **** #define CY_TCPWM_CNT_COUNTER_DEFAULT        (0x0U) /**< Default value for COUNTER register */
 339:Generated_Source\PSoC6\pdl\drivers/peripheral/tcpwm/cy_tcpwm.h **** #define CY_TCPWM_CNT_CC_DEFAULT             (0xFFFFFFFFU) /**< Default value for CC register */
 340:Generated_Source\PSoC6\pdl\drivers/peripheral/tcpwm/cy_tcpwm.h **** #define CY_TCPWM_CNT_CC_BUFF_DEFAULT        (0xFFFFFFFFU) /**< Default value for CC_BUFF register *
 341:Generated_Source\PSoC6\pdl\drivers/peripheral/tcpwm/cy_tcpwm.h **** #define CY_TCPWM_CNT_PERIOD_DEFAULT         (0xFFFFFFFFU) /**< Default value for PERIOD register */
 342:Generated_Source\PSoC6\pdl\drivers/peripheral/tcpwm/cy_tcpwm.h **** #define CY_TCPWM_CNT_PERIOD_BUFF_DEFAULT    (0xFFFFFFFFU) /**< Default value for PERIOD_BUFF regist
 343:Generated_Source\PSoC6\pdl\drivers/peripheral/tcpwm/cy_tcpwm.h **** #define CY_TCPWM_CNT_TR_CTRL0_DEFAULT       (0x10U)  /**< Default value for TR_CTRL0 register */
 344:Generated_Source\PSoC6\pdl\drivers/peripheral/tcpwm/cy_tcpwm.h **** #define CY_TCPWM_CNT_TR_CTRL1_DEFAULT       (0x3FFU) /**< Default value for TR_CTRL1 register */
 345:Generated_Source\PSoC6\pdl\drivers/peripheral/tcpwm/cy_tcpwm.h **** #define CY_TCPWM_CNT_TR_CTRL2_DEFAULT       (0x3FU)  /**< Default value for TR_CTRL2 register */
 346:Generated_Source\PSoC6\pdl\drivers/peripheral/tcpwm/cy_tcpwm.h **** #define CY_TCPWM_CNT_INTR_DEFAULT           (0x3U)   /**< Default value for INTR register */
 347:Generated_Source\PSoC6\pdl\drivers/peripheral/tcpwm/cy_tcpwm.h **** #define CY_TCPWM_CNT_INTR_SET_DEFAULT       (0x0U)   /**< Default value for INTR_SET register */
 348:Generated_Source\PSoC6\pdl\drivers/peripheral/tcpwm/cy_tcpwm.h **** #define CY_TCPWM_CNT_INTR_MASK_DEFAULT      (0x0U)   /**< Default value for INTR_MASK register */
 349:Generated_Source\PSoC6\pdl\drivers/peripheral/tcpwm/cy_tcpwm.h **** /** \} group_tcpwm_reg_const */
 350:Generated_Source\PSoC6\pdl\drivers/peripheral/tcpwm/cy_tcpwm.h **** 
 351:Generated_Source\PSoC6\pdl\drivers/peripheral/tcpwm/cy_tcpwm.h **** /** Position of Up counting counter status */
 352:Generated_Source\PSoC6\pdl\drivers/peripheral/tcpwm/cy_tcpwm.h **** #define CY_TCPWM_CNT_STATUS_UP_POS          (0x1U)
 353:Generated_Source\PSoC6\pdl\drivers/peripheral/tcpwm/cy_tcpwm.h **** /** Initial value for the counter in the Up counting mode */
 354:Generated_Source\PSoC6\pdl\drivers/peripheral/tcpwm/cy_tcpwm.h **** #define CY_TCPWM_CNT_UP_INIT_VAL            (0x0U)
ARM GAS  C:\Users\louis\AppData\Local\Temp\ccj8Y2ua.s 			page 22


 355:Generated_Source\PSoC6\pdl\drivers/peripheral/tcpwm/cy_tcpwm.h **** /** Initial value for the counter in the Up/Down counting modes */
 356:Generated_Source\PSoC6\pdl\drivers/peripheral/tcpwm/cy_tcpwm.h **** #define CY_TCPWM_CNT_UP_DOWN_INIT_VAL       (0x1U)
 357:Generated_Source\PSoC6\pdl\drivers/peripheral/tcpwm/cy_tcpwm.h **** /** \} group_tcpwm_macros_common */
 358:Generated_Source\PSoC6\pdl\drivers/peripheral/tcpwm/cy_tcpwm.h **** 
 359:Generated_Source\PSoC6\pdl\drivers/peripheral/tcpwm/cy_tcpwm.h **** 
 360:Generated_Source\PSoC6\pdl\drivers/peripheral/tcpwm/cy_tcpwm.h **** /*******************************************************************************
 361:Generated_Source\PSoC6\pdl\drivers/peripheral/tcpwm/cy_tcpwm.h ****  * Enumerations
 362:Generated_Source\PSoC6\pdl\drivers/peripheral/tcpwm/cy_tcpwm.h ****  ******************************************************************************/
 363:Generated_Source\PSoC6\pdl\drivers/peripheral/tcpwm/cy_tcpwm.h **** 
 364:Generated_Source\PSoC6\pdl\drivers/peripheral/tcpwm/cy_tcpwm.h ****  /**
 365:Generated_Source\PSoC6\pdl\drivers/peripheral/tcpwm/cy_tcpwm.h **** * \addtogroup group_tcpwm_enums
 366:Generated_Source\PSoC6\pdl\drivers/peripheral/tcpwm/cy_tcpwm.h **** * \{
 367:Generated_Source\PSoC6\pdl\drivers/peripheral/tcpwm/cy_tcpwm.h **** */
 368:Generated_Source\PSoC6\pdl\drivers/peripheral/tcpwm/cy_tcpwm.h **** 
 369:Generated_Source\PSoC6\pdl\drivers/peripheral/tcpwm/cy_tcpwm.h **** /** TCPWM status definitions */
 370:Generated_Source\PSoC6\pdl\drivers/peripheral/tcpwm/cy_tcpwm.h **** typedef enum 
 371:Generated_Source\PSoC6\pdl\drivers/peripheral/tcpwm/cy_tcpwm.h **** {
 372:Generated_Source\PSoC6\pdl\drivers/peripheral/tcpwm/cy_tcpwm.h ****     CY_TCPWM_SUCCESS = 0x00U,                                           /**< Successful */
 373:Generated_Source\PSoC6\pdl\drivers/peripheral/tcpwm/cy_tcpwm.h ****     CY_TCPWM_BAD_PARAM = CY_TCPWM_ID | CY_PDL_STATUS_ERROR | 0x01U,     /**< One or more invalid pa
 374:Generated_Source\PSoC6\pdl\drivers/peripheral/tcpwm/cy_tcpwm.h **** } cy_en_tcpwm_status_t;
 375:Generated_Source\PSoC6\pdl\drivers/peripheral/tcpwm/cy_tcpwm.h **** /** \} group_tcpwm_enums */
 376:Generated_Source\PSoC6\pdl\drivers/peripheral/tcpwm/cy_tcpwm.h ****  
 377:Generated_Source\PSoC6\pdl\drivers/peripheral/tcpwm/cy_tcpwm.h **** /*******************************************************************************
 378:Generated_Source\PSoC6\pdl\drivers/peripheral/tcpwm/cy_tcpwm.h **** *        Function Prototypes
 379:Generated_Source\PSoC6\pdl\drivers/peripheral/tcpwm/cy_tcpwm.h **** *******************************************************************************/
 380:Generated_Source\PSoC6\pdl\drivers/peripheral/tcpwm/cy_tcpwm.h **** 
 381:Generated_Source\PSoC6\pdl\drivers/peripheral/tcpwm/cy_tcpwm.h **** /**
 382:Generated_Source\PSoC6\pdl\drivers/peripheral/tcpwm/cy_tcpwm.h **** * \addtogroup group_tcpwm_functions_common
 383:Generated_Source\PSoC6\pdl\drivers/peripheral/tcpwm/cy_tcpwm.h **** * \{
 384:Generated_Source\PSoC6\pdl\drivers/peripheral/tcpwm/cy_tcpwm.h **** */
 385:Generated_Source\PSoC6\pdl\drivers/peripheral/tcpwm/cy_tcpwm.h **** 
 386:Generated_Source\PSoC6\pdl\drivers/peripheral/tcpwm/cy_tcpwm.h **** __STATIC_INLINE void Cy_TCPWM_Enable_Multiple(TCPWM_Type *base, uint32_t counters);
 387:Generated_Source\PSoC6\pdl\drivers/peripheral/tcpwm/cy_tcpwm.h **** __STATIC_INLINE void Cy_TCPWM_Disable_Multiple(TCPWM_Type *base, uint32_t counters);
 388:Generated_Source\PSoC6\pdl\drivers/peripheral/tcpwm/cy_tcpwm.h **** __STATIC_INLINE void Cy_TCPWM_TriggerStart(TCPWM_Type *base, uint32_t counters);
 389:Generated_Source\PSoC6\pdl\drivers/peripheral/tcpwm/cy_tcpwm.h **** __STATIC_INLINE void Cy_TCPWM_TriggerReloadOrIndex(TCPWM_Type *base, uint32_t counters);
 390:Generated_Source\PSoC6\pdl\drivers/peripheral/tcpwm/cy_tcpwm.h **** __STATIC_INLINE void Cy_TCPWM_TriggerStopOrKill(TCPWM_Type *base, uint32_t counters);
 391:Generated_Source\PSoC6\pdl\drivers/peripheral/tcpwm/cy_tcpwm.h **** __STATIC_INLINE void Cy_TCPWM_TriggerCaptureOrSwap(TCPWM_Type *base, uint32_t counters);
 392:Generated_Source\PSoC6\pdl\drivers/peripheral/tcpwm/cy_tcpwm.h **** __STATIC_INLINE uint32_t Cy_TCPWM_GetInterruptStatus(TCPWM_Type const *base, uint32_t cntNum);
 393:Generated_Source\PSoC6\pdl\drivers/peripheral/tcpwm/cy_tcpwm.h **** __STATIC_INLINE void Cy_TCPWM_ClearInterrupt(TCPWM_Type *base, uint32_t cntNum, uint32_t source);
 394:Generated_Source\PSoC6\pdl\drivers/peripheral/tcpwm/cy_tcpwm.h **** __STATIC_INLINE void Cy_TCPWM_SetInterrupt(TCPWM_Type *base, uint32_t cntNum, uint32_t source);
 395:Generated_Source\PSoC6\pdl\drivers/peripheral/tcpwm/cy_tcpwm.h **** __STATIC_INLINE void Cy_TCPWM_SetInterruptMask(TCPWM_Type *base, uint32_t cntNum, uint32_t mask);
 396:Generated_Source\PSoC6\pdl\drivers/peripheral/tcpwm/cy_tcpwm.h **** __STATIC_INLINE uint32_t Cy_TCPWM_GetInterruptMask(TCPWM_Type const *base, uint32_t cntNum);
 397:Generated_Source\PSoC6\pdl\drivers/peripheral/tcpwm/cy_tcpwm.h **** __STATIC_INLINE uint32_t Cy_TCPWM_GetInterruptStatusMasked(TCPWM_Type const *base, uint32_t cntNum)
 398:Generated_Source\PSoC6\pdl\drivers/peripheral/tcpwm/cy_tcpwm.h **** 
 399:Generated_Source\PSoC6\pdl\drivers/peripheral/tcpwm/cy_tcpwm.h **** 
 400:Generated_Source\PSoC6\pdl\drivers/peripheral/tcpwm/cy_tcpwm.h **** /*******************************************************************************
 401:Generated_Source\PSoC6\pdl\drivers/peripheral/tcpwm/cy_tcpwm.h **** * Function Name: Cy_TCPWM_Enable_Multiple
 402:Generated_Source\PSoC6\pdl\drivers/peripheral/tcpwm/cy_tcpwm.h **** ****************************************************************************//**
 403:Generated_Source\PSoC6\pdl\drivers/peripheral/tcpwm/cy_tcpwm.h **** *
 404:Generated_Source\PSoC6\pdl\drivers/peripheral/tcpwm/cy_tcpwm.h **** * Enables the counter(s) in the TCPWM block. Multiple blocks can be started 
 405:Generated_Source\PSoC6\pdl\drivers/peripheral/tcpwm/cy_tcpwm.h **** * simultaneously.
 406:Generated_Source\PSoC6\pdl\drivers/peripheral/tcpwm/cy_tcpwm.h **** *
 407:Generated_Source\PSoC6\pdl\drivers/peripheral/tcpwm/cy_tcpwm.h **** * \param base
 408:Generated_Source\PSoC6\pdl\drivers/peripheral/tcpwm/cy_tcpwm.h **** * The pointer to a TCPWM instance.
 409:Generated_Source\PSoC6\pdl\drivers/peripheral/tcpwm/cy_tcpwm.h **** *
 410:Generated_Source\PSoC6\pdl\drivers/peripheral/tcpwm/cy_tcpwm.h **** * \param counters
 411:Generated_Source\PSoC6\pdl\drivers/peripheral/tcpwm/cy_tcpwm.h **** * A bit field representing each counter in the TCPWM block.
ARM GAS  C:\Users\louis\AppData\Local\Temp\ccj8Y2ua.s 			page 23


 412:Generated_Source\PSoC6\pdl\drivers/peripheral/tcpwm/cy_tcpwm.h **** *
 413:Generated_Source\PSoC6\pdl\drivers/peripheral/tcpwm/cy_tcpwm.h **** * \funcusage
 414:Generated_Source\PSoC6\pdl\drivers/peripheral/tcpwm/cy_tcpwm.h **** * \snippet tcpwm\1.10\counter\snippet\main.c snippet_Cy_TCPWM_Enable_Multiple
 415:Generated_Source\PSoC6\pdl\drivers/peripheral/tcpwm/cy_tcpwm.h **** *
 416:Generated_Source\PSoC6\pdl\drivers/peripheral/tcpwm/cy_tcpwm.h **** *******************************************************************************/
 417:Generated_Source\PSoC6\pdl\drivers/peripheral/tcpwm/cy_tcpwm.h **** __STATIC_INLINE void Cy_TCPWM_Enable_Multiple(TCPWM_Type *base, uint32_t counters)
 418:Generated_Source\PSoC6\pdl\drivers/peripheral/tcpwm/cy_tcpwm.h **** {
 419:Generated_Source\PSoC6\pdl\drivers/peripheral/tcpwm/cy_tcpwm.h ****     TCPWM_CTRL_SET(base) = counters;
 420:Generated_Source\PSoC6\pdl\drivers/peripheral/tcpwm/cy_tcpwm.h **** }
 421:Generated_Source\PSoC6\pdl\drivers/peripheral/tcpwm/cy_tcpwm.h **** 
 422:Generated_Source\PSoC6\pdl\drivers/peripheral/tcpwm/cy_tcpwm.h **** 
 423:Generated_Source\PSoC6\pdl\drivers/peripheral/tcpwm/cy_tcpwm.h **** /*******************************************************************************
 424:Generated_Source\PSoC6\pdl\drivers/peripheral/tcpwm/cy_tcpwm.h **** * Function Name: Cy_TCPWM_Disable_Multiple
 425:Generated_Source\PSoC6\pdl\drivers/peripheral/tcpwm/cy_tcpwm.h **** ****************************************************************************//**
 426:Generated_Source\PSoC6\pdl\drivers/peripheral/tcpwm/cy_tcpwm.h **** *
 427:Generated_Source\PSoC6\pdl\drivers/peripheral/tcpwm/cy_tcpwm.h **** * Disables the counter(s) in the TCPWM block. Multiple TCPWM can be disabled 
 428:Generated_Source\PSoC6\pdl\drivers/peripheral/tcpwm/cy_tcpwm.h **** * simultaneously.
 429:Generated_Source\PSoC6\pdl\drivers/peripheral/tcpwm/cy_tcpwm.h **** *
 430:Generated_Source\PSoC6\pdl\drivers/peripheral/tcpwm/cy_tcpwm.h **** * \param base
 431:Generated_Source\PSoC6\pdl\drivers/peripheral/tcpwm/cy_tcpwm.h **** * The pointer to a TCPWM instance.
 432:Generated_Source\PSoC6\pdl\drivers/peripheral/tcpwm/cy_tcpwm.h **** *
 433:Generated_Source\PSoC6\pdl\drivers/peripheral/tcpwm/cy_tcpwm.h **** * \param counters
 434:Generated_Source\PSoC6\pdl\drivers/peripheral/tcpwm/cy_tcpwm.h **** * A bit field representing each counter in the TCPWM block.
 435:Generated_Source\PSoC6\pdl\drivers/peripheral/tcpwm/cy_tcpwm.h **** *
 436:Generated_Source\PSoC6\pdl\drivers/peripheral/tcpwm/cy_tcpwm.h **** * \funcusage
 437:Generated_Source\PSoC6\pdl\drivers/peripheral/tcpwm/cy_tcpwm.h **** * \snippet tcpwm\1.10\counter\snippet\main.c snippet_Cy_TCPWM_Disable_Multiple
 438:Generated_Source\PSoC6\pdl\drivers/peripheral/tcpwm/cy_tcpwm.h **** *
 439:Generated_Source\PSoC6\pdl\drivers/peripheral/tcpwm/cy_tcpwm.h **** *******************************************************************************/
 440:Generated_Source\PSoC6\pdl\drivers/peripheral/tcpwm/cy_tcpwm.h **** __STATIC_INLINE void Cy_TCPWM_Disable_Multiple(TCPWM_Type *base, uint32_t counters)
 441:Generated_Source\PSoC6\pdl\drivers/peripheral/tcpwm/cy_tcpwm.h **** {
 442:Generated_Source\PSoC6\pdl\drivers/peripheral/tcpwm/cy_tcpwm.h ****     TCPWM_CTRL_CLR(base) = counters;
 482              		.loc 2 442 0
 483 00f8 4022     		movs	r2, #64
 484 00fa 104B     		ldr	r3, .L17+44
 485 00fc 5A60     		str	r2, [r3, #4]
 486              	.LVL82:
 487 00fe 02E0     		b	.L12
 488              	.L15:
 489              	.LVL83:
 490              	.LBE31:
 491              	.LBE30:
 492              	.LBE29:
 493              	.LBB32:
 494              	.LBB33:
 495              	.LBB34:
 496 0100 4022     		movs	r2, #64
 497 0102 0E4B     		ldr	r3, .L17+44
 498 0104 5A60     		str	r2, [r3, #4]
 499              	.LVL84:
 500              	.L12:
 501              	.LBE34:
 502              	.LBE33:
 503              	.LBE32:
 363:main_cm4.c    ****                PWM_Disable(); 
 364:main_cm4.c    ****         }
 365:main_cm4.c    ****         else {
 366:main_cm4.c    ****             PWM_Disable();
ARM GAS  C:\Users\louis\AppData\Local\Temp\ccj8Y2ua.s 			page 24


 367:main_cm4.c    ****         }
 368:main_cm4.c    ****        
 369:main_cm4.c    ****         CyDelay(2000);
 504              		.loc 1 369 0
 505 0106 4FF4FA60 		mov	r0, #2000
 506 010a FFF7FEFF 		bl	Cy_SysLib_Delay
 507              	.LVL85:
 508              	.LBE28:
 370:main_cm4.c    ****          
 371:main_cm4.c    ****         
 372:main_cm4.c    ****       }  
 509              		.loc 1 372 0
 510 010e 83E7     		b	.L13
 511              	.L18:
 512              		.align	3
 513              	.L17:
 514 0110 33333333 		.word	858993459
 515 0114 3333D33F 		.word	1070805811
 516 0118 00001D41 		.word	1092419584
 517 011c 28000000 		.word	.LC8
 518 0120 48000000 		.word	.LC11
 519 0124 4C000000 		.word	.LC12
 520 0128 00000000 		.word	GUI_Font20_1
 521 012c 64000000 		.word	.LC13
 522 0130 00000000 		.word	GUI_FontD32
 523 0134 70000000 		.word	.LC14
 524 0138 74000000 		.word	.LC15
 525 013c 00003840 		.word	1077411840
 526              		.cfi_endproc
 527              	.LFE687:
 528              		.size	GasSensor, .-GasSensor
 529              		.section	.text.EggTimer,"ax",%progbits
 530              		.align	2
 531              		.global	EggTimer
 532              		.thumb
 533              		.thumb_func
 534              		.type	EggTimer, %function
 535              	EggTimer:
 536              	.LFB688:
 373:main_cm4.c    **** 
 374:main_cm4.c    **** }
 375:main_cm4.c    **** 
 376:main_cm4.c    **** 
 377:main_cm4.c    **** void EggTimer(void) {
 537              		.loc 1 377 0
 538              		.cfi_startproc
 539              		@ args = 0, pretend = 0, frame = 24
 540              		@ frame_needed = 0, uses_anonymous_args = 0
 541 0000 30B5     		push	{r4, r5, lr}
 542              		.cfi_def_cfa_offset 12
 543              		.cfi_offset 4, -12
 544              		.cfi_offset 5, -8
 545              		.cfi_offset 14, -4
 546 0002 87B0     		sub	sp, sp, #28
 547              		.cfi_def_cfa_offset 40
 378:main_cm4.c    ****     GUI_SetColor(GUI_BLACK);
 548              		.loc 1 378 0
ARM GAS  C:\Users\louis\AppData\Local\Temp\ccj8Y2ua.s 			page 25


 549 0004 0020     		movs	r0, #0
 550 0006 FFF7FEFF 		bl	GUI_SetColor
 551              	.LVL86:
 379:main_cm4.c    ****     GUI_SetBkColor(GUI_WHITE);
 552              		.loc 1 379 0
 553 000a 6FF07F40 		mvn	r0, #-16777216
 554 000e FFF7FEFF 		bl	GUI_SetBkColor
 555              	.LVL87:
 380:main_cm4.c    ****     GUI_SetTextMode(GUI_TM_NORMAL);
 556              		.loc 1 380 0
 557 0012 0020     		movs	r0, #0
 558 0014 FFF7FEFF 		bl	GUI_SetTextMode
 559              	.LVL88:
 381:main_cm4.c    ****     GUI_SetTextStyle(GUI_TS_NORMAL);
 560              		.loc 1 381 0
 561 0018 0020     		movs	r0, #0
 562 001a FFF7FEFF 		bl	GUI_SetTextStyle
 563              	.LVL89:
 382:main_cm4.c    ****     
 383:main_cm4.c    **** 
 384:main_cm4.c    ****     /* Clear the screen */
 385:main_cm4.c    ****     GUI_Clear();
 564              		.loc 1 385 0
 565 001e FFF7FEFF 		bl	GUI_Clear
 566              	.LVL90:
 386:main_cm4.c    ****     
 387:main_cm4.c    ****     /* Display page title */
 388:main_cm4.c    ****     GUI_SetFont(GUI_FONT_20_1);
 567              		.loc 1 388 0
 568 0022 4C48     		ldr	r0, .L27
 569 0024 FFF7FEFF 		bl	GUI_SetFont
 570              	.LVL91:
 389:main_cm4.c    ****     GUI_SetTextAlign(GUI_TA_HCENTER);
 571              		.loc 1 389 0
 572 0028 0220     		movs	r0, #2
 573 002a FFF7FEFF 		bl	GUI_SetTextAlign
 574              	.LVL92:
 390:main_cm4.c    ****     GUI_DispStringAt("Egg Timer", 132, 5);
 575              		.loc 1 390 0
 576 002e 0522     		movs	r2, #5
 577 0030 8421     		movs	r1, #132
 578 0032 4948     		ldr	r0, .L27+4
 579 0034 FFF7FEFF 		bl	GUI_DispStringAt
 580              	.LVL93:
 391:main_cm4.c    ****     
 392:main_cm4.c    ****     GUI_DispStringAt("Timer started now", 132, 25);
 581              		.loc 1 392 0
 582 0038 1922     		movs	r2, #25
 583 003a 8421     		movs	r1, #132
 584 003c 4748     		ldr	r0, .L27+8
 585 003e FFF7FEFF 		bl	GUI_DispStringAt
 586              	.LVL94:
 393:main_cm4.c    ****     
 394:main_cm4.c    ****     int i;
 395:main_cm4.c    ****     int time_left = 120;
 587              		.loc 1 395 0
 588 0042 7824     		movs	r4, #120
ARM GAS  C:\Users\louis\AppData\Local\Temp\ccj8Y2ua.s 			page 26


 396:main_cm4.c    ****     
 397:main_cm4.c    ****     while (time_left >= 0) {
 589              		.loc 1 397 0
 590 0044 45E0     		b	.L20
 591              	.LVL95:
 592              	.L23:
 593              	.LBB35:
 398:main_cm4.c    ****         
 399:main_cm4.c    ****         time_left = time_left - 20;
 594              		.loc 1 399 0
 595 0046 143C     		subs	r4, r4, #20
 596              	.LVL96:
 400:main_cm4.c    ****         
 401:main_cm4.c    ****         if (time_left <= 0) {
 597              		.loc 1 401 0
 598 0048 002C     		cmp	r4, #0
 599 004a 44DD     		ble	.L22
 402:main_cm4.c    ****             break;
 403:main_cm4.c    ****         }
 404:main_cm4.c    ****         
 405:main_cm4.c    ****         
 406:main_cm4.c    ****         GUI_SetColor(GUI_BLACK);
 600              		.loc 1 406 0
 601 004c 0020     		movs	r0, #0
 602 004e FFF7FEFF 		bl	GUI_SetColor
 603              	.LVL97:
 407:main_cm4.c    ****         GUI_SetBkColor(GUI_WHITE);
 604              		.loc 1 407 0
 605 0052 6FF07F40 		mvn	r0, #-16777216
 606 0056 FFF7FEFF 		bl	GUI_SetBkColor
 607              	.LVL98:
 408:main_cm4.c    ****         GUI_SetTextMode(GUI_TM_NORMAL);
 608              		.loc 1 408 0
 609 005a 0020     		movs	r0, #0
 610 005c FFF7FEFF 		bl	GUI_SetTextMode
 611              	.LVL99:
 409:main_cm4.c    ****         GUI_SetTextStyle(GUI_TS_NORMAL);
 612              		.loc 1 409 0
 613 0060 0020     		movs	r0, #0
 614 0062 FFF7FEFF 		bl	GUI_SetTextStyle
 615              	.LVL100:
 410:main_cm4.c    ****         
 411:main_cm4.c    ****         /* Clear the screen */
 412:main_cm4.c    ****         GUI_Clear();
 616              		.loc 1 412 0
 617 0066 FFF7FEFF 		bl	GUI_Clear
 618              	.LVL101:
 413:main_cm4.c    ****         /* Display page title */
 414:main_cm4.c    ****         GUI_SetFont(GUI_FONT_20_1);
 619              		.loc 1 414 0
 620 006a 3A4D     		ldr	r5, .L27
 621 006c 2846     		mov	r0, r5
 622 006e FFF7FEFF 		bl	GUI_SetFont
 623              	.LVL102:
 415:main_cm4.c    ****         GUI_SetTextAlign(GUI_TA_HCENTER);
 624              		.loc 1 415 0
 625 0072 0220     		movs	r0, #2
ARM GAS  C:\Users\louis\AppData\Local\Temp\ccj8Y2ua.s 			page 27


 626 0074 FFF7FEFF 		bl	GUI_SetTextAlign
 627              	.LVL103:
 416:main_cm4.c    ****         GUI_DispStringAt("Egg Timer", 130, 5);
 628              		.loc 1 416 0
 629 0078 0522     		movs	r2, #5
 630 007a 8221     		movs	r1, #130
 631 007c 3648     		ldr	r0, .L27+4
 632 007e FFF7FEFF 		bl	GUI_DispStringAt
 633              	.LVL104:
 417:main_cm4.c    ****     
 418:main_cm4.c    ****         GUI_DispStringAt("Timer started now", 60, 25);
 634              		.loc 1 418 0
 635 0082 1922     		movs	r2, #25
 636 0084 3C21     		movs	r1, #60
 637 0086 3548     		ldr	r0, .L27+8
 638 0088 FFF7FEFF 		bl	GUI_DispStringAt
 639              	.LVL105:
 419:main_cm4.c    ****         
 420:main_cm4.c    ****         char c[20];
 421:main_cm4.c    ****         sprintf(c, "%d", time_left);
 640              		.loc 1 421 0
 641 008c 2246     		mov	r2, r4
 642 008e 3449     		ldr	r1, .L27+12
 643 0090 01A8     		add	r0, sp, #4
 644 0092 FFF7FEFF 		bl	sprintf
 645              	.LVL106:
 422:main_cm4.c    ****         
 423:main_cm4.c    ****             
 424:main_cm4.c    ****         GUI_SetFont(GUI_FONT_D64);
 646              		.loc 1 424 0
 647 0096 3348     		ldr	r0, .L27+16
 648 0098 FFF7FEFF 		bl	GUI_SetFont
 649              	.LVL107:
 425:main_cm4.c    ****         GUI_SetTextAlign(GUI_TA_HCENTER);
 650              		.loc 1 425 0
 651 009c 0220     		movs	r0, #2
 652 009e FFF7FEFF 		bl	GUI_SetTextAlign
 653              	.LVL108:
 426:main_cm4.c    ****         GUI_DispStringAt(c, 132, 70);
 654              		.loc 1 426 0
 655 00a2 4622     		movs	r2, #70
 656 00a4 8421     		movs	r1, #132
 657 00a6 01A8     		add	r0, sp, #4
 658 00a8 FFF7FEFF 		bl	GUI_DispStringAt
 659              	.LVL109:
 427:main_cm4.c    ****         
 428:main_cm4.c    ****         GUI_SetFont(GUI_FONT_20_1);
 660              		.loc 1 428 0
 661 00ac 2846     		mov	r0, r5
 662 00ae FFF7FEFF 		bl	GUI_SetFont
 663              	.LVL110:
 429:main_cm4.c    ****         GUI_SetTextAlign(GUI_TA_HCENTER);
 664              		.loc 1 429 0
 665 00b2 0220     		movs	r0, #2
 666 00b4 FFF7FEFF 		bl	GUI_SetTextAlign
 667              	.LVL111:
 430:main_cm4.c    ****         GUI_DispStringAt("Seconds Left", 135, 150);
ARM GAS  C:\Users\louis\AppData\Local\Temp\ccj8Y2ua.s 			page 28


 668              		.loc 1 430 0
 669 00b8 9622     		movs	r2, #150
 670 00ba 8721     		movs	r1, #135
 671 00bc 2A48     		ldr	r0, .L27+20
 672 00be FFF7FEFF 		bl	GUI_DispStringAt
 673              	.LVL112:
 431:main_cm4.c    ****         
 432:main_cm4.c    ****         
 433:main_cm4.c    ****         
 434:main_cm4.c    ****         UpdateDisplay(CY_EINK_FULL_4STAGE, true);
 674              		.loc 1 434 0
 675 00c2 0121     		movs	r1, #1
 676 00c4 0846     		mov	r0, r1
 677 00c6 FFF7FEFF 		bl	UpdateDisplay
 678              	.LVL113:
 435:main_cm4.c    ****         
 436:main_cm4.c    ****         CyDelay(2000);
 679              		.loc 1 436 0
 680 00ca 4FF4FA60 		mov	r0, #2000
 681 00ce FFF7FEFF 		bl	Cy_SysLib_Delay
 682              	.LVL114:
 683              	.L20:
 684              	.LBE35:
 397:main_cm4.c    ****         
 685              		.loc 1 397 0
 686 00d2 002C     		cmp	r4, #0
 687 00d4 B7DA     		bge	.L23
 688              	.L22:
 437:main_cm4.c    ****         
 438:main_cm4.c    ****         
 439:main_cm4.c    ****         
 440:main_cm4.c    ****     
 441:main_cm4.c    ****     
 442:main_cm4.c    ****     }
 443:main_cm4.c    ****     
 444:main_cm4.c    ****     
 445:main_cm4.c    ****     GUI_Clear();
 689              		.loc 1 445 0
 690 00d6 FFF7FEFF 		bl	GUI_Clear
 691              	.LVL115:
 446:main_cm4.c    ****         /* Display page title */
 447:main_cm4.c    ****     GUI_SetFont(GUI_FONT_20_1);
 692              		.loc 1 447 0
 693 00da 1E4C     		ldr	r4, .L27
 694              	.LVL116:
 695 00dc 2046     		mov	r0, r4
 696 00de FFF7FEFF 		bl	GUI_SetFont
 697              	.LVL117:
 448:main_cm4.c    ****     GUI_SetTextAlign(GUI_TA_HCENTER);
 698              		.loc 1 448 0
 699 00e2 0220     		movs	r0, #2
 700 00e4 FFF7FEFF 		bl	GUI_SetTextAlign
 701              	.LVL118:
 449:main_cm4.c    ****     GUI_DispStringAt("Egg Timer", 130, 5);
 702              		.loc 1 449 0
 703 00e8 0522     		movs	r2, #5
 704 00ea 8221     		movs	r1, #130
ARM GAS  C:\Users\louis\AppData\Local\Temp\ccj8Y2ua.s 			page 29


 705 00ec 1A48     		ldr	r0, .L27+4
 706 00ee FFF7FEFF 		bl	GUI_DispStringAt
 707              	.LVL119:
 450:main_cm4.c    **** 
 451:main_cm4.c    ****     GUI_DispStringAt("Timer started now", 60, 25);
 708              		.loc 1 451 0
 709 00f2 1922     		movs	r2, #25
 710 00f4 3C21     		movs	r1, #60
 711 00f6 1948     		ldr	r0, .L27+8
 712 00f8 FFF7FEFF 		bl	GUI_DispStringAt
 713              	.LVL120:
 452:main_cm4.c    ****             
 453:main_cm4.c    ****     GUI_SetFont(GUI_FONT_D64);
 714              		.loc 1 453 0
 715 00fc 1948     		ldr	r0, .L27+16
 716 00fe FFF7FEFF 		bl	GUI_SetFont
 717              	.LVL121:
 454:main_cm4.c    ****     GUI_SetTextAlign(GUI_TA_HCENTER);
 718              		.loc 1 454 0
 719 0102 0220     		movs	r0, #2
 720 0104 FFF7FEFF 		bl	GUI_SetTextAlign
 721              	.LVL122:
 455:main_cm4.c    ****     GUI_DispStringAt("0", 132, 70);
 722              		.loc 1 455 0
 723 0108 4622     		movs	r2, #70
 724 010a 8421     		movs	r1, #132
 725 010c 1748     		ldr	r0, .L27+24
 726 010e FFF7FEFF 		bl	GUI_DispStringAt
 727              	.LVL123:
 456:main_cm4.c    ****     
 457:main_cm4.c    ****     GUI_SetFont(GUI_FONT_20_1);
 728              		.loc 1 457 0
 729 0112 2046     		mov	r0, r4
 730 0114 FFF7FEFF 		bl	GUI_SetFont
 731              	.LVL124:
 458:main_cm4.c    ****     GUI_SetTextAlign(GUI_TA_HCENTER);
 732              		.loc 1 458 0
 733 0118 0220     		movs	r0, #2
 734 011a FFF7FEFF 		bl	GUI_SetTextAlign
 735              	.LVL125:
 459:main_cm4.c    ****     GUI_DispStringAt("Seconds Left", 135, 150);
 736              		.loc 1 459 0
 737 011e 9622     		movs	r2, #150
 738 0120 8721     		movs	r1, #135
 739 0122 1148     		ldr	r0, .L27+20
 740 0124 FFF7FEFF 		bl	GUI_DispStringAt
 741              	.LVL126:
 460:main_cm4.c    **** 
 461:main_cm4.c    ****     UpdateDisplay(CY_EINK_FULL_4STAGE, true);
 742              		.loc 1 461 0
 743 0128 0121     		movs	r1, #1
 744 012a 0846     		mov	r0, r1
 745 012c FFF7FEFF 		bl	UpdateDisplay
 746              	.LVL127:
 462:main_cm4.c    ****     
 463:main_cm4.c    ****     
 464:main_cm4.c    ****     int x;
ARM GAS  C:\Users\louis\AppData\Local\Temp\ccj8Y2ua.s 			page 30


 465:main_cm4.c    ****     for (x = 0; x < 50; x = x + 1) {
 747              		.loc 1 465 0
 748 0130 0024     		movs	r4, #0
 749 0132 0BE0     		b	.L24
 750              	.LVL128:
 751              	.L25:
 466:main_cm4.c    ****     PWM_Start();
 752              		.loc 1 466 0 discriminator 3
 753 0134 FFF7FEFF 		bl	PWM_Start
 754              	.LVL129:
 467:main_cm4.c    ****     CyDelay(100);
 755              		.loc 1 467 0 discriminator 3
 756 0138 6420     		movs	r0, #100
 757 013a FFF7FEFF 		bl	Cy_SysLib_Delay
 758              	.LVL130:
 759              	.LBB36:
 760              	.LBB37:
 761              	.LBB38:
 762              		.loc 2 442 0 discriminator 3
 763 013e 4022     		movs	r2, #64
 764 0140 0B4B     		ldr	r3, .L27+28
 765 0142 5A60     		str	r2, [r3, #4]
 766              	.LVL131:
 767              	.LBE38:
 768              	.LBE37:
 769              	.LBE36:
 468:main_cm4.c    ****     PWM_Disable();
 469:main_cm4.c    ****     CyDelay(100);
 770              		.loc 1 469 0 discriminator 3
 771 0144 6420     		movs	r0, #100
 772 0146 FFF7FEFF 		bl	Cy_SysLib_Delay
 773              	.LVL132:
 465:main_cm4.c    ****     PWM_Start();
 774              		.loc 1 465 0 discriminator 3
 775 014a 0134     		adds	r4, r4, #1
 776              	.LVL133:
 777              	.L24:
 465:main_cm4.c    ****     PWM_Start();
 778              		.loc 1 465 0 is_stmt 0 discriminator 1
 779 014c 312C     		cmp	r4, #49
 780 014e F1DD     		ble	.L25
 470:main_cm4.c    ****     }
 471:main_cm4.c    ****     
 472:main_cm4.c    ****         
 473:main_cm4.c    **** }
 781              		.loc 1 473 0 is_stmt 1
 782 0150 07B0     		add	sp, sp, #28
 783              		.cfi_def_cfa_offset 12
 784              		@ sp needed
 785 0152 30BD     		pop	{r4, r5, pc}
 786              	.LVL134:
 787              	.L28:
 788              		.align	2
 789              	.L27:
 790 0154 00000000 		.word	GUI_Font20_1
 791 0158 7C000000 		.word	.LC16
 792 015c 88000000 		.word	.LC17
ARM GAS  C:\Users\louis\AppData\Local\Temp\ccj8Y2ua.s 			page 31


 793 0160 9C000000 		.word	.LC18
 794 0164 00000000 		.word	GUI_FontD64
 795 0168 A0000000 		.word	.LC19
 796 016c B0000000 		.word	.LC20
 797 0170 00003840 		.word	1077411840
 798              		.cfi_endproc
 799              	.LFE688:
 800              		.size	EggTimer, .-EggTimer
 801              		.section	.text.CampingActivity,"ax",%progbits
 802              		.align	2
 803              		.global	CampingActivity
 804              		.thumb
 805              		.thumb_func
 806              		.type	CampingActivity, %function
 807              	CampingActivity:
 808              	.LFB689:
 474:main_cm4.c    **** 
 475:main_cm4.c    **** 
 476:main_cm4.c    **** void CampingActivity(void){
 809              		.loc 1 476 0
 810              		.cfi_startproc
 811              		@ args = 0, pretend = 0, frame = 48
 812              		@ frame_needed = 0, uses_anonymous_args = 0
 813 0000 30B5     		push	{r4, r5, lr}
 814              		.cfi_def_cfa_offset 12
 815              		.cfi_offset 4, -12
 816              		.cfi_offset 5, -8
 817              		.cfi_offset 14, -4
 818 0002 8DB0     		sub	sp, sp, #52
 819              		.cfi_def_cfa_offset 64
 477:main_cm4.c    ****      UART_1_Start();
 820              		.loc 1 477 0
 821 0004 FFF7FEFF 		bl	UART_1_Start
 822              	.LVL135:
 823              	.LBB39:
 824              	.LBB40:
 825              		.file 3 "Generated_Source\\PSoC6\\pdl\\cmsis/include/cmsis_gcc.h"
   1:Generated_Source\PSoC6\pdl\cmsis/include/cmsis_gcc.h **** /**************************************************************************//**
   2:Generated_Source\PSoC6\pdl\cmsis/include/cmsis_gcc.h ****  * @file     cmsis_gcc.h
   3:Generated_Source\PSoC6\pdl\cmsis/include/cmsis_gcc.h ****  * @brief    CMSIS compiler GCC header file
   4:Generated_Source\PSoC6\pdl\cmsis/include/cmsis_gcc.h ****  * @version  V5.0.3
   5:Generated_Source\PSoC6\pdl\cmsis/include/cmsis_gcc.h ****  * @date     16. January 2018
   6:Generated_Source\PSoC6\pdl\cmsis/include/cmsis_gcc.h ****  ******************************************************************************/
   7:Generated_Source\PSoC6\pdl\cmsis/include/cmsis_gcc.h **** /*
   8:Generated_Source\PSoC6\pdl\cmsis/include/cmsis_gcc.h ****  * Copyright (c) 2009-2017 ARM Limited. All rights reserved.
   9:Generated_Source\PSoC6\pdl\cmsis/include/cmsis_gcc.h ****  *
  10:Generated_Source\PSoC6\pdl\cmsis/include/cmsis_gcc.h ****  * SPDX-License-Identifier: Apache-2.0
  11:Generated_Source\PSoC6\pdl\cmsis/include/cmsis_gcc.h ****  *
  12:Generated_Source\PSoC6\pdl\cmsis/include/cmsis_gcc.h ****  * Licensed under the Apache License, Version 2.0 (the License); you may
  13:Generated_Source\PSoC6\pdl\cmsis/include/cmsis_gcc.h ****  * not use this file except in compliance with the License.
  14:Generated_Source\PSoC6\pdl\cmsis/include/cmsis_gcc.h ****  * You may obtain a copy of the License at
  15:Generated_Source\PSoC6\pdl\cmsis/include/cmsis_gcc.h ****  *
  16:Generated_Source\PSoC6\pdl\cmsis/include/cmsis_gcc.h ****  * www.apache.org/licenses/LICENSE-2.0
  17:Generated_Source\PSoC6\pdl\cmsis/include/cmsis_gcc.h ****  *
  18:Generated_Source\PSoC6\pdl\cmsis/include/cmsis_gcc.h ****  * Unless required by applicable law or agreed to in writing, software
  19:Generated_Source\PSoC6\pdl\cmsis/include/cmsis_gcc.h ****  * distributed under the License is distributed on an AS IS BASIS, WITHOUT
  20:Generated_Source\PSoC6\pdl\cmsis/include/cmsis_gcc.h ****  * WARRANTIES OR CONDITIONS OF ANY KIND, either express or implied.
ARM GAS  C:\Users\louis\AppData\Local\Temp\ccj8Y2ua.s 			page 32


  21:Generated_Source\PSoC6\pdl\cmsis/include/cmsis_gcc.h ****  * See the License for the specific language governing permissions and
  22:Generated_Source\PSoC6\pdl\cmsis/include/cmsis_gcc.h ****  * limitations under the License.
  23:Generated_Source\PSoC6\pdl\cmsis/include/cmsis_gcc.h ****  */
  24:Generated_Source\PSoC6\pdl\cmsis/include/cmsis_gcc.h **** 
  25:Generated_Source\PSoC6\pdl\cmsis/include/cmsis_gcc.h **** #ifndef __CMSIS_GCC_H
  26:Generated_Source\PSoC6\pdl\cmsis/include/cmsis_gcc.h **** #define __CMSIS_GCC_H
  27:Generated_Source\PSoC6\pdl\cmsis/include/cmsis_gcc.h **** 
  28:Generated_Source\PSoC6\pdl\cmsis/include/cmsis_gcc.h **** /* ignore some GCC warnings */
  29:Generated_Source\PSoC6\pdl\cmsis/include/cmsis_gcc.h **** #pragma GCC diagnostic push
  30:Generated_Source\PSoC6\pdl\cmsis/include/cmsis_gcc.h **** #pragma GCC diagnostic ignored "-Wsign-conversion"
  31:Generated_Source\PSoC6\pdl\cmsis/include/cmsis_gcc.h **** #pragma GCC diagnostic ignored "-Wconversion"
  32:Generated_Source\PSoC6\pdl\cmsis/include/cmsis_gcc.h **** #pragma GCC diagnostic ignored "-Wunused-parameter"
  33:Generated_Source\PSoC6\pdl\cmsis/include/cmsis_gcc.h **** 
  34:Generated_Source\PSoC6\pdl\cmsis/include/cmsis_gcc.h **** /* Fallback for __has_builtin */
  35:Generated_Source\PSoC6\pdl\cmsis/include/cmsis_gcc.h **** #ifndef __has_builtin
  36:Generated_Source\PSoC6\pdl\cmsis/include/cmsis_gcc.h ****   #define __has_builtin(x) (0)
  37:Generated_Source\PSoC6\pdl\cmsis/include/cmsis_gcc.h **** #endif
  38:Generated_Source\PSoC6\pdl\cmsis/include/cmsis_gcc.h **** 
  39:Generated_Source\PSoC6\pdl\cmsis/include/cmsis_gcc.h **** /* CMSIS compiler specific defines */
  40:Generated_Source\PSoC6\pdl\cmsis/include/cmsis_gcc.h **** #ifndef   __ASM
  41:Generated_Source\PSoC6\pdl\cmsis/include/cmsis_gcc.h ****   #define __ASM                                  __asm
  42:Generated_Source\PSoC6\pdl\cmsis/include/cmsis_gcc.h **** #endif
  43:Generated_Source\PSoC6\pdl\cmsis/include/cmsis_gcc.h **** #ifndef   __INLINE
  44:Generated_Source\PSoC6\pdl\cmsis/include/cmsis_gcc.h ****   #define __INLINE                               inline
  45:Generated_Source\PSoC6\pdl\cmsis/include/cmsis_gcc.h **** #endif
  46:Generated_Source\PSoC6\pdl\cmsis/include/cmsis_gcc.h **** #ifndef   __STATIC_INLINE
  47:Generated_Source\PSoC6\pdl\cmsis/include/cmsis_gcc.h ****   #define __STATIC_INLINE                        static inline
  48:Generated_Source\PSoC6\pdl\cmsis/include/cmsis_gcc.h **** #endif
  49:Generated_Source\PSoC6\pdl\cmsis/include/cmsis_gcc.h **** #ifndef   __STATIC_FORCEINLINE                 
  50:Generated_Source\PSoC6\pdl\cmsis/include/cmsis_gcc.h ****   #define __STATIC_FORCEINLINE                   __attribute__((always_inline)) static inline
  51:Generated_Source\PSoC6\pdl\cmsis/include/cmsis_gcc.h **** #endif                                           
  52:Generated_Source\PSoC6\pdl\cmsis/include/cmsis_gcc.h **** #ifndef   __NO_RETURN
  53:Generated_Source\PSoC6\pdl\cmsis/include/cmsis_gcc.h ****   #define __NO_RETURN                            __attribute__((__noreturn__))
  54:Generated_Source\PSoC6\pdl\cmsis/include/cmsis_gcc.h **** #endif
  55:Generated_Source\PSoC6\pdl\cmsis/include/cmsis_gcc.h **** #ifndef   __USED
  56:Generated_Source\PSoC6\pdl\cmsis/include/cmsis_gcc.h ****   #define __USED                                 __attribute__((used))
  57:Generated_Source\PSoC6\pdl\cmsis/include/cmsis_gcc.h **** #endif
  58:Generated_Source\PSoC6\pdl\cmsis/include/cmsis_gcc.h **** #ifndef   __WEAK
  59:Generated_Source\PSoC6\pdl\cmsis/include/cmsis_gcc.h ****   #define __WEAK                                 __attribute__((weak))
  60:Generated_Source\PSoC6\pdl\cmsis/include/cmsis_gcc.h **** #endif
  61:Generated_Source\PSoC6\pdl\cmsis/include/cmsis_gcc.h **** #ifndef   __PACKED
  62:Generated_Source\PSoC6\pdl\cmsis/include/cmsis_gcc.h ****   #define __PACKED                               __attribute__((packed, aligned(1)))
  63:Generated_Source\PSoC6\pdl\cmsis/include/cmsis_gcc.h **** #endif
  64:Generated_Source\PSoC6\pdl\cmsis/include/cmsis_gcc.h **** #ifndef   __PACKED_STRUCT
  65:Generated_Source\PSoC6\pdl\cmsis/include/cmsis_gcc.h ****   #define __PACKED_STRUCT                        struct __attribute__((packed, aligned(1)))
  66:Generated_Source\PSoC6\pdl\cmsis/include/cmsis_gcc.h **** #endif
  67:Generated_Source\PSoC6\pdl\cmsis/include/cmsis_gcc.h **** #ifndef   __PACKED_UNION
  68:Generated_Source\PSoC6\pdl\cmsis/include/cmsis_gcc.h ****   #define __PACKED_UNION                         union __attribute__((packed, aligned(1)))
  69:Generated_Source\PSoC6\pdl\cmsis/include/cmsis_gcc.h **** #endif
  70:Generated_Source\PSoC6\pdl\cmsis/include/cmsis_gcc.h **** #ifndef   __UNALIGNED_UINT32        /* deprecated */
  71:Generated_Source\PSoC6\pdl\cmsis/include/cmsis_gcc.h ****   #pragma GCC diagnostic push
  72:Generated_Source\PSoC6\pdl\cmsis/include/cmsis_gcc.h ****   #pragma GCC diagnostic ignored "-Wpacked"
  73:Generated_Source\PSoC6\pdl\cmsis/include/cmsis_gcc.h ****   #pragma GCC diagnostic ignored "-Wattributes"
  74:Generated_Source\PSoC6\pdl\cmsis/include/cmsis_gcc.h ****   struct __attribute__((packed)) T_UINT32 { uint32_t v; };
  75:Generated_Source\PSoC6\pdl\cmsis/include/cmsis_gcc.h ****   #pragma GCC diagnostic pop
  76:Generated_Source\PSoC6\pdl\cmsis/include/cmsis_gcc.h ****   #define __UNALIGNED_UINT32(x)                  (((struct T_UINT32 *)(x))->v)
  77:Generated_Source\PSoC6\pdl\cmsis/include/cmsis_gcc.h **** #endif
ARM GAS  C:\Users\louis\AppData\Local\Temp\ccj8Y2ua.s 			page 33


  78:Generated_Source\PSoC6\pdl\cmsis/include/cmsis_gcc.h **** #ifndef   __UNALIGNED_UINT16_WRITE
  79:Generated_Source\PSoC6\pdl\cmsis/include/cmsis_gcc.h ****   #pragma GCC diagnostic push
  80:Generated_Source\PSoC6\pdl\cmsis/include/cmsis_gcc.h ****   #pragma GCC diagnostic ignored "-Wpacked"
  81:Generated_Source\PSoC6\pdl\cmsis/include/cmsis_gcc.h ****   #pragma GCC diagnostic ignored "-Wattributes"
  82:Generated_Source\PSoC6\pdl\cmsis/include/cmsis_gcc.h ****   __PACKED_STRUCT T_UINT16_WRITE { uint16_t v; };
  83:Generated_Source\PSoC6\pdl\cmsis/include/cmsis_gcc.h ****   #pragma GCC diagnostic pop
  84:Generated_Source\PSoC6\pdl\cmsis/include/cmsis_gcc.h ****   #define __UNALIGNED_UINT16_WRITE(addr, val)    (void)((((struct T_UINT16_WRITE *)(void *)(addr))-
  85:Generated_Source\PSoC6\pdl\cmsis/include/cmsis_gcc.h **** #endif
  86:Generated_Source\PSoC6\pdl\cmsis/include/cmsis_gcc.h **** #ifndef   __UNALIGNED_UINT16_READ
  87:Generated_Source\PSoC6\pdl\cmsis/include/cmsis_gcc.h ****   #pragma GCC diagnostic push
  88:Generated_Source\PSoC6\pdl\cmsis/include/cmsis_gcc.h ****   #pragma GCC diagnostic ignored "-Wpacked"
  89:Generated_Source\PSoC6\pdl\cmsis/include/cmsis_gcc.h ****   #pragma GCC diagnostic ignored "-Wattributes"
  90:Generated_Source\PSoC6\pdl\cmsis/include/cmsis_gcc.h ****   __PACKED_STRUCT T_UINT16_READ { uint16_t v; };
  91:Generated_Source\PSoC6\pdl\cmsis/include/cmsis_gcc.h ****   #pragma GCC diagnostic pop
  92:Generated_Source\PSoC6\pdl\cmsis/include/cmsis_gcc.h ****   #define __UNALIGNED_UINT16_READ(addr)          (((const struct T_UINT16_READ *)(const void *)(add
  93:Generated_Source\PSoC6\pdl\cmsis/include/cmsis_gcc.h **** #endif
  94:Generated_Source\PSoC6\pdl\cmsis/include/cmsis_gcc.h **** #ifndef   __UNALIGNED_UINT32_WRITE
  95:Generated_Source\PSoC6\pdl\cmsis/include/cmsis_gcc.h ****   #pragma GCC diagnostic push
  96:Generated_Source\PSoC6\pdl\cmsis/include/cmsis_gcc.h ****   #pragma GCC diagnostic ignored "-Wpacked"
  97:Generated_Source\PSoC6\pdl\cmsis/include/cmsis_gcc.h ****   #pragma GCC diagnostic ignored "-Wattributes"
  98:Generated_Source\PSoC6\pdl\cmsis/include/cmsis_gcc.h ****   __PACKED_STRUCT T_UINT32_WRITE { uint32_t v; };
  99:Generated_Source\PSoC6\pdl\cmsis/include/cmsis_gcc.h ****   #pragma GCC diagnostic pop
 100:Generated_Source\PSoC6\pdl\cmsis/include/cmsis_gcc.h ****   #define __UNALIGNED_UINT32_WRITE(addr, val)    (void)((((struct T_UINT32_WRITE *)(void *)(addr))-
 101:Generated_Source\PSoC6\pdl\cmsis/include/cmsis_gcc.h **** #endif
 102:Generated_Source\PSoC6\pdl\cmsis/include/cmsis_gcc.h **** #ifndef   __UNALIGNED_UINT32_READ
 103:Generated_Source\PSoC6\pdl\cmsis/include/cmsis_gcc.h ****   #pragma GCC diagnostic push
 104:Generated_Source\PSoC6\pdl\cmsis/include/cmsis_gcc.h ****   #pragma GCC diagnostic ignored "-Wpacked"
 105:Generated_Source\PSoC6\pdl\cmsis/include/cmsis_gcc.h ****   #pragma GCC diagnostic ignored "-Wattributes"
 106:Generated_Source\PSoC6\pdl\cmsis/include/cmsis_gcc.h ****   __PACKED_STRUCT T_UINT32_READ { uint32_t v; };
 107:Generated_Source\PSoC6\pdl\cmsis/include/cmsis_gcc.h ****   #pragma GCC diagnostic pop
 108:Generated_Source\PSoC6\pdl\cmsis/include/cmsis_gcc.h ****   #define __UNALIGNED_UINT32_READ(addr)          (((const struct T_UINT32_READ *)(const void *)(add
 109:Generated_Source\PSoC6\pdl\cmsis/include/cmsis_gcc.h **** #endif
 110:Generated_Source\PSoC6\pdl\cmsis/include/cmsis_gcc.h **** #ifndef   __ALIGNED
 111:Generated_Source\PSoC6\pdl\cmsis/include/cmsis_gcc.h ****   #define __ALIGNED(x)                           __attribute__((aligned(x)))
 112:Generated_Source\PSoC6\pdl\cmsis/include/cmsis_gcc.h **** #endif
 113:Generated_Source\PSoC6\pdl\cmsis/include/cmsis_gcc.h **** #ifndef   __RESTRICT
 114:Generated_Source\PSoC6\pdl\cmsis/include/cmsis_gcc.h ****   #define __RESTRICT                             __restrict
 115:Generated_Source\PSoC6\pdl\cmsis/include/cmsis_gcc.h **** #endif
 116:Generated_Source\PSoC6\pdl\cmsis/include/cmsis_gcc.h **** 
 117:Generated_Source\PSoC6\pdl\cmsis/include/cmsis_gcc.h **** 
 118:Generated_Source\PSoC6\pdl\cmsis/include/cmsis_gcc.h **** /* ###########################  Core Function Access  ########################### */
 119:Generated_Source\PSoC6\pdl\cmsis/include/cmsis_gcc.h **** /** \ingroup  CMSIS_Core_FunctionInterface
 120:Generated_Source\PSoC6\pdl\cmsis/include/cmsis_gcc.h ****     \defgroup CMSIS_Core_RegAccFunctions CMSIS Core Register Access Functions
 121:Generated_Source\PSoC6\pdl\cmsis/include/cmsis_gcc.h ****   @{
 122:Generated_Source\PSoC6\pdl\cmsis/include/cmsis_gcc.h ****  */
 123:Generated_Source\PSoC6\pdl\cmsis/include/cmsis_gcc.h **** 
 124:Generated_Source\PSoC6\pdl\cmsis/include/cmsis_gcc.h **** /**
 125:Generated_Source\PSoC6\pdl\cmsis/include/cmsis_gcc.h ****   \brief   Enable IRQ Interrupts
 126:Generated_Source\PSoC6\pdl\cmsis/include/cmsis_gcc.h ****   \details Enables IRQ interrupts by clearing the I-bit in the CPSR.
 127:Generated_Source\PSoC6\pdl\cmsis/include/cmsis_gcc.h ****            Can only be executed in Privileged modes.
 128:Generated_Source\PSoC6\pdl\cmsis/include/cmsis_gcc.h ****  */
 129:Generated_Source\PSoC6\pdl\cmsis/include/cmsis_gcc.h **** __STATIC_FORCEINLINE void __enable_irq(void)
 130:Generated_Source\PSoC6\pdl\cmsis/include/cmsis_gcc.h **** {
 131:Generated_Source\PSoC6\pdl\cmsis/include/cmsis_gcc.h ****   __ASM volatile ("cpsie i" : : : "memory");
 826              		.loc 3 131 0
 827              		.syntax unified
 828              	@ 131 "Generated_Source\PSoC6\pdl\cmsis/include/cmsis_gcc.h" 1
ARM GAS  C:\Users\louis\AppData\Local\Temp\ccj8Y2ua.s 			page 34


 829 0008 62B6     		cpsie i
 830              	@ 0 "" 2
 831              		.thumb
 832              		.syntax unified
 833              	.LBE40:
 834              	.LBE39:
 478:main_cm4.c    ****     __enable_irq();
 479:main_cm4.c    ****     /* Set font size, foreground and background colors */
 480:main_cm4.c    ****     GUI_SetColor(GUI_BLACK);
 835              		.loc 1 480 0
 836 000a 0020     		movs	r0, #0
 837 000c FFF7FEFF 		bl	GUI_SetColor
 838              	.LVL136:
 481:main_cm4.c    ****     GUI_SetBkColor(GUI_WHITE);
 839              		.loc 1 481 0
 840 0010 6FF07F40 		mvn	r0, #-16777216
 841 0014 FFF7FEFF 		bl	GUI_SetBkColor
 842              	.LVL137:
 482:main_cm4.c    ****     GUI_SetTextMode(GUI_TM_NORMAL);
 843              		.loc 1 482 0
 844 0018 0020     		movs	r0, #0
 845 001a FFF7FEFF 		bl	GUI_SetTextMode
 846              	.LVL138:
 483:main_cm4.c    ****     GUI_SetTextStyle(GUI_TS_NORMAL);
 847              		.loc 1 483 0
 848 001e 0020     		movs	r0, #0
 849 0020 FFF7FEFF 		bl	GUI_SetTextStyle
 850              	.LVL139:
 484:main_cm4.c    ****     
 485:main_cm4.c    ****     const char *activities[] = {"Card Game", "Eat a boiled egg", "scavenger hunt", "Brave the camps
 851              		.loc 1 485 0
 852 0024 06AC     		add	r4, sp, #24
 853 0026 224D     		ldr	r5, .L31
 854 0028 0FCD     		ldmia	r5!, {r0, r1, r2, r3}
 855 002a 0FC4     		stmia	r4!, {r0, r1, r2, r3}
 856 002c 95E80300 		ldmia	r5, {r0, r1}
 857 0030 84E80300 		stmia	r4, {r0, r1}
 486:main_cm4.c    ****     
 487:main_cm4.c    ****     int choice = rand() % 7;
 858              		.loc 1 487 0
 859 0034 FFF7FEFF 		bl	rand
 860              	.LVL140:
 861 0038 1E4A     		ldr	r2, .L31+4
 862 003a 80FB0223 		smull	r2, r3, r0, r2
 863 003e C418     		adds	r4, r0, r3
 864 0040 C317     		asrs	r3, r0, #31
 865 0042 C3EBA404 		rsb	r4, r3, r4, asr #2
 866 0046 C4EBC404 		rsb	r4, r4, r4, lsl #3
 867 004a 041B     		subs	r4, r0, r4
 868              	.LVL141:
 488:main_cm4.c    ****     
 489:main_cm4.c    ****     
 490:main_cm4.c    ****     /* Clear the screen */
 491:main_cm4.c    ****     GUI_Clear();
 869              		.loc 1 491 0
 870 004c FFF7FEFF 		bl	GUI_Clear
 871              	.LVL142:
ARM GAS  C:\Users\louis\AppData\Local\Temp\ccj8Y2ua.s 			page 35


 492:main_cm4.c    ****     
 493:main_cm4.c    ****         /* Display page title */
 494:main_cm4.c    ****     GUI_SetFont(GUI_FONT_20_1);
 872              		.loc 1 494 0
 873 0050 194D     		ldr	r5, .L31+8
 874 0052 2846     		mov	r0, r5
 875 0054 FFF7FEFF 		bl	GUI_SetFont
 876              	.LVL143:
 495:main_cm4.c    ****     GUI_SetTextAlign(GUI_TA_HCENTER);
 877              		.loc 1 495 0
 878 0058 0220     		movs	r0, #2
 879 005a FFF7FEFF 		bl	GUI_SetTextAlign
 880              	.LVL144:
 496:main_cm4.c    ****     GUI_DispStringAt("Random camping activity", 132, 5);
 881              		.loc 1 496 0
 882 005e 0522     		movs	r2, #5
 883 0060 8421     		movs	r1, #132
 884 0062 1648     		ldr	r0, .L31+12
 885 0064 FFF7FEFF 		bl	GUI_DispStringAt
 886              	.LVL145:
 497:main_cm4.c    ****     
 498:main_cm4.c    ****     char c[20];
 499:main_cm4.c    ****     sprintf(c, "%s", activities[choice]);
 887              		.loc 1 499 0
 888 0068 0CAB     		add	r3, sp, #48
 889 006a 03EB8404 		add	r4, r3, r4, lsl #2
 890              	.LVL146:
 891 006e 54F8181C 		ldr	r1, [r4, #-24]
 892 0072 01A8     		add	r0, sp, #4
 893 0074 FFF7FEFF 		bl	strcpy
 894              	.LVL147:
 500:main_cm4.c    **** 
 501:main_cm4.c    ****     /* Display labels */	
 502:main_cm4.c    ****     GUI_SetFont(GUI_FONT_32B_1);
 895              		.loc 1 502 0
 896 0078 1148     		ldr	r0, .L31+16
 897 007a FFF7FEFF 		bl	GUI_SetFont
 898              	.LVL148:
 503:main_cm4.c    ****     GUI_SetTextAlign(GUI_TA_HCENTER);
 899              		.loc 1 503 0
 900 007e 0220     		movs	r0, #2
 901 0080 FFF7FEFF 		bl	GUI_SetTextAlign
 902              	.LVL149:
 504:main_cm4.c    ****     GUI_DispStringAt(c, 132, 83);
 903              		.loc 1 504 0
 904 0084 5322     		movs	r2, #83
 905 0086 8421     		movs	r1, #132
 906 0088 01A8     		add	r0, sp, #4
 907 008a FFF7FEFF 		bl	GUI_DispStringAt
 908              	.LVL150:
 505:main_cm4.c    ****    // printf(activities[choice]);
 506:main_cm4.c    ****     GUI_SetFont(GUI_FONT_20_1);
 909              		.loc 1 506 0
 910 008e 2846     		mov	r0, r5
 911 0090 FFF7FEFF 		bl	GUI_SetFont
 912              	.LVL151:
 507:main_cm4.c    ****     GUI_SetTextAlign(GUI_TA_HCENTER);
ARM GAS  C:\Users\louis\AppData\Local\Temp\ccj8Y2ua.s 			page 36


 913              		.loc 1 507 0
 914 0094 0220     		movs	r0, #2
 915 0096 FFF7FEFF 		bl	GUI_SetTextAlign
 916              	.LVL152:
 508:main_cm4.c    ****     GUI_DispStringAt("Have fun!", 132, 150);
 917              		.loc 1 508 0
 918 009a 9622     		movs	r2, #150
 919 009c 8421     		movs	r1, #132
 920 009e 0948     		ldr	r0, .L31+20
 921 00a0 FFF7FEFF 		bl	GUI_DispStringAt
 922              	.LVL153:
 509:main_cm4.c    ****     
 510:main_cm4.c    ****     
 511:main_cm4.c    ****     
 512:main_cm4.c    ****     UpdateDisplay(CY_EINK_FULL_4STAGE, true);
 923              		.loc 1 512 0
 924 00a4 0121     		movs	r1, #1
 925 00a6 0846     		mov	r0, r1
 926 00a8 FFF7FEFF 		bl	UpdateDisplay
 927              	.LVL154:
 513:main_cm4.c    **** 
 514:main_cm4.c    ****     
 515:main_cm4.c    **** }
 928              		.loc 1 515 0
 929 00ac 0DB0     		add	sp, sp, #52
 930              		.cfi_def_cfa_offset 12
 931              		@ sp needed
 932 00ae 30BD     		pop	{r4, r5, pc}
 933              	.L32:
 934              		.align	2
 935              	.L31:
 936 00b0 00000000 		.word	.LANCHOR1
 937 00b4 93244992 		.word	-1840700269
 938 00b8 00000000 		.word	GUI_Font20_1
 939 00bc B4000000 		.word	.LC22
 940 00c0 00000000 		.word	GUI_Font32B_1
 941 00c4 CC000000 		.word	.LC23
 942              		.cfi_endproc
 943              	.LFE689:
 944              		.size	CampingActivity, .-CampingActivity
 945              		.section	.text.ShowStartupScreen,"ax",%progbits
 946              		.align	2
 947              		.global	ShowStartupScreen
 948              		.thumb
 949              		.thumb_func
 950              		.type	ShowStartupScreen, %function
 951              	ShowStartupScreen:
 952              	.LFB682:
 130:main_cm4.c    ****     /* Set foreground and background color and font size */
 953              		.loc 1 130 0
 954              		.cfi_startproc
 955              		@ args = 0, pretend = 0, frame = 0
 956              		@ frame_needed = 0, uses_anonymous_args = 0
 957 0000 08B5     		push	{r3, lr}
 958              		.cfi_def_cfa_offset 8
 959              		.cfi_offset 3, -8
 960              		.cfi_offset 14, -4
ARM GAS  C:\Users\louis\AppData\Local\Temp\ccj8Y2ua.s 			page 37


 132:main_cm4.c    ****     GUI_SetColor(GUI_BLACK);
 961              		.loc 1 132 0
 962 0002 1348     		ldr	r0, .L35
 963 0004 FFF7FEFF 		bl	GUI_SetFont
 964              	.LVL155:
 133:main_cm4.c    ****     GUI_SetBkColor(GUI_WHITE);
 965              		.loc 1 133 0
 966 0008 0020     		movs	r0, #0
 967 000a FFF7FEFF 		bl	GUI_SetColor
 968              	.LVL156:
 134:main_cm4.c    ****     GUI_Clear();
 969              		.loc 1 134 0
 970 000e 6FF07F40 		mvn	r0, #-16777216
 971 0012 FFF7FEFF 		bl	GUI_SetBkColor
 972              	.LVL157:
 135:main_cm4.c    **** 
 973              		.loc 1 135 0
 974 0016 FFF7FEFF 		bl	GUI_Clear
 975              	.LVL158:
 137:main_cm4.c    ****     GUI_SetTextAlign(GUI_TA_HCENTER);
 976              		.loc 1 137 0
 977 001a 0222     		movs	r2, #2
 978 001c 1146     		mov	r1, r2
 979 001e 0D48     		ldr	r0, .L35+4
 980 0020 FFF7FEFF 		bl	GUI_DrawBitmap
 981              	.LVL159:
 138:main_cm4.c    ****     GUI_DispStringAt("Campanion", 132, 105);
 982              		.loc 1 138 0
 983 0024 0220     		movs	r0, #2
 984 0026 FFF7FEFF 		bl	GUI_SetTextAlign
 985              	.LVL160:
 139:main_cm4.c    ****     GUI_SetTextAlign(GUI_TA_HCENTER);
 986              		.loc 1 139 0
 987 002a 6922     		movs	r2, #105
 988 002c 8421     		movs	r1, #132
 989 002e 0A48     		ldr	r0, .L35+8
 990 0030 FFF7FEFF 		bl	GUI_DispStringAt
 991              	.LVL161:
 140:main_cm4.c    ****     GUI_DispStringAt("Your Camping Buddy", 132, 125);
 992              		.loc 1 140 0
 993 0034 0220     		movs	r0, #2
 994 0036 FFF7FEFF 		bl	GUI_SetTextAlign
 995              	.LVL162:
 141:main_cm4.c    ****    // GUI_SetTextAlign(GUI_TA_HCENTER);
 996              		.loc 1 141 0
 997 003a 7D22     		movs	r2, #125
 998 003c 8421     		movs	r1, #132
 999 003e 0748     		ldr	r0, .L35+12
 1000 0040 FFF7FEFF 		bl	GUI_DispStringAt
 1001              	.LVL163:
 146:main_cm4.c    **** }
 1002              		.loc 1 146 0
 1003 0044 0121     		movs	r1, #1
 1004 0046 0846     		mov	r0, r1
 1005 0048 FFF7FEFF 		bl	UpdateDisplay
 1006              	.LVL164:
 1007 004c 08BD     		pop	{r3, pc}
ARM GAS  C:\Users\louis\AppData\Local\Temp\ccj8Y2ua.s 			page 38


 1008              	.L36:
 1009 004e 00BF     		.align	2
 1010              	.L35:
 1011 0050 00000000 		.word	GUI_Font20_1
 1012 0054 00000000 		.word	bmCypressLogoFullColor_PNG_1bpp
 1013 0058 D8000000 		.word	.LC24
 1014 005c E4000000 		.word	.LC25
 1015              		.cfi_endproc
 1016              	.LFE682:
 1017              		.size	ShowStartupScreen, .-ShowStartupScreen
 1018              		.section	.text.ShowInstructionsScreen,"ax",%progbits
 1019              		.align	2
 1020              		.global	ShowInstructionsScreen
 1021              		.thumb
 1022              		.thumb_func
 1023              		.type	ShowInstructionsScreen, %function
 1024              	ShowInstructionsScreen:
 1025              	.LFB683:
 165:main_cm4.c    ****     /* Set font size, background color and text mode */
 1026              		.loc 1 165 0
 1027              		.cfi_startproc
 1028              		@ args = 0, pretend = 0, frame = 0
 1029              		@ frame_needed = 0, uses_anonymous_args = 0
 1030 0000 08B5     		push	{r3, lr}
 1031              		.cfi_def_cfa_offset 8
 1032              		.cfi_offset 3, -8
 1033              		.cfi_offset 14, -4
 167:main_cm4.c    ****     GUI_SetBkColor(GUI_WHITE);
 1034              		.loc 1 167 0
 1035 0002 1648     		ldr	r0, .L39
 1036 0004 FFF7FEFF 		bl	GUI_SetFont
 1037              	.LVL165:
 168:main_cm4.c    ****     GUI_SetColor(GUI_BLACK);	
 1038              		.loc 1 168 0
 1039 0008 6FF07F40 		mvn	r0, #-16777216
 1040 000c FFF7FEFF 		bl	GUI_SetBkColor
 1041              	.LVL166:
 169:main_cm4.c    ****     GUI_SetTextMode(GUI_TM_NORMAL);
 1042              		.loc 1 169 0
 1043 0010 0020     		movs	r0, #0
 1044 0012 FFF7FEFF 		bl	GUI_SetColor
 1045              	.LVL167:
 170:main_cm4.c    **** 
 1046              		.loc 1 170 0
 1047 0016 0020     		movs	r0, #0
 1048 0018 FFF7FEFF 		bl	GUI_SetTextMode
 1049              	.LVL168:
 173:main_cm4.c    **** 
 1050              		.loc 1 173 0
 1051 001c FFF7FEFF 		bl	GUI_Clear
 1052              	.LVL169:
 176:main_cm4.c    ****     GUI_DispStringAt("PRESS THE PUSH BUTTON", 132, 58);
 1053              		.loc 1 176 0
 1054 0020 0220     		movs	r0, #2
 1055 0022 FFF7FEFF 		bl	GUI_SetTextAlign
 1056              	.LVL170:
 177:main_cm4.c    ****     GUI_SetTextAlign(GUI_TA_HCENTER);
ARM GAS  C:\Users\louis\AppData\Local\Temp\ccj8Y2ua.s 			page 39


 1057              		.loc 1 177 0
 1058 0026 3A22     		movs	r2, #58
 1059 0028 8421     		movs	r1, #132
 1060 002a 0D48     		ldr	r0, .L39+4
 1061 002c FFF7FEFF 		bl	GUI_DispStringAt
 1062              	.LVL171:
 178:main_cm4.c    ****     GUI_DispStringAt("TO SCROLL THROUGH ", 132, 78);
 1063              		.loc 1 178 0
 1064 0030 0220     		movs	r0, #2
 1065 0032 FFF7FEFF 		bl	GUI_SetTextAlign
 1066              	.LVL172:
 179:main_cm4.c    ****     GUI_SetTextAlign(GUI_TA_HCENTER);
 1067              		.loc 1 179 0
 1068 0036 4E22     		movs	r2, #78
 1069 0038 8421     		movs	r1, #132
 1070 003a 0A48     		ldr	r0, .L39+8
 1071 003c FFF7FEFF 		bl	GUI_DispStringAt
 1072              	.LVL173:
 180:main_cm4.c    ****     GUI_DispStringAt("THE PAGES!", 132, 98);
 1073              		.loc 1 180 0
 1074 0040 0220     		movs	r0, #2
 1075 0042 FFF7FEFF 		bl	GUI_SetTextAlign
 1076              	.LVL174:
 181:main_cm4.c    **** 
 1077              		.loc 1 181 0
 1078 0046 6222     		movs	r2, #98
 1079 0048 8421     		movs	r1, #132
 1080 004a 0748     		ldr	r0, .L39+12
 1081 004c FFF7FEFF 		bl	GUI_DispStringAt
 1082              	.LVL175:
 184:main_cm4.c    **** }
 1083              		.loc 1 184 0
 1084 0050 0121     		movs	r1, #1
 1085 0052 0846     		mov	r0, r1
 1086 0054 FFF7FEFF 		bl	UpdateDisplay
 1087              	.LVL176:
 1088 0058 08BD     		pop	{r3, pc}
 1089              	.L40:
 1090 005a 00BF     		.align	2
 1091              	.L39:
 1092 005c 00000000 		.word	GUI_Font16B_1
 1093 0060 F8000000 		.word	.LC26
 1094 0064 10010000 		.word	.LC27
 1095 0068 24010000 		.word	.LC28
 1096              		.cfi_endproc
 1097              	.LFE683:
 1098              		.size	ShowInstructionsScreen, .-ShowInstructionsScreen
 1099              		.section	.text.ClearScreen,"ax",%progbits
 1100              		.align	2
 1101              		.global	ClearScreen
 1102              		.thumb
 1103              		.thumb_func
 1104              		.type	ClearScreen, %function
 1105              	ClearScreen:
 1106              	.LFB684:
 202:main_cm4.c    ****     GUI_SetColor(GUI_BLACK);
 1107              		.loc 1 202 0
ARM GAS  C:\Users\louis\AppData\Local\Temp\ccj8Y2ua.s 			page 40


 1108              		.cfi_startproc
 1109              		@ args = 0, pretend = 0, frame = 0
 1110              		@ frame_needed = 0, uses_anonymous_args = 0
 1111 0000 08B5     		push	{r3, lr}
 1112              		.cfi_def_cfa_offset 8
 1113              		.cfi_offset 3, -8
 1114              		.cfi_offset 14, -4
 203:main_cm4.c    ****     GUI_SetBkColor(GUI_WHITE);
 1115              		.loc 1 203 0
 1116 0002 0020     		movs	r0, #0
 1117 0004 FFF7FEFF 		bl	GUI_SetColor
 1118              	.LVL177:
 204:main_cm4.c    ****     GUI_Clear();
 1119              		.loc 1 204 0
 1120 0008 6FF07F40 		mvn	r0, #-16777216
 1121 000c FFF7FEFF 		bl	GUI_SetBkColor
 1122              	.LVL178:
 205:main_cm4.c    ****     UpdateDisplay(CY_EINK_FULL_4STAGE, true);
 1123              		.loc 1 205 0
 1124 0010 FFF7FEFF 		bl	GUI_Clear
 1125              	.LVL179:
 206:main_cm4.c    **** }
 1126              		.loc 1 206 0
 1127 0014 0121     		movs	r1, #1
 1128 0016 0846     		mov	r0, r1
 1129 0018 FFF7FEFF 		bl	UpdateDisplay
 1130              	.LVL180:
 1131 001c 08BD     		pop	{r3, pc}
 1132              		.cfi_endproc
 1133              	.LFE684:
 1134              		.size	ClearScreen, .-ClearScreen
 1135 001e 00BF     		.section	.text.WaitforSwitchPressAndRelease,"ax",%progbits
 1136              		.align	2
 1137              		.global	WaitforSwitchPressAndRelease
 1138              		.thumb
 1139              		.thumb_func
 1140              		.type	WaitforSwitchPressAndRelease, %function
 1141              	WaitforSwitchPressAndRelease:
 1142              	.LFB685:
 229:main_cm4.c    ****     /* Wait for SW2 to be pressed */
 1143              		.loc 1 229 0
 1144              		.cfi_startproc
 1145              		@ args = 0, pretend = 0, frame = 0
 1146              		@ frame_needed = 0, uses_anonymous_args = 0
 1147 0000 08B5     		push	{r3, lr}
 1148              		.cfi_def_cfa_offset 8
 1149              		.cfi_offset 3, -8
 1150              		.cfi_offset 14, -4
 1151              	.L44:
 231:main_cm4.c    ****     
 1152              		.loc 1 231 0 discriminator 1
 1153 0002 FFF7FEFF 		bl	Status_SW2_Read
 1154              	.LVL181:
 1155 0006 0028     		cmp	r0, #0
 1156 0008 FBD1     		bne	.L44
 1157              	.L45:
 234:main_cm4.c    **** }
ARM GAS  C:\Users\louis\AppData\Local\Temp\ccj8Y2ua.s 			page 41


 1158              		.loc 1 234 0 discriminator 1
 1159 000a FFF7FEFF 		bl	Status_SW2_Read
 1160              	.LVL182:
 1161 000e 0028     		cmp	r0, #0
 1162 0010 FBD0     		beq	.L45
 235:main_cm4.c    **** 
 1163              		.loc 1 235 0
 1164 0012 08BD     		pop	{r3, pc}
 1165              		.cfi_endproc
 1166              	.LFE685:
 1167              		.size	WaitforSwitchPressAndRelease, .-WaitforSwitchPressAndRelease
 1168              		.section	.text.main,"ax",%progbits
 1169              		.align	2
 1170              		.global	main
 1171              		.thumb
 1172              		.thumb_func
 1173              		.type	main, %function
 1174              	main:
 1175              	.LFB690:
 516:main_cm4.c    **** /*******************************************************************************
 517:main_cm4.c    **** * Function Name: int main(void)
 518:main_cm4.c    **** ********************************************************************************
 519:main_cm4.c    **** *
 520:main_cm4.c    **** * Summary: This is the main function.  Following functions are performed
 521:main_cm4.c    **** *			1. Initialize the EmWin library
 522:main_cm4.c    **** *			2. Display the startup screen for 3 seconds
 523:main_cm4.c    **** *			3. Display the instruction screen and wait for key press and release
 524:main_cm4.c    **** *			4. Inside a while loop scroll through the 6 demo pages on every
 525:main_cm4.c    **** *				key press and release
 526:main_cm4.c    **** *
 527:main_cm4.c    **** * Parameters:
 528:main_cm4.c    **** *  None
 529:main_cm4.c    **** *
 530:main_cm4.c    **** * Return:
 531:main_cm4.c    **** *  None
 532:main_cm4.c    **** *
 533:main_cm4.c    **** *******************************************************************************/
 534:main_cm4.c    **** int main(void)
 535:main_cm4.c    **** {
 1176              		.loc 1 535 0
 1177              		.cfi_startproc
 1178              		@ args = 0, pretend = 0, frame = 0
 1179              		@ frame_needed = 0, uses_anonymous_args = 0
 1180 0000 70B5     		push	{r4, r5, r6, lr}
 1181              		.cfi_def_cfa_offset 16
 1182              		.cfi_offset 4, -16
 1183              		.cfi_offset 5, -12
 1184              		.cfi_offset 6, -8
 1185              		.cfi_offset 14, -4
 1186              	.LVL183:
 1187              	.LBB41:
 1188              	.LBB42:
 1189              		.loc 3 131 0
 1190              		.syntax unified
 1191              	@ 131 "Generated_Source\PSoC6\pdl\cmsis/include/cmsis_gcc.h" 1
 1192 0002 62B6     		cpsie i
 1193              	@ 0 "" 2
ARM GAS  C:\Users\louis\AppData\Local\Temp\ccj8Y2ua.s 			page 42


 1194              		.thumb
 1195              		.syntax unified
 1196              	.LBE42:
 1197              	.LBE41:
 536:main_cm4.c    ****     
 537:main_cm4.c    ****     uint8 pageNumber = 0;
 538:main_cm4.c    ****     
 539:main_cm4.c    ****     __enable_irq(); /* Enable global interrupts. */
 540:main_cm4.c    ****     
 541:main_cm4.c    ****     /* Initialize emWin Graphics */
 542:main_cm4.c    ****     GUI_Init();
 1198              		.loc 1 542 0
 1199 0004 FFF7FEFF 		bl	GUI_Init
 1200              	.LVL184:
 543:main_cm4.c    **** 
 544:main_cm4.c    ****     /* Start the eInk display interface and turn on the display power */
 545:main_cm4.c    ****     Cy_EINK_Start(20);
 1201              		.loc 1 545 0
 1202 0008 1420     		movs	r0, #20
 1203 000a FFF7FEFF 		bl	Cy_EINK_Start
 1204              	.LVL185:
 546:main_cm4.c    ****     Cy_EINK_Power(1);
 1205              		.loc 1 546 0
 1206 000e 0120     		movs	r0, #1
 1207 0010 FFF7FEFF 		bl	Cy_EINK_Power
 1208              	.LVL186:
 547:main_cm4.c    ****     
 548:main_cm4.c    ****     UART_1_Start();
 1209              		.loc 1 548 0
 1210 0014 FFF7FEFF 		bl	UART_1_Start
 1211              	.LVL187:
 549:main_cm4.c    ****     ADC_1_Start();
 1212              		.loc 1 549 0
 1213 0018 FFF7FEFF 		bl	ADC_1_Start
 1214              	.LVL188:
 550:main_cm4.c    ****     
 551:main_cm4.c    ****     
 552:main_cm4.c    ****     
 553:main_cm4.c    ****     Cy_SAR_StartConvert(SAR,CY_SAR_START_CONVERT_CONTINUOUS);
 1215              		.loc 1 553 0
 1216 001c 1E4C     		ldr	r4, .L50
 1217 001e 0121     		movs	r1, #1
 1218 0020 2046     		mov	r0, r4
 1219 0022 FFF7FEFF 		bl	Cy_SAR_StartConvert
 1220              	.LVL189:
 554:main_cm4.c    ****     
 555:main_cm4.c    ****     float v1,v2;
 556:main_cm4.c    ****     int16_t countThermistor, countReference;
 557:main_cm4.c    **** 
 558:main_cm4.c    ****     /* Read the ADC count values */
 559:main_cm4.c    ****     countReference  = Cy_SAR_GetResult16(SAR,0);
 1221              		.loc 1 559 0
 1222 0026 0021     		movs	r1, #0
 1223 0028 2046     		mov	r0, r4
 1224 002a FFF7FEFF 		bl	Cy_SAR_GetResult16
 1225              	.LVL190:
 1226 002e 0546     		mov	r5, r0
ARM GAS  C:\Users\louis\AppData\Local\Temp\ccj8Y2ua.s 			page 43


 1227              	.LVL191:
 560:main_cm4.c    ****     countThermistor = Cy_SAR_GetResult16(SAR,1);
 1228              		.loc 1 560 0
 1229 0030 0121     		movs	r1, #1
 1230 0032 2046     		mov	r0, r4
 1231 0034 FFF7FEFF 		bl	Cy_SAR_GetResult16
 1232              	.LVL192:
 1233 0038 0646     		mov	r6, r0
 1234              	.LVL193:
 561:main_cm4.c    **** 
 562:main_cm4.c    ****     v1 = Cy_SAR_CountsTo_Volts(SAR,0,countReference);
 1235              		.loc 1 562 0
 1236 003a 2A46     		mov	r2, r5
 1237 003c 0021     		movs	r1, #0
 1238 003e 2046     		mov	r0, r4
 1239 0040 FFF7FEFF 		bl	Cy_SAR_CountsTo_Volts
 1240              	.LVL194:
 563:main_cm4.c    ****     v2 = Cy_SAR_CountsTo_Volts(SAR,1,countThermistor);
 1241              		.loc 1 563 0
 1242 0044 3246     		mov	r2, r6
 1243 0046 0121     		movs	r1, #1
 1244 0048 2046     		mov	r0, r4
 1245 004a FFF7FEFF 		bl	Cy_SAR_CountsTo_Volts
 1246              	.LVL195:
 564:main_cm4.c    **** 
 565:main_cm4.c    ****     uint32 resT = Thermistor_GetResistance(countReference, countThermistor);
 1247              		.loc 1 565 0
 1248 004e 3146     		mov	r1, r6
 1249 0050 2846     		mov	r0, r5
 1250 0052 FFF7FEFF 		bl	Thermistor_GetResistance
 1251              	.LVL196:
 566:main_cm4.c    ****     float temperature = (float)Thermistor_GetTemperature(resT) / 100.0 ;
 1252              		.loc 1 566 0
 1253 0056 FFF7FEFF 		bl	Thermistor_GetTemperature
 1254              	.LVL197:
 567:main_cm4.c    **** 
 568:main_cm4.c    ****     /* Show the startup screen */
 569:main_cm4.c    ****     ShowStartupScreen();
 1255              		.loc 1 569 0
 1256 005a FFF7FEFF 		bl	ShowStartupScreen
 1257              	.LVL198:
 570:main_cm4.c    ****     CyDelay(2000);
 1258              		.loc 1 570 0
 1259 005e 4FF4FA60 		mov	r0, #2000
 1260 0062 FFF7FEFF 		bl	Cy_SysLib_Delay
 1261              	.LVL199:
 571:main_cm4.c    **** 
 572:main_cm4.c    ****     /* Show the instructions screen */
 573:main_cm4.c    ****     ShowInstructionsScreen();
 1262              		.loc 1 573 0
 1263 0066 FFF7FEFF 		bl	ShowInstructionsScreen
 1264              	.LVL200:
 574:main_cm4.c    ****     CyDelay(4000);
 1265              		.loc 1 574 0
 1266 006a 4FF47A60 		mov	r0, #4000
 1267 006e FFF7FEFF 		bl	Cy_SysLib_Delay
 1268              	.LVL201:
ARM GAS  C:\Users\louis\AppData\Local\Temp\ccj8Y2ua.s 			page 44


 575:main_cm4.c    ****     ShowStartupScreen();
 1269              		.loc 1 575 0
 1270 0072 FFF7FEFF 		bl	ShowStartupScreen
 1271              	.LVL202:
 576:main_cm4.c    ****     WaitforSwitchPressAndRelease();
 1272              		.loc 1 576 0
 1273 0076 FFF7FEFF 		bl	WaitforSwitchPressAndRelease
 1274              	.LVL203:
 537:main_cm4.c    ****     
 1275              		.loc 1 537 0
 1276 007a 0024     		movs	r4, #0
 1277              	.LVL204:
 1278              	.L48:
 1279              	.LBB43:
 1280              	.LBB44:
 1281              		.file 4 "Generated_Source\\PSoC6\\pdl\\drivers/peripheral/gpio/cy_gpio.h"
   1:Generated_Source\PSoC6\pdl\drivers/peripheral/gpio/cy_gpio.h **** /***************************************************************************//**
   2:Generated_Source\PSoC6\pdl\drivers/peripheral/gpio/cy_gpio.h **** * \file cy_gpio.h
   3:Generated_Source\PSoC6\pdl\drivers/peripheral/gpio/cy_gpio.h **** * \version 1.20
   4:Generated_Source\PSoC6\pdl\drivers/peripheral/gpio/cy_gpio.h **** *
   5:Generated_Source\PSoC6\pdl\drivers/peripheral/gpio/cy_gpio.h **** * Provides an API declaration of the GPIO driver
   6:Generated_Source\PSoC6\pdl\drivers/peripheral/gpio/cy_gpio.h **** *
   7:Generated_Source\PSoC6\pdl\drivers/peripheral/gpio/cy_gpio.h **** ********************************************************************************
   8:Generated_Source\PSoC6\pdl\drivers/peripheral/gpio/cy_gpio.h **** * \copyright
   9:Generated_Source\PSoC6\pdl\drivers/peripheral/gpio/cy_gpio.h **** * Copyright 2016-2018, Cypress Semiconductor Corporation. All rights reserved.
  10:Generated_Source\PSoC6\pdl\drivers/peripheral/gpio/cy_gpio.h **** * You may use this file only in accordance with the license, terms, conditions,
  11:Generated_Source\PSoC6\pdl\drivers/peripheral/gpio/cy_gpio.h **** * disclaimers, and limitations in the end user license agreement accompanying
  12:Generated_Source\PSoC6\pdl\drivers/peripheral/gpio/cy_gpio.h **** * the software package with which this file was provided.
  13:Generated_Source\PSoC6\pdl\drivers/peripheral/gpio/cy_gpio.h **** *******************************************************************************/
  14:Generated_Source\PSoC6\pdl\drivers/peripheral/gpio/cy_gpio.h **** 
  15:Generated_Source\PSoC6\pdl\drivers/peripheral/gpio/cy_gpio.h **** /**
  16:Generated_Source\PSoC6\pdl\drivers/peripheral/gpio/cy_gpio.h **** * \addtogroup group_gpio
  17:Generated_Source\PSoC6\pdl\drivers/peripheral/gpio/cy_gpio.h **** * \{
  18:Generated_Source\PSoC6\pdl\drivers/peripheral/gpio/cy_gpio.h **** * The GPIO driver provides an API to configure and access device Input/Output pins.
  19:Generated_Source\PSoC6\pdl\drivers/peripheral/gpio/cy_gpio.h **** *
  20:Generated_Source\PSoC6\pdl\drivers/peripheral/gpio/cy_gpio.h **** * The functions and other declarations used in this driver are in cy_gpio.h. 
  21:Generated_Source\PSoC6\pdl\drivers/peripheral/gpio/cy_gpio.h **** * You can include cy_pdl.h (ModusToolbox only) to get access to all functions 
  22:Generated_Source\PSoC6\pdl\drivers/peripheral/gpio/cy_gpio.h **** * and declarations in the PDL.
  23:Generated_Source\PSoC6\pdl\drivers/peripheral/gpio/cy_gpio.h **** *
  24:Generated_Source\PSoC6\pdl\drivers/peripheral/gpio/cy_gpio.h **** * IO pins include all general purpose types such as GPIO, SIO, HSIO, AUXIO, and
  25:Generated_Source\PSoC6\pdl\drivers/peripheral/gpio/cy_gpio.h **** * their variants.
  26:Generated_Source\PSoC6\pdl\drivers/peripheral/gpio/cy_gpio.h **** *
  27:Generated_Source\PSoC6\pdl\drivers/peripheral/gpio/cy_gpio.h **** * Initialization can be performed either at the port level or by configuring the
  28:Generated_Source\PSoC6\pdl\drivers/peripheral/gpio/cy_gpio.h **** * individual pins. For efficient use of code space, port
  29:Generated_Source\PSoC6\pdl\drivers/peripheral/gpio/cy_gpio.h **** * configuration should be used in the field. Refer to the product device header files 
  30:Generated_Source\PSoC6\pdl\drivers/peripheral/gpio/cy_gpio.h **** * for the list of supported ports and pins.
  31:Generated_Source\PSoC6\pdl\drivers/peripheral/gpio/cy_gpio.h **** * 
  32:Generated_Source\PSoC6\pdl\drivers/peripheral/gpio/cy_gpio.h **** * - Single pin configuration is performed by using \ref Cy_GPIO_Pin_FastInit 
  33:Generated_Source\PSoC6\pdl\drivers/peripheral/gpio/cy_gpio.h **** *   (provide specific values) or \ref Cy_GPIO_Pin_Init (provide a filled
  34:Generated_Source\PSoC6\pdl\drivers/peripheral/gpio/cy_gpio.h **** *   cy_stc_gpio_pin_config_t structure).
  35:Generated_Source\PSoC6\pdl\drivers/peripheral/gpio/cy_gpio.h **** * - An entire port can be configured using \ref Cy_GPIO_Port_Init. Provide a filled 
  36:Generated_Source\PSoC6\pdl\drivers/peripheral/gpio/cy_gpio.h **** *   cy_stc_gpio_prt_config_t structure. The values in the structure are 
  37:Generated_Source\PSoC6\pdl\drivers/peripheral/gpio/cy_gpio.h **** *   bitfields representing the desired value for each pin in the port.
  38:Generated_Source\PSoC6\pdl\drivers/peripheral/gpio/cy_gpio.h **** * - Pin configuration and management is based on the port address and pin number.
  39:Generated_Source\PSoC6\pdl\drivers/peripheral/gpio/cy_gpio.h **** *   \ref Cy_GPIO_PortToAddr function can optionally be used to calculate the port
  40:Generated_Source\PSoC6\pdl\drivers/peripheral/gpio/cy_gpio.h **** *   address from the port number at run-time.
  41:Generated_Source\PSoC6\pdl\drivers/peripheral/gpio/cy_gpio.h **** *
ARM GAS  C:\Users\louis\AppData\Local\Temp\ccj8Y2ua.s 			page 45


  42:Generated_Source\PSoC6\pdl\drivers/peripheral/gpio/cy_gpio.h **** * Once the pin/port initialization is complete, each pin can be accessed by 
  43:Generated_Source\PSoC6\pdl\drivers/peripheral/gpio/cy_gpio.h **** * specifying the port (GPIO_PRT_Type) and the pin (0-7) in the provided API 
  44:Generated_Source\PSoC6\pdl\drivers/peripheral/gpio/cy_gpio.h **** * functions.
  45:Generated_Source\PSoC6\pdl\drivers/peripheral/gpio/cy_gpio.h **** *
  46:Generated_Source\PSoC6\pdl\drivers/peripheral/gpio/cy_gpio.h **** * \section group_gpio_configuration Configuration Considerations
  47:Generated_Source\PSoC6\pdl\drivers/peripheral/gpio/cy_gpio.h **** *
  48:Generated_Source\PSoC6\pdl\drivers/peripheral/gpio/cy_gpio.h **** * 1. Pin multiplexing is controlled through the High-Speed IO Matrix (HSIOM) selection.
  49:Generated_Source\PSoC6\pdl\drivers/peripheral/gpio/cy_gpio.h **** *    This allows the pin to connect to signal sources/sinks throughout the device,
  50:Generated_Source\PSoC6\pdl\drivers/peripheral/gpio/cy_gpio.h **** *    as defined by the pin HSIOM selection options (en_hsiom_sel_t).
  51:Generated_Source\PSoC6\pdl\drivers/peripheral/gpio/cy_gpio.h **** * 2. All pins are initialized to High-Z drive mode with HSIOM connected to CPU (SW
  52:Generated_Source\PSoC6\pdl\drivers/peripheral/gpio/cy_gpio.h **** *    control digital pin only) at Power-On-Reset(POR).
  53:Generated_Source\PSoC6\pdl\drivers/peripheral/gpio/cy_gpio.h **** * 3. Some API functions perform read-modify-write operations on shared port
  54:Generated_Source\PSoC6\pdl\drivers/peripheral/gpio/cy_gpio.h **** *    registers. These functions are not thread safe and care must be taken when
  55:Generated_Source\PSoC6\pdl\drivers/peripheral/gpio/cy_gpio.h **** *    called by the application.
  56:Generated_Source\PSoC6\pdl\drivers/peripheral/gpio/cy_gpio.h **** * 4. Digital input buffer provides a high-impedance buffer for the external 
  57:Generated_Source\PSoC6\pdl\drivers/peripheral/gpio/cy_gpio.h **** *    digital input. The input buffer is connected to the HSIOM for routing to 
  58:Generated_Source\PSoC6\pdl\drivers/peripheral/gpio/cy_gpio.h **** *    the CPU port registers and selected peripheral. Enabling the input 
  59:Generated_Source\PSoC6\pdl\drivers/peripheral/gpio/cy_gpio.h **** *    buffer provides possibility to read the pin state via the CPU.
  60:Generated_Source\PSoC6\pdl\drivers/peripheral/gpio/cy_gpio.h **** *    If pin is connected to an analog signal, the input buffer should be 
  61:Generated_Source\PSoC6\pdl\drivers/peripheral/gpio/cy_gpio.h **** *    disabled to avoid crowbar currents. For more information refer to device 
  62:Generated_Source\PSoC6\pdl\drivers/peripheral/gpio/cy_gpio.h **** *    TRM and the device datasheet.
  63:Generated_Source\PSoC6\pdl\drivers/peripheral/gpio/cy_gpio.h **** *
  64:Generated_Source\PSoC6\pdl\drivers/peripheral/gpio/cy_gpio.h **** * Multiple pins on a port can be updated using direct port register writes with an
  65:Generated_Source\PSoC6\pdl\drivers/peripheral/gpio/cy_gpio.h **** * appropriate port mask. An example is shown below, highlighting the different ways of 
  66:Generated_Source\PSoC6\pdl\drivers/peripheral/gpio/cy_gpio.h **** * configuring Port 1 pins using:
  67:Generated_Source\PSoC6\pdl\drivers/peripheral/gpio/cy_gpio.h **** * 
  68:Generated_Source\PSoC6\pdl\drivers/peripheral/gpio/cy_gpio.h **** * - Port output data register
  69:Generated_Source\PSoC6\pdl\drivers/peripheral/gpio/cy_gpio.h **** * - Port output data set register
  70:Generated_Source\PSoC6\pdl\drivers/peripheral/gpio/cy_gpio.h **** * - Port output data clear register
  71:Generated_Source\PSoC6\pdl\drivers/peripheral/gpio/cy_gpio.h **** *
  72:Generated_Source\PSoC6\pdl\drivers/peripheral/gpio/cy_gpio.h **** * \snippet gpio/gpio_v1_10_sut_01.cydsn/main_cm4.c Cy_GPIO_Snippet
  73:Generated_Source\PSoC6\pdl\drivers/peripheral/gpio/cy_gpio.h **** *
  74:Generated_Source\PSoC6\pdl\drivers/peripheral/gpio/cy_gpio.h **** * \section group_gpio_more_information More Information
  75:Generated_Source\PSoC6\pdl\drivers/peripheral/gpio/cy_gpio.h **** *
  76:Generated_Source\PSoC6\pdl\drivers/peripheral/gpio/cy_gpio.h **** * Refer to the technical reference manual (TRM) and the device datasheet.
  77:Generated_Source\PSoC6\pdl\drivers/peripheral/gpio/cy_gpio.h **** *
  78:Generated_Source\PSoC6\pdl\drivers/peripheral/gpio/cy_gpio.h **** * \section group_gpio_MISRA MISRA-C Compliance
  79:Generated_Source\PSoC6\pdl\drivers/peripheral/gpio/cy_gpio.h **** * The GPIO driver has the following specific deviations:
  80:Generated_Source\PSoC6\pdl\drivers/peripheral/gpio/cy_gpio.h **** *
  81:Generated_Source\PSoC6\pdl\drivers/peripheral/gpio/cy_gpio.h **** * <table class="doxtable">
  82:Generated_Source\PSoC6\pdl\drivers/peripheral/gpio/cy_gpio.h **** *   <tr>
  83:Generated_Source\PSoC6\pdl\drivers/peripheral/gpio/cy_gpio.h **** *     <th>MISRA Rule</th>
  84:Generated_Source\PSoC6\pdl\drivers/peripheral/gpio/cy_gpio.h **** *     <th>Rule Class (Required/Advisory)</th>
  85:Generated_Source\PSoC6\pdl\drivers/peripheral/gpio/cy_gpio.h **** *     <th>Rule Description</th>
  86:Generated_Source\PSoC6\pdl\drivers/peripheral/gpio/cy_gpio.h **** *     <th>Description of Deviation(s)</th>
  87:Generated_Source\PSoC6\pdl\drivers/peripheral/gpio/cy_gpio.h **** *   </tr>
  88:Generated_Source\PSoC6\pdl\drivers/peripheral/gpio/cy_gpio.h **** *   <tr>
  89:Generated_Source\PSoC6\pdl\drivers/peripheral/gpio/cy_gpio.h **** *     <td>11.4</td>
  90:Generated_Source\PSoC6\pdl\drivers/peripheral/gpio/cy_gpio.h **** *     <td>A</td>
  91:Generated_Source\PSoC6\pdl\drivers/peripheral/gpio/cy_gpio.h **** *     <td>A cast should not be performed between a pointer to object type and
  92:Generated_Source\PSoC6\pdl\drivers/peripheral/gpio/cy_gpio.h **** *         a different pointer to object type.</td>
  93:Generated_Source\PSoC6\pdl\drivers/peripheral/gpio/cy_gpio.h **** *     <td> This code is safe because the elements of both GPIO_PRT_V1_Type and GPIO_PRT_V2_Type 
  94:Generated_Source\PSoC6\pdl\drivers/peripheral/gpio/cy_gpio.h **** *          types have identical alignment.</td>
  95:Generated_Source\PSoC6\pdl\drivers/peripheral/gpio/cy_gpio.h **** *   </tr>
  96:Generated_Source\PSoC6\pdl\drivers/peripheral/gpio/cy_gpio.h **** *   <tr>
  97:Generated_Source\PSoC6\pdl\drivers/peripheral/gpio/cy_gpio.h **** *     <td>16.7</td>
  98:Generated_Source\PSoC6\pdl\drivers/peripheral/gpio/cy_gpio.h **** *     <td>A</td>
ARM GAS  C:\Users\louis\AppData\Local\Temp\ccj8Y2ua.s 			page 46


  99:Generated_Source\PSoC6\pdl\drivers/peripheral/gpio/cy_gpio.h **** *     <td>A pointer parameter in a function prototype should be declared as pointer 
 100:Generated_Source\PSoC6\pdl\drivers/peripheral/gpio/cy_gpio.h **** *         to const if the pointer is not used to modify the addressed object.</td>
 101:Generated_Source\PSoC6\pdl\drivers/peripheral/gpio/cy_gpio.h **** *     <td>The objects pointed to by the base addresses of the GPIO port are not always modified.
 102:Generated_Source\PSoC6\pdl\drivers/peripheral/gpio/cy_gpio.h **** *         While a const qualifier can be used in select scenarios, it brings little benefit
 103:Generated_Source\PSoC6\pdl\drivers/peripheral/gpio/cy_gpio.h **** *         in adding this to the affected functions. </td>
 104:Generated_Source\PSoC6\pdl\drivers/peripheral/gpio/cy_gpio.h **** *   </tr>
 105:Generated_Source\PSoC6\pdl\drivers/peripheral/gpio/cy_gpio.h **** * </table>
 106:Generated_Source\PSoC6\pdl\drivers/peripheral/gpio/cy_gpio.h **** *
 107:Generated_Source\PSoC6\pdl\drivers/peripheral/gpio/cy_gpio.h **** * \section group_gpio_changelog Changelog
 108:Generated_Source\PSoC6\pdl\drivers/peripheral/gpio/cy_gpio.h **** * <table class="doxtable">
 109:Generated_Source\PSoC6\pdl\drivers/peripheral/gpio/cy_gpio.h **** *   <tr><th>Version</th><th>Changes</th><th>Reason for Change</th></tr>
 110:Generated_Source\PSoC6\pdl\drivers/peripheral/gpio/cy_gpio.h **** *   <tr>
 111:Generated_Source\PSoC6\pdl\drivers/peripheral/gpio/cy_gpio.h **** *     <td rowspan="3">1.20</td>
 112:Generated_Source\PSoC6\pdl\drivers/peripheral/gpio/cy_gpio.h **** *     <td>Flattened the organization of the driver source code into the single source directory and
 113:Generated_Source\PSoC6\pdl\drivers/peripheral/gpio/cy_gpio.h **** *     <td>Driver library directory-structure simplification.</td>
 114:Generated_Source\PSoC6\pdl\drivers/peripheral/gpio/cy_gpio.h **** *   </tr>
 115:Generated_Source\PSoC6\pdl\drivers/peripheral/gpio/cy_gpio.h **** *   <tr>
 116:Generated_Source\PSoC6\pdl\drivers/peripheral/gpio/cy_gpio.h **** *     <td>Added the functions for configuring the AMux bus splitter switch cells:
 117:Generated_Source\PSoC6\pdl\drivers/peripheral/gpio/cy_gpio.h **** *     - \ref Cy_GPIO_SetAmuxSplit
 118:Generated_Source\PSoC6\pdl\drivers/peripheral/gpio/cy_gpio.h **** *     - \ref Cy_GPIO_GetAmuxSplit
 119:Generated_Source\PSoC6\pdl\drivers/peripheral/gpio/cy_gpio.h **** *     </td>
 120:Generated_Source\PSoC6\pdl\drivers/peripheral/gpio/cy_gpio.h **** *     <td>Added a new functionality related to AMux bus.</td>
 121:Generated_Source\PSoC6\pdl\drivers/peripheral/gpio/cy_gpio.h **** *   </tr>
 122:Generated_Source\PSoC6\pdl\drivers/peripheral/gpio/cy_gpio.h **** *   <tr>
 123:Generated_Source\PSoC6\pdl\drivers/peripheral/gpio/cy_gpio.h **** *     <td>Added register access layer. Use register access macros instead
 124:Generated_Source\PSoC6\pdl\drivers/peripheral/gpio/cy_gpio.h **** *         of direct register access using dereferenced pointers.</td>
 125:Generated_Source\PSoC6\pdl\drivers/peripheral/gpio/cy_gpio.h **** *     <td>Makes register access device-independent, so that the PDL does 
 126:Generated_Source\PSoC6\pdl\drivers/peripheral/gpio/cy_gpio.h **** *         not need to be recompiled for each supported part number.</td>
 127:Generated_Source\PSoC6\pdl\drivers/peripheral/gpio/cy_gpio.h **** *   </tr>
 128:Generated_Source\PSoC6\pdl\drivers/peripheral/gpio/cy_gpio.h **** *   <tr>
 129:Generated_Source\PSoC6\pdl\drivers/peripheral/gpio/cy_gpio.h **** *     <td>1.10.1</td>
 130:Generated_Source\PSoC6\pdl\drivers/peripheral/gpio/cy_gpio.h **** *     <td>Updated description for the functions: \ref Cy_GPIO_GetInterruptStatus, 
 131:Generated_Source\PSoC6\pdl\drivers/peripheral/gpio/cy_gpio.h **** *         \ref Cy_GPIO_GetInterruptMask, \ref Cy_GPIO_GetInterruptStatusMasked.
 132:Generated_Source\PSoC6\pdl\drivers/peripheral/gpio/cy_gpio.h **** *
 133:Generated_Source\PSoC6\pdl\drivers/peripheral/gpio/cy_gpio.h **** *         Minor documentation edits.
 134:Generated_Source\PSoC6\pdl\drivers/peripheral/gpio/cy_gpio.h **** *     </td>
 135:Generated_Source\PSoC6\pdl\drivers/peripheral/gpio/cy_gpio.h **** *     <td>Documentation update and clarification</td>
 136:Generated_Source\PSoC6\pdl\drivers/peripheral/gpio/cy_gpio.h **** *   </tr>
 137:Generated_Source\PSoC6\pdl\drivers/peripheral/gpio/cy_gpio.h **** *   <tr>
 138:Generated_Source\PSoC6\pdl\drivers/peripheral/gpio/cy_gpio.h **** *     <td>1.10</td>
 139:Generated_Source\PSoC6\pdl\drivers/peripheral/gpio/cy_gpio.h **** *     <td>Added input parameter validation to the API functions</td>
 140:Generated_Source\PSoC6\pdl\drivers/peripheral/gpio/cy_gpio.h **** *     <td></td>
 141:Generated_Source\PSoC6\pdl\drivers/peripheral/gpio/cy_gpio.h **** *   </tr>
 142:Generated_Source\PSoC6\pdl\drivers/peripheral/gpio/cy_gpio.h **** *   <tr>
 143:Generated_Source\PSoC6\pdl\drivers/peripheral/gpio/cy_gpio.h **** *     <td>1.0</td>
 144:Generated_Source\PSoC6\pdl\drivers/peripheral/gpio/cy_gpio.h **** *     <td>Initial version</td>
 145:Generated_Source\PSoC6\pdl\drivers/peripheral/gpio/cy_gpio.h **** *     <td></td>
 146:Generated_Source\PSoC6\pdl\drivers/peripheral/gpio/cy_gpio.h **** *   </tr>
 147:Generated_Source\PSoC6\pdl\drivers/peripheral/gpio/cy_gpio.h **** * </table>
 148:Generated_Source\PSoC6\pdl\drivers/peripheral/gpio/cy_gpio.h **** *
 149:Generated_Source\PSoC6\pdl\drivers/peripheral/gpio/cy_gpio.h **** * \defgroup group_gpio_macros Macros
 150:Generated_Source\PSoC6\pdl\drivers/peripheral/gpio/cy_gpio.h **** * \defgroup group_gpio_functions Functions
 151:Generated_Source\PSoC6\pdl\drivers/peripheral/gpio/cy_gpio.h **** * \{
 152:Generated_Source\PSoC6\pdl\drivers/peripheral/gpio/cy_gpio.h **** *   \defgroup group_gpio_functions_init       Initialization Functions
 153:Generated_Source\PSoC6\pdl\drivers/peripheral/gpio/cy_gpio.h **** *   \defgroup group_gpio_functions_gpio       GPIO Functions
 154:Generated_Source\PSoC6\pdl\drivers/peripheral/gpio/cy_gpio.h **** *   \defgroup group_gpio_functions_sio        SIO Functions
 155:Generated_Source\PSoC6\pdl\drivers/peripheral/gpio/cy_gpio.h **** *   \defgroup group_gpio_functions_interrupt  Port Interrupt Functions
ARM GAS  C:\Users\louis\AppData\Local\Temp\ccj8Y2ua.s 			page 47


 156:Generated_Source\PSoC6\pdl\drivers/peripheral/gpio/cy_gpio.h **** * \}
 157:Generated_Source\PSoC6\pdl\drivers/peripheral/gpio/cy_gpio.h **** * \defgroup group_gpio_data_structures Data Structures
 158:Generated_Source\PSoC6\pdl\drivers/peripheral/gpio/cy_gpio.h **** * \defgroup group_gpio_enums Enumerated Types
 159:Generated_Source\PSoC6\pdl\drivers/peripheral/gpio/cy_gpio.h **** */
 160:Generated_Source\PSoC6\pdl\drivers/peripheral/gpio/cy_gpio.h **** 
 161:Generated_Source\PSoC6\pdl\drivers/peripheral/gpio/cy_gpio.h **** #if !defined(CY_GPIO_H)
 162:Generated_Source\PSoC6\pdl\drivers/peripheral/gpio/cy_gpio.h **** #define CY_GPIO_H
 163:Generated_Source\PSoC6\pdl\drivers/peripheral/gpio/cy_gpio.h **** 
 164:Generated_Source\PSoC6\pdl\drivers/peripheral/gpio/cy_gpio.h **** #include <stddef.h>
 165:Generated_Source\PSoC6\pdl\drivers/peripheral/gpio/cy_gpio.h **** #include "cy_device.h"
 166:Generated_Source\PSoC6\pdl\drivers/peripheral/gpio/cy_gpio.h **** #include "cy_device_headers.h"
 167:Generated_Source\PSoC6\pdl\drivers/peripheral/gpio/cy_gpio.h **** #include "cy_syslib.h"
 168:Generated_Source\PSoC6\pdl\drivers/peripheral/gpio/cy_gpio.h **** 
 169:Generated_Source\PSoC6\pdl\drivers/peripheral/gpio/cy_gpio.h **** #if defined(__cplusplus)
 170:Generated_Source\PSoC6\pdl\drivers/peripheral/gpio/cy_gpio.h **** extern "C" {
 171:Generated_Source\PSoC6\pdl\drivers/peripheral/gpio/cy_gpio.h **** #endif
 172:Generated_Source\PSoC6\pdl\drivers/peripheral/gpio/cy_gpio.h **** 
 173:Generated_Source\PSoC6\pdl\drivers/peripheral/gpio/cy_gpio.h **** /** \addtogroup group_gpio_macros
 174:Generated_Source\PSoC6\pdl\drivers/peripheral/gpio/cy_gpio.h **** * \{
 175:Generated_Source\PSoC6\pdl\drivers/peripheral/gpio/cy_gpio.h **** */
 176:Generated_Source\PSoC6\pdl\drivers/peripheral/gpio/cy_gpio.h **** 
 177:Generated_Source\PSoC6\pdl\drivers/peripheral/gpio/cy_gpio.h **** /** Driver major version */
 178:Generated_Source\PSoC6\pdl\drivers/peripheral/gpio/cy_gpio.h **** #define CY_GPIO_DRV_VERSION_MAJOR       1
 179:Generated_Source\PSoC6\pdl\drivers/peripheral/gpio/cy_gpio.h **** 
 180:Generated_Source\PSoC6\pdl\drivers/peripheral/gpio/cy_gpio.h **** /** Driver minor version */
 181:Generated_Source\PSoC6\pdl\drivers/peripheral/gpio/cy_gpio.h **** #define CY_GPIO_DRV_VERSION_MINOR       20
 182:Generated_Source\PSoC6\pdl\drivers/peripheral/gpio/cy_gpio.h **** 
 183:Generated_Source\PSoC6\pdl\drivers/peripheral/gpio/cy_gpio.h **** /** GPIO driver ID */
 184:Generated_Source\PSoC6\pdl\drivers/peripheral/gpio/cy_gpio.h **** #define CY_GPIO_ID CY_PDL_DRV_ID(0x16U)
 185:Generated_Source\PSoC6\pdl\drivers/peripheral/gpio/cy_gpio.h **** 
 186:Generated_Source\PSoC6\pdl\drivers/peripheral/gpio/cy_gpio.h **** /** \} group_gpio_macros */
 187:Generated_Source\PSoC6\pdl\drivers/peripheral/gpio/cy_gpio.h **** 
 188:Generated_Source\PSoC6\pdl\drivers/peripheral/gpio/cy_gpio.h **** 
 189:Generated_Source\PSoC6\pdl\drivers/peripheral/gpio/cy_gpio.h **** /***************************************
 190:Generated_Source\PSoC6\pdl\drivers/peripheral/gpio/cy_gpio.h **** *       Enumerations
 191:Generated_Source\PSoC6\pdl\drivers/peripheral/gpio/cy_gpio.h **** ***************************************/
 192:Generated_Source\PSoC6\pdl\drivers/peripheral/gpio/cy_gpio.h **** /**
 193:Generated_Source\PSoC6\pdl\drivers/peripheral/gpio/cy_gpio.h **** * \addtogroup group_gpio_enums
 194:Generated_Source\PSoC6\pdl\drivers/peripheral/gpio/cy_gpio.h **** * \{
 195:Generated_Source\PSoC6\pdl\drivers/peripheral/gpio/cy_gpio.h **** */
 196:Generated_Source\PSoC6\pdl\drivers/peripheral/gpio/cy_gpio.h **** 
 197:Generated_Source\PSoC6\pdl\drivers/peripheral/gpio/cy_gpio.h **** /** GPIO Driver error codes */
 198:Generated_Source\PSoC6\pdl\drivers/peripheral/gpio/cy_gpio.h **** typedef enum 
 199:Generated_Source\PSoC6\pdl\drivers/peripheral/gpio/cy_gpio.h **** {
 200:Generated_Source\PSoC6\pdl\drivers/peripheral/gpio/cy_gpio.h ****     CY_GPIO_SUCCESS   = 0x00U,                                    /**< Returned successful */
 201:Generated_Source\PSoC6\pdl\drivers/peripheral/gpio/cy_gpio.h ****     CY_GPIO_BAD_PARAM = CY_GPIO_ID | CY_PDL_STATUS_ERROR | 0x01U, /**< Bad parameter was passed */
 202:Generated_Source\PSoC6\pdl\drivers/peripheral/gpio/cy_gpio.h **** } cy_en_gpio_status_t;
 203:Generated_Source\PSoC6\pdl\drivers/peripheral/gpio/cy_gpio.h **** 
 204:Generated_Source\PSoC6\pdl\drivers/peripheral/gpio/cy_gpio.h **** /** AMux switch open/close config */
 205:Generated_Source\PSoC6\pdl\drivers/peripheral/gpio/cy_gpio.h **** typedef enum
 206:Generated_Source\PSoC6\pdl\drivers/peripheral/gpio/cy_gpio.h **** {
 207:Generated_Source\PSoC6\pdl\drivers/peripheral/gpio/cy_gpio.h ****     CY_GPIO_AMUX_OPENALL,   /**< Open ground switch. Open right switch. Open left switch */
 208:Generated_Source\PSoC6\pdl\drivers/peripheral/gpio/cy_gpio.h ****     CY_GPIO_AMUX_L,         /**< Open ground switch. Open right switch. Close left switch */
 209:Generated_Source\PSoC6\pdl\drivers/peripheral/gpio/cy_gpio.h ****     CY_GPIO_AMUX_R,         /**< Open ground switch. Close right switch. Open left switch */
 210:Generated_Source\PSoC6\pdl\drivers/peripheral/gpio/cy_gpio.h ****     CY_GPIO_AMUX_LR,        /**< Open ground switch. Close right switch. Close left switch */
 211:Generated_Source\PSoC6\pdl\drivers/peripheral/gpio/cy_gpio.h ****     CY_GPIO_AMUX_G,         /**< Close ground switch. Open right switch. Open left switch */
 212:Generated_Source\PSoC6\pdl\drivers/peripheral/gpio/cy_gpio.h ****     CY_GPIO_AMUX_GL,        /**< Close ground switch. Open right switch. Close left switch */
ARM GAS  C:\Users\louis\AppData\Local\Temp\ccj8Y2ua.s 			page 48


 213:Generated_Source\PSoC6\pdl\drivers/peripheral/gpio/cy_gpio.h ****     CY_GPIO_AMUX_GR,        /**< Close ground switch. Close right switch. Open left switch */
 214:Generated_Source\PSoC6\pdl\drivers/peripheral/gpio/cy_gpio.h ****     CY_GPIO_AMUX_GLR,       /**< Close ground switch. Close right switch. Close left switch */
 215:Generated_Source\PSoC6\pdl\drivers/peripheral/gpio/cy_gpio.h **** }cy_en_gpio_amuxconnect_t;
 216:Generated_Source\PSoC6\pdl\drivers/peripheral/gpio/cy_gpio.h **** 
 217:Generated_Source\PSoC6\pdl\drivers/peripheral/gpio/cy_gpio.h **** /**
 218:Generated_Source\PSoC6\pdl\drivers/peripheral/gpio/cy_gpio.h **** * AMux Bus selection
 219:Generated_Source\PSoC6\pdl\drivers/peripheral/gpio/cy_gpio.h **** */
 220:Generated_Source\PSoC6\pdl\drivers/peripheral/gpio/cy_gpio.h **** typedef enum
 221:Generated_Source\PSoC6\pdl\drivers/peripheral/gpio/cy_gpio.h **** {
 222:Generated_Source\PSoC6\pdl\drivers/peripheral/gpio/cy_gpio.h ****     CY_GPIO_AMUXBUSA,       /**< AMuxBus A */
 223:Generated_Source\PSoC6\pdl\drivers/peripheral/gpio/cy_gpio.h ****     CY_GPIO_AMUXBUSB        /**< AMuxBus B */
 224:Generated_Source\PSoC6\pdl\drivers/peripheral/gpio/cy_gpio.h **** }cy_en_gpio_amuxselect_t;
 225:Generated_Source\PSoC6\pdl\drivers/peripheral/gpio/cy_gpio.h **** 
 226:Generated_Source\PSoC6\pdl\drivers/peripheral/gpio/cy_gpio.h **** /** \} group_gpio_enums */
 227:Generated_Source\PSoC6\pdl\drivers/peripheral/gpio/cy_gpio.h **** 
 228:Generated_Source\PSoC6\pdl\drivers/peripheral/gpio/cy_gpio.h **** 
 229:Generated_Source\PSoC6\pdl\drivers/peripheral/gpio/cy_gpio.h **** /***************************************
 230:Generated_Source\PSoC6\pdl\drivers/peripheral/gpio/cy_gpio.h **** *       Configuration Structures
 231:Generated_Source\PSoC6\pdl\drivers/peripheral/gpio/cy_gpio.h **** ***************************************/
 232:Generated_Source\PSoC6\pdl\drivers/peripheral/gpio/cy_gpio.h **** 
 233:Generated_Source\PSoC6\pdl\drivers/peripheral/gpio/cy_gpio.h **** /**
 234:Generated_Source\PSoC6\pdl\drivers/peripheral/gpio/cy_gpio.h **** * \addtogroup group_gpio_data_structures
 235:Generated_Source\PSoC6\pdl\drivers/peripheral/gpio/cy_gpio.h **** * \{
 236:Generated_Source\PSoC6\pdl\drivers/peripheral/gpio/cy_gpio.h **** */
 237:Generated_Source\PSoC6\pdl\drivers/peripheral/gpio/cy_gpio.h **** 
 238:Generated_Source\PSoC6\pdl\drivers/peripheral/gpio/cy_gpio.h **** /** This structure is used to initialize a port of GPIO pins */
 239:Generated_Source\PSoC6\pdl\drivers/peripheral/gpio/cy_gpio.h **** typedef struct 
 240:Generated_Source\PSoC6\pdl\drivers/peripheral/gpio/cy_gpio.h **** {
 241:Generated_Source\PSoC6\pdl\drivers/peripheral/gpio/cy_gpio.h ****     uint32_t out;           /**< Initial output data for the IO pins in the port */
 242:Generated_Source\PSoC6\pdl\drivers/peripheral/gpio/cy_gpio.h ****     uint32_t intrMask;      /**< Interrupt enable mask for the port interrupt */
 243:Generated_Source\PSoC6\pdl\drivers/peripheral/gpio/cy_gpio.h ****     uint32_t intrCfg;       /**< Port pin interrupt edge detection configuration */
 244:Generated_Source\PSoC6\pdl\drivers/peripheral/gpio/cy_gpio.h ****     uint32_t cfg;           /**< Port pin drive modes and input buffer enable configuration */
 245:Generated_Source\PSoC6\pdl\drivers/peripheral/gpio/cy_gpio.h ****     uint32_t cfgIn;         /**< Port pin input buffer configuration */
 246:Generated_Source\PSoC6\pdl\drivers/peripheral/gpio/cy_gpio.h ****     uint32_t cfgOut;        /**< Port pin output buffer configuration */
 247:Generated_Source\PSoC6\pdl\drivers/peripheral/gpio/cy_gpio.h ****     uint32_t cfgSIO;        /**< Port SIO pins configuration */
 248:Generated_Source\PSoC6\pdl\drivers/peripheral/gpio/cy_gpio.h ****     uint32_t sel0Active;    /**< HSIOM selection for port pins 0,1,2,3 */
 249:Generated_Source\PSoC6\pdl\drivers/peripheral/gpio/cy_gpio.h ****     uint32_t sel1Active;    /**< HSIOM selection for port pins 4,5,6,7 */
 250:Generated_Source\PSoC6\pdl\drivers/peripheral/gpio/cy_gpio.h **** } cy_stc_gpio_prt_config_t;
 251:Generated_Source\PSoC6\pdl\drivers/peripheral/gpio/cy_gpio.h **** 
 252:Generated_Source\PSoC6\pdl\drivers/peripheral/gpio/cy_gpio.h **** /** This structure is used to initialize a single GPIO pin */
 253:Generated_Source\PSoC6\pdl\drivers/peripheral/gpio/cy_gpio.h **** typedef struct
 254:Generated_Source\PSoC6\pdl\drivers/peripheral/gpio/cy_gpio.h **** {
 255:Generated_Source\PSoC6\pdl\drivers/peripheral/gpio/cy_gpio.h ****     uint32_t outVal;         /**< Pin output state */
 256:Generated_Source\PSoC6\pdl\drivers/peripheral/gpio/cy_gpio.h ****     uint32_t driveMode;      /**< Drive mode */
 257:Generated_Source\PSoC6\pdl\drivers/peripheral/gpio/cy_gpio.h ****     en_hsiom_sel_t hsiom;    /**< HSIOM selection */
 258:Generated_Source\PSoC6\pdl\drivers/peripheral/gpio/cy_gpio.h ****     uint32_t intEdge;        /**< Interrupt Edge type */
 259:Generated_Source\PSoC6\pdl\drivers/peripheral/gpio/cy_gpio.h ****     uint32_t intMask;        /**< Interrupt enable mask */
 260:Generated_Source\PSoC6\pdl\drivers/peripheral/gpio/cy_gpio.h ****     uint32_t vtrip;          /**< Input buffer voltage trip type */
 261:Generated_Source\PSoC6\pdl\drivers/peripheral/gpio/cy_gpio.h ****     uint32_t slewRate;       /**< Output buffer slew rate */
 262:Generated_Source\PSoC6\pdl\drivers/peripheral/gpio/cy_gpio.h ****     uint32_t driveSel;       /**< Drive strength */
 263:Generated_Source\PSoC6\pdl\drivers/peripheral/gpio/cy_gpio.h ****     uint32_t vregEn;         /**< SIO pair output buffer mode */
 264:Generated_Source\PSoC6\pdl\drivers/peripheral/gpio/cy_gpio.h ****     uint32_t ibufMode;       /**< SIO pair input buffer mode */
 265:Generated_Source\PSoC6\pdl\drivers/peripheral/gpio/cy_gpio.h ****     uint32_t vtripSel;       /**< SIO pair input buffer trip point */
 266:Generated_Source\PSoC6\pdl\drivers/peripheral/gpio/cy_gpio.h ****     uint32_t vrefSel;        /**< SIO pair reference voltage for input buffer trip point */
 267:Generated_Source\PSoC6\pdl\drivers/peripheral/gpio/cy_gpio.h ****     uint32_t vohSel;         /**< SIO pair regulated voltage output level */
 268:Generated_Source\PSoC6\pdl\drivers/peripheral/gpio/cy_gpio.h **** } cy_stc_gpio_pin_config_t;
 269:Generated_Source\PSoC6\pdl\drivers/peripheral/gpio/cy_gpio.h **** 
ARM GAS  C:\Users\louis\AppData\Local\Temp\ccj8Y2ua.s 			page 49


 270:Generated_Source\PSoC6\pdl\drivers/peripheral/gpio/cy_gpio.h **** /** \} group_gpio_data_structures */
 271:Generated_Source\PSoC6\pdl\drivers/peripheral/gpio/cy_gpio.h **** 
 272:Generated_Source\PSoC6\pdl\drivers/peripheral/gpio/cy_gpio.h **** /***************************************
 273:Generated_Source\PSoC6\pdl\drivers/peripheral/gpio/cy_gpio.h **** *        Constants
 274:Generated_Source\PSoC6\pdl\drivers/peripheral/gpio/cy_gpio.h **** ***************************************/
 275:Generated_Source\PSoC6\pdl\drivers/peripheral/gpio/cy_gpio.h **** 
 276:Generated_Source\PSoC6\pdl\drivers/peripheral/gpio/cy_gpio.h **** /** \cond INTERNAL */
 277:Generated_Source\PSoC6\pdl\drivers/peripheral/gpio/cy_gpio.h **** 
 278:Generated_Source\PSoC6\pdl\drivers/peripheral/gpio/cy_gpio.h **** /* General Constants */
 279:Generated_Source\PSoC6\pdl\drivers/peripheral/gpio/cy_gpio.h **** #define CY_GPIO_PRT_HALF                       (4UL)      /**< Half-way point of a GPIO port */
 280:Generated_Source\PSoC6\pdl\drivers/peripheral/gpio/cy_gpio.h **** #define CY_GPIO_PRT_DEINIT                     (0UL)      /**< De-init value for port registers */
 281:Generated_Source\PSoC6\pdl\drivers/peripheral/gpio/cy_gpio.h **** 
 282:Generated_Source\PSoC6\pdl\drivers/peripheral/gpio/cy_gpio.h **** /* GPIO Masks */
 283:Generated_Source\PSoC6\pdl\drivers/peripheral/gpio/cy_gpio.h **** #define CY_GPIO_HSIOM_MASK                     (0x1FUL)   /**< HSIOM selection mask */
 284:Generated_Source\PSoC6\pdl\drivers/peripheral/gpio/cy_gpio.h **** #define CY_GPIO_OUT_MASK                       (0x01UL)   /**< Single pin mask for OUT register */
 285:Generated_Source\PSoC6\pdl\drivers/peripheral/gpio/cy_gpio.h **** #define CY_GPIO_IN_MASK                        (0x01UL)   /**< Single pin mask for IN register */
 286:Generated_Source\PSoC6\pdl\drivers/peripheral/gpio/cy_gpio.h **** #define CY_GPIO_CFG_DM_MASK                    (0x0FUL)   /**< Single pin mask for drive mode in CF
 287:Generated_Source\PSoC6\pdl\drivers/peripheral/gpio/cy_gpio.h **** #define CY_GPIO_CFG_IN_VTRIP_SEL_MASK          (0x01UL)   /**< Single pin mask for VTRIP selection 
 288:Generated_Source\PSoC6\pdl\drivers/peripheral/gpio/cy_gpio.h **** #define CY_GPIO_CFG_OUT_SLOW_MASK              (0x01UL)   /**< Single pin mask for slew rate in CFG
 289:Generated_Source\PSoC6\pdl\drivers/peripheral/gpio/cy_gpio.h **** #define CY_GPIO_CFG_OUT_DRIVE_SEL_MASK         (0x03UL)   /**< Single pin mask for drive strength i
 290:Generated_Source\PSoC6\pdl\drivers/peripheral/gpio/cy_gpio.h **** #define CY_GPIO_INTR_STATUS_MASK               (0x01UL)   /**< Single pin mask for interrupt status
 291:Generated_Source\PSoC6\pdl\drivers/peripheral/gpio/cy_gpio.h **** #define CY_GPIO_INTR_EN_MASK                   (0x01UL)   /**< Single pin mask for interrupt status
 292:Generated_Source\PSoC6\pdl\drivers/peripheral/gpio/cy_gpio.h **** #define CY_GPIO_INTR_MASKED_MASK               (0x01UL)   /**< Single pin mask for masked interrupt
 293:Generated_Source\PSoC6\pdl\drivers/peripheral/gpio/cy_gpio.h **** #define CY_GPIO_INTR_SET_MASK                  (0x01UL)   /**< Single pin mask for setting the inte
 294:Generated_Source\PSoC6\pdl\drivers/peripheral/gpio/cy_gpio.h **** #define CY_GPIO_INTR_EDGE_MASK                 (0x03UL)   /**< Single pin mask for interrupt edge t
 295:Generated_Source\PSoC6\pdl\drivers/peripheral/gpio/cy_gpio.h **** #define CY_GPIO_INTR_FLT_EDGE_MASK             (0x07UL)   /**< Single pin mask for setting filtered
 296:Generated_Source\PSoC6\pdl\drivers/peripheral/gpio/cy_gpio.h **** 
 297:Generated_Source\PSoC6\pdl\drivers/peripheral/gpio/cy_gpio.h **** /* SIO Masks */
 298:Generated_Source\PSoC6\pdl\drivers/peripheral/gpio/cy_gpio.h **** #define CY_GPIO_VREG_EN_MASK                   (0x01UL)   /**< Single SIO pin mask for voltage regu
 299:Generated_Source\PSoC6\pdl\drivers/peripheral/gpio/cy_gpio.h **** #define CY_GPIO_IBUF_MASK                      (0x01UL)   /**< Single SIO pin mask for input buffer
 300:Generated_Source\PSoC6\pdl\drivers/peripheral/gpio/cy_gpio.h **** #define CY_GPIO_IBUF_SHIFT                     (0x01UL)   /**< Single SIO pin shift for input buffe
 301:Generated_Source\PSoC6\pdl\drivers/peripheral/gpio/cy_gpio.h **** #define CY_GPIO_VTRIP_SEL_MASK                 (0x01UL)   /**< Single SIO pin mask for the input bu
 302:Generated_Source\PSoC6\pdl\drivers/peripheral/gpio/cy_gpio.h **** #define CY_GPIO_VTRIP_SEL_SHIFT                (0x02UL)   /**< Single SIO pin shift for the input b
 303:Generated_Source\PSoC6\pdl\drivers/peripheral/gpio/cy_gpio.h **** #define CY_GPIO_VREF_SEL_MASK                  (0x03UL)   /**< Single SIO pin mask for voltage refe
 304:Generated_Source\PSoC6\pdl\drivers/peripheral/gpio/cy_gpio.h **** #define CY_GPIO_VREF_SEL_SHIFT                 (0x03UL)   /**< Single SIO pin shift for voltage ref
 305:Generated_Source\PSoC6\pdl\drivers/peripheral/gpio/cy_gpio.h **** #define CY_GPIO_VOH_SEL_MASK                   (0x07UL)   /**< Single SIO pin mask for VOH */
 306:Generated_Source\PSoC6\pdl\drivers/peripheral/gpio/cy_gpio.h **** #define CY_GPIO_VOH_SEL_SHIFT                  (0x05UL)   /**< Single SIO pin shift for VOH */
 307:Generated_Source\PSoC6\pdl\drivers/peripheral/gpio/cy_gpio.h **** 
 308:Generated_Source\PSoC6\pdl\drivers/peripheral/gpio/cy_gpio.h **** /* Special mask for SIO pin pair setting */
 309:Generated_Source\PSoC6\pdl\drivers/peripheral/gpio/cy_gpio.h **** #define CY_GPIO_SIO_ODD_PIN_MASK               (0x00FEUL) /**< SIO pin pair selection mask */
 310:Generated_Source\PSoC6\pdl\drivers/peripheral/gpio/cy_gpio.h **** #define CY_GPIO_SIO_PIN_MASK                   (0x00FFUL) /**< SIO pin pair mask */
 311:Generated_Source\PSoC6\pdl\drivers/peripheral/gpio/cy_gpio.h **** 
 312:Generated_Source\PSoC6\pdl\drivers/peripheral/gpio/cy_gpio.h **** /* Offsets */
 313:Generated_Source\PSoC6\pdl\drivers/peripheral/gpio/cy_gpio.h **** #define CY_GPIO_HSIOM_OFFSET                   (3UL)      /**< Offset for HSIOM */
 314:Generated_Source\PSoC6\pdl\drivers/peripheral/gpio/cy_gpio.h **** #define CY_GPIO_DRIVE_MODE_OFFSET              (2UL)      /**< Offset for Drive mode */
 315:Generated_Source\PSoC6\pdl\drivers/peripheral/gpio/cy_gpio.h **** #define CY_GPIO_INBUF_OFFSET                   (3UL)      /**< Offset for input buffer */
 316:Generated_Source\PSoC6\pdl\drivers/peripheral/gpio/cy_gpio.h **** #define CY_GPIO_CFG_OUT_DRIVE_OFFSET           (16UL)     /**< Offset for drive strength */
 317:Generated_Source\PSoC6\pdl\drivers/peripheral/gpio/cy_gpio.h **** #define CY_GPIO_INTR_CFG_OFFSET                (1UL)      /**< Offset for interrupt config */
 318:Generated_Source\PSoC6\pdl\drivers/peripheral/gpio/cy_gpio.h **** #define CY_GPIO_INTR_FILT_OFFSET               (18UL)     /**< Offset for filtered interrupt config
 319:Generated_Source\PSoC6\pdl\drivers/peripheral/gpio/cy_gpio.h **** #define CY_GPIO_CFG_SIO_OFFSET                 (2UL)      /**< Offset for SIO config */
 320:Generated_Source\PSoC6\pdl\drivers/peripheral/gpio/cy_gpio.h **** 
 321:Generated_Source\PSoC6\pdl\drivers/peripheral/gpio/cy_gpio.h **** /* Parameter validation constants */
 322:Generated_Source\PSoC6\pdl\drivers/peripheral/gpio/cy_gpio.h **** #define CY_GPIO_PINS_MAX                       (8UL)      /**< Number of pins in the port */
 323:Generated_Source\PSoC6\pdl\drivers/peripheral/gpio/cy_gpio.h **** #define CY_GPIO_PRT_PINS_MASK                  (0x0000000FFUL)
 324:Generated_Source\PSoC6\pdl\drivers/peripheral/gpio/cy_gpio.h **** #define CY_GPIO_PRT_INTR_CFG_EDGE_SEL_MASK     (GPIO_PRT_INTR_CFG_EDGE0_SEL_Msk | \
 325:Generated_Source\PSoC6\pdl\drivers/peripheral/gpio/cy_gpio.h ****                                                 GPIO_PRT_INTR_CFG_EDGE1_SEL_Msk | \
 326:Generated_Source\PSoC6\pdl\drivers/peripheral/gpio/cy_gpio.h ****                                                 GPIO_PRT_INTR_CFG_EDGE2_SEL_Msk | \
ARM GAS  C:\Users\louis\AppData\Local\Temp\ccj8Y2ua.s 			page 50


 327:Generated_Source\PSoC6\pdl\drivers/peripheral/gpio/cy_gpio.h ****                                                 GPIO_PRT_INTR_CFG_EDGE3_SEL_Msk | \
 328:Generated_Source\PSoC6\pdl\drivers/peripheral/gpio/cy_gpio.h ****                                                 GPIO_PRT_INTR_CFG_EDGE4_SEL_Msk | \
 329:Generated_Source\PSoC6\pdl\drivers/peripheral/gpio/cy_gpio.h ****                                                 GPIO_PRT_INTR_CFG_EDGE5_SEL_Msk | \
 330:Generated_Source\PSoC6\pdl\drivers/peripheral/gpio/cy_gpio.h ****                                                 GPIO_PRT_INTR_CFG_EDGE6_SEL_Msk | \
 331:Generated_Source\PSoC6\pdl\drivers/peripheral/gpio/cy_gpio.h ****                                                 GPIO_PRT_INTR_CFG_EDGE7_SEL_Msk)
 332:Generated_Source\PSoC6\pdl\drivers/peripheral/gpio/cy_gpio.h **** #define CY_GPIO_PRT_INTR_CFG_RANGE_MASK        (CY_GPIO_PRT_INTR_CFG_EDGE_SEL_MASK | \
 333:Generated_Source\PSoC6\pdl\drivers/peripheral/gpio/cy_gpio.h ****                                                 GPIO_PRT_INTR_CFG_FLT_EDGE_SEL_Msk | \
 334:Generated_Source\PSoC6\pdl\drivers/peripheral/gpio/cy_gpio.h ****                                                 GPIO_PRT_INTR_CFG_FLT_SEL_Msk)
 335:Generated_Source\PSoC6\pdl\drivers/peripheral/gpio/cy_gpio.h **** #define CY_GPIO_PRT_INT_MASK_MASK              (0x0000001FFUL)
 336:Generated_Source\PSoC6\pdl\drivers/peripheral/gpio/cy_gpio.h **** #define CY_GPIO_PRT_SEL_ACTIVE_MASK            (0x1FFFFFFFUL)
 337:Generated_Source\PSoC6\pdl\drivers/peripheral/gpio/cy_gpio.h **** 
 338:Generated_Source\PSoC6\pdl\drivers/peripheral/gpio/cy_gpio.h **** #define GPIO_MAX_SPLIT_CELL_SEGMENTS           (9U)
 339:Generated_Source\PSoC6\pdl\drivers/peripheral/gpio/cy_gpio.h **** 
 340:Generated_Source\PSoC6\pdl\drivers/peripheral/gpio/cy_gpio.h **** /* Parameter validation macros */
 341:Generated_Source\PSoC6\pdl\drivers/peripheral/gpio/cy_gpio.h **** #define CY_GPIO_IS_PIN_VALID(pinNum)           (CY_GPIO_PINS_MAX > (pinNum))
 342:Generated_Source\PSoC6\pdl\drivers/peripheral/gpio/cy_gpio.h **** #define CY_GPIO_IS_FILTER_PIN_VALID(pinNum)    (CY_GPIO_PINS_MAX >= (pinNum))
 343:Generated_Source\PSoC6\pdl\drivers/peripheral/gpio/cy_gpio.h **** #define CY_GPIO_IS_VALUE_VALID(outVal)         (1UL >= (outVal))
 344:Generated_Source\PSoC6\pdl\drivers/peripheral/gpio/cy_gpio.h **** #define CY_GPIO_IS_DM_VALID(driveMode)         (0U == ((driveMode) & (uint32_t)~CY_GPIO_CFG_DM_MASK
 345:Generated_Source\PSoC6\pdl\drivers/peripheral/gpio/cy_gpio.h **** 
 346:Generated_Source\PSoC6\pdl\drivers/peripheral/gpio/cy_gpio.h **** #define CY_GPIO_IS_HSIOM_VALID(hsiom)          (0U == ((hsiom) & (uint32_t)~CY_GPIO_HSIOM_MASK))
 347:Generated_Source\PSoC6\pdl\drivers/peripheral/gpio/cy_gpio.h **** 
 348:Generated_Source\PSoC6\pdl\drivers/peripheral/gpio/cy_gpio.h **** #define CY_GPIO_IS_INT_EDGE_VALID(intEdge)     ((CY_GPIO_INTR_DISABLE  == (intEdge)) || \
 349:Generated_Source\PSoC6\pdl\drivers/peripheral/gpio/cy_gpio.h ****                                                 (CY_GPIO_INTR_RISING   == (intEdge)) || \
 350:Generated_Source\PSoC6\pdl\drivers/peripheral/gpio/cy_gpio.h ****                                                 (CY_GPIO_INTR_FALLING  == (intEdge)) || \
 351:Generated_Source\PSoC6\pdl\drivers/peripheral/gpio/cy_gpio.h ****                                                 (CY_GPIO_INTR_BOTH     == (intEdge)))
 352:Generated_Source\PSoC6\pdl\drivers/peripheral/gpio/cy_gpio.h **** 
 353:Generated_Source\PSoC6\pdl\drivers/peripheral/gpio/cy_gpio.h **** #define CY_GPIO_IS_DRIVE_SEL_VALID(driveSel)   ((CY_GPIO_DRIVE_FULL    == (driveSel)) || \
 354:Generated_Source\PSoC6\pdl\drivers/peripheral/gpio/cy_gpio.h ****                                                 (CY_GPIO_DRIVE_1_2     == (driveSel)) || \
 355:Generated_Source\PSoC6\pdl\drivers/peripheral/gpio/cy_gpio.h ****                                                 (CY_GPIO_DRIVE_1_4     == (driveSel)) || \
 356:Generated_Source\PSoC6\pdl\drivers/peripheral/gpio/cy_gpio.h ****                                                 (CY_GPIO_DRIVE_1_8     == (driveSel)))
 357:Generated_Source\PSoC6\pdl\drivers/peripheral/gpio/cy_gpio.h **** 
 358:Generated_Source\PSoC6\pdl\drivers/peripheral/gpio/cy_gpio.h **** #define CY_GPIO_IS_VREF_SEL_VALID(vrefSel)     ((CY_SIO_VREF_PINREF    == (vrefSel)) || \
 359:Generated_Source\PSoC6\pdl\drivers/peripheral/gpio/cy_gpio.h ****                                                 (CY_SIO_VREF_1_2V      == (vrefSel)) || \
 360:Generated_Source\PSoC6\pdl\drivers/peripheral/gpio/cy_gpio.h ****                                                 (CY_SIO_VREF_AMUX_A    == (vrefSel)) || \
 361:Generated_Source\PSoC6\pdl\drivers/peripheral/gpio/cy_gpio.h ****                                                 (CY_SIO_VREF_AMUX_B    == (vrefSel)))
 362:Generated_Source\PSoC6\pdl\drivers/peripheral/gpio/cy_gpio.h **** 
 363:Generated_Source\PSoC6\pdl\drivers/peripheral/gpio/cy_gpio.h **** #define CY_GPIO_IS_VOH_SEL_VALID(vrefSel)      ((CY_SIO_VOH_1_00       == (vrefSel)) || \
 364:Generated_Source\PSoC6\pdl\drivers/peripheral/gpio/cy_gpio.h ****                                                 (CY_SIO_VOH_1_25       == (vrefSel)) || \
 365:Generated_Source\PSoC6\pdl\drivers/peripheral/gpio/cy_gpio.h ****                                                 (CY_SIO_VOH_1_49       == (vrefSel)) || \
 366:Generated_Source\PSoC6\pdl\drivers/peripheral/gpio/cy_gpio.h ****                                                 (CY_SIO_VOH_1_67       == (vrefSel)) || \
 367:Generated_Source\PSoC6\pdl\drivers/peripheral/gpio/cy_gpio.h ****                                                 (CY_SIO_VOH_2_08       == (vrefSel)) || \
 368:Generated_Source\PSoC6\pdl\drivers/peripheral/gpio/cy_gpio.h ****                                                 (CY_SIO_VOH_2_50       == (vrefSel)) || \
 369:Generated_Source\PSoC6\pdl\drivers/peripheral/gpio/cy_gpio.h ****                                                 (CY_SIO_VOH_2_78       == (vrefSel)) || \
 370:Generated_Source\PSoC6\pdl\drivers/peripheral/gpio/cy_gpio.h ****                                                 (CY_SIO_VOH_4_16       == (vrefSel)))
 371:Generated_Source\PSoC6\pdl\drivers/peripheral/gpio/cy_gpio.h ****                    
 372:Generated_Source\PSoC6\pdl\drivers/peripheral/gpio/cy_gpio.h **** #define CY_GPIO_IS_PIN_BIT_VALID(pinBit)       (0U == ((pinBit) & (uint32_t)~CY_GPIO_PRT_PINS_MASK)
 373:Generated_Source\PSoC6\pdl\drivers/peripheral/gpio/cy_gpio.h **** #define CY_GPIO_IS_INTR_CFG_VALID(intrCfg)     (0U == ((intrCfg) & (uint32_t)~CY_GPIO_PRT_INTR_CFG_
 374:Generated_Source\PSoC6\pdl\drivers/peripheral/gpio/cy_gpio.h **** #define CY_GPIO_IS_INTR_MASK_VALID(intrMask)   (0U == ((intrMask) & (uint32_t)~CY_GPIO_PRT_INT_MASK
 375:Generated_Source\PSoC6\pdl\drivers/peripheral/gpio/cy_gpio.h **** #define CY_GPIO_IS_SEL_ACT_VALID(selActive)    (0U == ((selActive) & (uint32_t)~CY_GPIO_PRT_SEL_ACT
 376:Generated_Source\PSoC6\pdl\drivers/peripheral/gpio/cy_gpio.h **** 
 377:Generated_Source\PSoC6\pdl\drivers/peripheral/gpio/cy_gpio.h **** #define CY_GPIO_IS_AMUX_SPLIT_VALID(switchCtrl)       (((uint32_t) (switchCtrl)) < GPIO_MAX_SPLIT_C
 378:Generated_Source\PSoC6\pdl\drivers/peripheral/gpio/cy_gpio.h **** 
 379:Generated_Source\PSoC6\pdl\drivers/peripheral/gpio/cy_gpio.h **** #define CY_GPIO_IS_AMUX_CONNECT_VALID(amuxConnect)    ((CY_GPIO_AMUX_OPENALL == (amuxConnect)) || \
 380:Generated_Source\PSoC6\pdl\drivers/peripheral/gpio/cy_gpio.h ****                                                        (CY_GPIO_AMUX_L       == (amuxConnect)) || \
 381:Generated_Source\PSoC6\pdl\drivers/peripheral/gpio/cy_gpio.h ****                                                        (CY_GPIO_AMUX_R       == (amuxConnect)) || \
 382:Generated_Source\PSoC6\pdl\drivers/peripheral/gpio/cy_gpio.h ****                                                        (CY_GPIO_AMUX_LR      == (amuxConnect)) || \
 383:Generated_Source\PSoC6\pdl\drivers/peripheral/gpio/cy_gpio.h ****                                                        (CY_GPIO_AMUX_G       == (amuxConnect)) || \
ARM GAS  C:\Users\louis\AppData\Local\Temp\ccj8Y2ua.s 			page 51


 384:Generated_Source\PSoC6\pdl\drivers/peripheral/gpio/cy_gpio.h ****                                                        (CY_GPIO_AMUX_GL      == (amuxConnect)) || \
 385:Generated_Source\PSoC6\pdl\drivers/peripheral/gpio/cy_gpio.h ****                                                        (CY_GPIO_AMUX_GR      == (amuxConnect)) || \
 386:Generated_Source\PSoC6\pdl\drivers/peripheral/gpio/cy_gpio.h ****                                                        (CY_GPIO_AMUX_GLR     == (amuxConnect)))
 387:Generated_Source\PSoC6\pdl\drivers/peripheral/gpio/cy_gpio.h **** 
 388:Generated_Source\PSoC6\pdl\drivers/peripheral/gpio/cy_gpio.h **** #define CY_GPIO_IS_AMUX_SELECT_VALID(amuxBus)       ((CY_GPIO_AMUXBUSA       == (amuxBus)) || \
 389:Generated_Source\PSoC6\pdl\drivers/peripheral/gpio/cy_gpio.h ****                                                      (CY_GPIO_AMUXBUSB       == (amuxBus)))
 390:Generated_Source\PSoC6\pdl\drivers/peripheral/gpio/cy_gpio.h **** /** \endcond */
 391:Generated_Source\PSoC6\pdl\drivers/peripheral/gpio/cy_gpio.h **** 
 392:Generated_Source\PSoC6\pdl\drivers/peripheral/gpio/cy_gpio.h **** 
 393:Generated_Source\PSoC6\pdl\drivers/peripheral/gpio/cy_gpio.h **** /***************************************
 394:Generated_Source\PSoC6\pdl\drivers/peripheral/gpio/cy_gpio.h **** *        Function Constants
 395:Generated_Source\PSoC6\pdl\drivers/peripheral/gpio/cy_gpio.h **** ***************************************/
 396:Generated_Source\PSoC6\pdl\drivers/peripheral/gpio/cy_gpio.h **** 
 397:Generated_Source\PSoC6\pdl\drivers/peripheral/gpio/cy_gpio.h **** /**
 398:Generated_Source\PSoC6\pdl\drivers/peripheral/gpio/cy_gpio.h **** * \addtogroup group_gpio_macros
 399:Generated_Source\PSoC6\pdl\drivers/peripheral/gpio/cy_gpio.h **** * \{
 400:Generated_Source\PSoC6\pdl\drivers/peripheral/gpio/cy_gpio.h **** */
 401:Generated_Source\PSoC6\pdl\drivers/peripheral/gpio/cy_gpio.h **** 
 402:Generated_Source\PSoC6\pdl\drivers/peripheral/gpio/cy_gpio.h **** /**
 403:Generated_Source\PSoC6\pdl\drivers/peripheral/gpio/cy_gpio.h **** * \defgroup group_gpio_driveModes Pin drive mode
 404:Generated_Source\PSoC6\pdl\drivers/peripheral/gpio/cy_gpio.h **** * \{
 405:Generated_Source\PSoC6\pdl\drivers/peripheral/gpio/cy_gpio.h **** * Constants to be used for setting the drive mode of the pin.
 406:Generated_Source\PSoC6\pdl\drivers/peripheral/gpio/cy_gpio.h **** */
 407:Generated_Source\PSoC6\pdl\drivers/peripheral/gpio/cy_gpio.h **** #define CY_GPIO_DM_ANALOG                      (0x00UL) /**< Analog High-Z. Input buffer off */
 408:Generated_Source\PSoC6\pdl\drivers/peripheral/gpio/cy_gpio.h **** #define CY_GPIO_DM_PULLUP_IN_OFF               (0x02UL) /**< Resistive Pull-Up. Input buffer off */
 409:Generated_Source\PSoC6\pdl\drivers/peripheral/gpio/cy_gpio.h **** #define CY_GPIO_DM_PULLDOWN_IN_OFF             (0x03UL) /**< Resistive Pull-Down. Input buffer off 
 410:Generated_Source\PSoC6\pdl\drivers/peripheral/gpio/cy_gpio.h **** #define CY_GPIO_DM_OD_DRIVESLOW_IN_OFF         (0x04UL) /**< Open Drain, Drives Low. Input buffer o
 411:Generated_Source\PSoC6\pdl\drivers/peripheral/gpio/cy_gpio.h **** #define CY_GPIO_DM_OD_DRIVESHIGH_IN_OFF        (0x05UL) /**< Open Drain, Drives High. Input buffer 
 412:Generated_Source\PSoC6\pdl\drivers/peripheral/gpio/cy_gpio.h **** #define CY_GPIO_DM_STRONG_IN_OFF               (0x06UL) /**< Strong Drive. Input buffer off */
 413:Generated_Source\PSoC6\pdl\drivers/peripheral/gpio/cy_gpio.h **** #define CY_GPIO_DM_PULLUP_DOWN_IN_OFF          (0x07UL) /**< Resistive Pull-Up/Down. Input buffer o
 414:Generated_Source\PSoC6\pdl\drivers/peripheral/gpio/cy_gpio.h **** #define CY_GPIO_DM_HIGHZ                       (0x08UL) /**< Digital High-Z. Input buffer on */
 415:Generated_Source\PSoC6\pdl\drivers/peripheral/gpio/cy_gpio.h **** #define CY_GPIO_DM_PULLUP                      (0x0AUL) /**< Resistive Pull-Up. Input buffer on */
 416:Generated_Source\PSoC6\pdl\drivers/peripheral/gpio/cy_gpio.h **** #define CY_GPIO_DM_PULLDOWN                    (0x0BUL) /**< Resistive Pull-Down. Input buffer on *
 417:Generated_Source\PSoC6\pdl\drivers/peripheral/gpio/cy_gpio.h **** #define CY_GPIO_DM_OD_DRIVESLOW                (0x0CUL) /**< Open Drain, Drives Low. Input buffer o
 418:Generated_Source\PSoC6\pdl\drivers/peripheral/gpio/cy_gpio.h **** #define CY_GPIO_DM_OD_DRIVESHIGH               (0x0DUL) /**< Open Drain, Drives High. Input buffer 
 419:Generated_Source\PSoC6\pdl\drivers/peripheral/gpio/cy_gpio.h **** #define CY_GPIO_DM_STRONG                      (0x0EUL) /**< Strong Drive. Input buffer on */
 420:Generated_Source\PSoC6\pdl\drivers/peripheral/gpio/cy_gpio.h **** #define CY_GPIO_DM_PULLUP_DOWN                 (0x0FUL) /**< Resistive Pull-Up/Down. Input buffer o
 421:Generated_Source\PSoC6\pdl\drivers/peripheral/gpio/cy_gpio.h **** /** \} */
 422:Generated_Source\PSoC6\pdl\drivers/peripheral/gpio/cy_gpio.h **** 
 423:Generated_Source\PSoC6\pdl\drivers/peripheral/gpio/cy_gpio.h **** /**
 424:Generated_Source\PSoC6\pdl\drivers/peripheral/gpio/cy_gpio.h **** * \defgroup group_gpio_vtrip Voltage trip mode
 425:Generated_Source\PSoC6\pdl\drivers/peripheral/gpio/cy_gpio.h **** * \{
 426:Generated_Source\PSoC6\pdl\drivers/peripheral/gpio/cy_gpio.h **** * Constants to be used for setting the voltage trip type on the pin.
 427:Generated_Source\PSoC6\pdl\drivers/peripheral/gpio/cy_gpio.h **** */
 428:Generated_Source\PSoC6\pdl\drivers/peripheral/gpio/cy_gpio.h **** #define CY_GPIO_VTRIP_CMOS                     (0x00UL) /**< Input buffer compatible with CMOS and 
 429:Generated_Source\PSoC6\pdl\drivers/peripheral/gpio/cy_gpio.h **** #define CY_GPIO_VTRIP_TTL                      (0x01UL) /**< Input buffer compatible with TTL and M
 430:Generated_Source\PSoC6\pdl\drivers/peripheral/gpio/cy_gpio.h **** /** \} */
 431:Generated_Source\PSoC6\pdl\drivers/peripheral/gpio/cy_gpio.h **** 
 432:Generated_Source\PSoC6\pdl\drivers/peripheral/gpio/cy_gpio.h **** /**
 433:Generated_Source\PSoC6\pdl\drivers/peripheral/gpio/cy_gpio.h **** * \defgroup group_gpio_slewRate Slew Rate Mode
 434:Generated_Source\PSoC6\pdl\drivers/peripheral/gpio/cy_gpio.h **** * \{
 435:Generated_Source\PSoC6\pdl\drivers/peripheral/gpio/cy_gpio.h **** * Constants to be used for setting the slew rate of the pin.
 436:Generated_Source\PSoC6\pdl\drivers/peripheral/gpio/cy_gpio.h **** */
 437:Generated_Source\PSoC6\pdl\drivers/peripheral/gpio/cy_gpio.h **** #define CY_GPIO_SLEW_FAST                      (0x00UL) /**< Fast slew rate */
 438:Generated_Source\PSoC6\pdl\drivers/peripheral/gpio/cy_gpio.h **** #define CY_GPIO_SLEW_SLOW                      (0x01UL) /**< Slow slew rate */
 439:Generated_Source\PSoC6\pdl\drivers/peripheral/gpio/cy_gpio.h **** /** \} */
 440:Generated_Source\PSoC6\pdl\drivers/peripheral/gpio/cy_gpio.h **** 
ARM GAS  C:\Users\louis\AppData\Local\Temp\ccj8Y2ua.s 			page 52


 441:Generated_Source\PSoC6\pdl\drivers/peripheral/gpio/cy_gpio.h **** /**
 442:Generated_Source\PSoC6\pdl\drivers/peripheral/gpio/cy_gpio.h **** * \defgroup group_gpio_driveStrength Pin drive strength
 443:Generated_Source\PSoC6\pdl\drivers/peripheral/gpio/cy_gpio.h **** * \{
 444:Generated_Source\PSoC6\pdl\drivers/peripheral/gpio/cy_gpio.h **** * Constants to be used for setting the drive strength of the pin.
 445:Generated_Source\PSoC6\pdl\drivers/peripheral/gpio/cy_gpio.h **** */
 446:Generated_Source\PSoC6\pdl\drivers/peripheral/gpio/cy_gpio.h **** #define CY_GPIO_DRIVE_FULL                     (0x00UL) /**< Full drive strength: Max drive current
 447:Generated_Source\PSoC6\pdl\drivers/peripheral/gpio/cy_gpio.h **** #define CY_GPIO_DRIVE_1_2                      (0x01UL) /**< 1/2 drive strength: 1/2 drive current 
 448:Generated_Source\PSoC6\pdl\drivers/peripheral/gpio/cy_gpio.h **** #define CY_GPIO_DRIVE_1_4                      (0x02UL) /**< 1/4 drive strength: 1/4 drive current 
 449:Generated_Source\PSoC6\pdl\drivers/peripheral/gpio/cy_gpio.h **** #define CY_GPIO_DRIVE_1_8                      (0x03UL) /**< 1/8 drive strength: 1/8 drive current 
 450:Generated_Source\PSoC6\pdl\drivers/peripheral/gpio/cy_gpio.h **** /** \} */
 451:Generated_Source\PSoC6\pdl\drivers/peripheral/gpio/cy_gpio.h **** 
 452:Generated_Source\PSoC6\pdl\drivers/peripheral/gpio/cy_gpio.h **** /**
 453:Generated_Source\PSoC6\pdl\drivers/peripheral/gpio/cy_gpio.h **** * \defgroup group_gpio_interruptTrigger Interrupt trigger type
 454:Generated_Source\PSoC6\pdl\drivers/peripheral/gpio/cy_gpio.h **** * \{
 455:Generated_Source\PSoC6\pdl\drivers/peripheral/gpio/cy_gpio.h **** * Constants to be used for setting the interrupt trigger type on the pin.
 456:Generated_Source\PSoC6\pdl\drivers/peripheral/gpio/cy_gpio.h **** */
 457:Generated_Source\PSoC6\pdl\drivers/peripheral/gpio/cy_gpio.h **** #define CY_GPIO_INTR_DISABLE                   (0x00UL) /**< Disable the pin interrupt generation *
 458:Generated_Source\PSoC6\pdl\drivers/peripheral/gpio/cy_gpio.h **** #define CY_GPIO_INTR_RISING                    (0x01UL) /**< Rising-Edge interrupt */
 459:Generated_Source\PSoC6\pdl\drivers/peripheral/gpio/cy_gpio.h **** #define CY_GPIO_INTR_FALLING                   (0x02UL) /**< Falling-Edge interrupt */
 460:Generated_Source\PSoC6\pdl\drivers/peripheral/gpio/cy_gpio.h **** #define CY_GPIO_INTR_BOTH                      (0x03UL) /**< Both-Edge interrupt */
 461:Generated_Source\PSoC6\pdl\drivers/peripheral/gpio/cy_gpio.h **** /** \} */
 462:Generated_Source\PSoC6\pdl\drivers/peripheral/gpio/cy_gpio.h **** 
 463:Generated_Source\PSoC6\pdl\drivers/peripheral/gpio/cy_gpio.h **** /**
 464:Generated_Source\PSoC6\pdl\drivers/peripheral/gpio/cy_gpio.h **** * \defgroup group_gpio_sioVreg SIO output buffer mode
 465:Generated_Source\PSoC6\pdl\drivers/peripheral/gpio/cy_gpio.h **** * \{
 466:Generated_Source\PSoC6\pdl\drivers/peripheral/gpio/cy_gpio.h **** * Constants to be used for setting the SIO output buffer mode on the pin.
 467:Generated_Source\PSoC6\pdl\drivers/peripheral/gpio/cy_gpio.h **** */
 468:Generated_Source\PSoC6\pdl\drivers/peripheral/gpio/cy_gpio.h **** #define CY_SIO_VREG_UNREGULATED                (0x00UL) /**< Unregulated output buffer */
 469:Generated_Source\PSoC6\pdl\drivers/peripheral/gpio/cy_gpio.h **** #define CY_SIO_VREG_REGULATED                  (0x01UL) /**< Regulated output buffer */
 470:Generated_Source\PSoC6\pdl\drivers/peripheral/gpio/cy_gpio.h **** /** \} */
 471:Generated_Source\PSoC6\pdl\drivers/peripheral/gpio/cy_gpio.h **** 
 472:Generated_Source\PSoC6\pdl\drivers/peripheral/gpio/cy_gpio.h **** /**
 473:Generated_Source\PSoC6\pdl\drivers/peripheral/gpio/cy_gpio.h **** * \defgroup group_gpio_sioIbuf SIO input buffer mode
 474:Generated_Source\PSoC6\pdl\drivers/peripheral/gpio/cy_gpio.h **** * \{
 475:Generated_Source\PSoC6\pdl\drivers/peripheral/gpio/cy_gpio.h **** * Constants to be used for setting the SIO input buffer mode on the pin.
 476:Generated_Source\PSoC6\pdl\drivers/peripheral/gpio/cy_gpio.h **** */
 477:Generated_Source\PSoC6\pdl\drivers/peripheral/gpio/cy_gpio.h **** #define CY_SIO_IBUF_SINGLEENDED                (0x00UL) /**< Single ended input buffer */
 478:Generated_Source\PSoC6\pdl\drivers/peripheral/gpio/cy_gpio.h **** #define CY_SIO_IBUF_DIFFERENTIAL               (0x01UL) /**< Differential input buffer */
 479:Generated_Source\PSoC6\pdl\drivers/peripheral/gpio/cy_gpio.h **** /** \} */
 480:Generated_Source\PSoC6\pdl\drivers/peripheral/gpio/cy_gpio.h **** 
 481:Generated_Source\PSoC6\pdl\drivers/peripheral/gpio/cy_gpio.h **** /**
 482:Generated_Source\PSoC6\pdl\drivers/peripheral/gpio/cy_gpio.h **** * \defgroup group_gpio_sioVtrip SIO input buffer trip-point
 483:Generated_Source\PSoC6\pdl\drivers/peripheral/gpio/cy_gpio.h **** * \{
 484:Generated_Source\PSoC6\pdl\drivers/peripheral/gpio/cy_gpio.h **** * Constants to be used for setting the SIO input buffer trip-point of the pin.
 485:Generated_Source\PSoC6\pdl\drivers/peripheral/gpio/cy_gpio.h **** */
 486:Generated_Source\PSoC6\pdl\drivers/peripheral/gpio/cy_gpio.h **** #define CY_SIO_VTRIP_CMOS                      (0x00UL) /**< CMOS input buffer (single-ended) */
 487:Generated_Source\PSoC6\pdl\drivers/peripheral/gpio/cy_gpio.h **** #define CY_SIO_VTRIP_TTL                       (0x01UL) /**< TTL input buffer (single-ended) */
 488:Generated_Source\PSoC6\pdl\drivers/peripheral/gpio/cy_gpio.h **** #define CY_SIO_VTRIP_0_5VDDIO_0_5VOH           (0x00UL) /**< 0.5xVddio or 0.5xVoh (differential) */
 489:Generated_Source\PSoC6\pdl\drivers/peripheral/gpio/cy_gpio.h **** #define CY_SIO_VTRIP_0_4VDDIO_1_0VREF          (0x01UL) /**< 0.4xVddio or 0.4xVoh (differential) */
 490:Generated_Source\PSoC6\pdl\drivers/peripheral/gpio/cy_gpio.h **** /** \} */
 491:Generated_Source\PSoC6\pdl\drivers/peripheral/gpio/cy_gpio.h **** 
 492:Generated_Source\PSoC6\pdl\drivers/peripheral/gpio/cy_gpio.h **** /**
 493:Generated_Source\PSoC6\pdl\drivers/peripheral/gpio/cy_gpio.h **** * \defgroup group_gpio_sioVref SIO reference voltage for input buffer trip-point
 494:Generated_Source\PSoC6\pdl\drivers/peripheral/gpio/cy_gpio.h **** * \{
 495:Generated_Source\PSoC6\pdl\drivers/peripheral/gpio/cy_gpio.h **** * Constants to be used for setting the reference voltage of SIO input buffer trip-point.
 496:Generated_Source\PSoC6\pdl\drivers/peripheral/gpio/cy_gpio.h **** */
 497:Generated_Source\PSoC6\pdl\drivers/peripheral/gpio/cy_gpio.h **** #define CY_SIO_VREF_PINREF                     (0x00UL) /**< Vref from analog pin */
ARM GAS  C:\Users\louis\AppData\Local\Temp\ccj8Y2ua.s 			page 53


 498:Generated_Source\PSoC6\pdl\drivers/peripheral/gpio/cy_gpio.h **** #define CY_SIO_VREF_1_2V                       (0x01UL) /**< Vref from internal 1.2V reference */
 499:Generated_Source\PSoC6\pdl\drivers/peripheral/gpio/cy_gpio.h **** #define CY_SIO_VREF_AMUX_A                     (0x02UL) /**< Vref from AMUXBUS_A */
 500:Generated_Source\PSoC6\pdl\drivers/peripheral/gpio/cy_gpio.h **** #define CY_SIO_VREF_AMUX_B                     (0x03UL) /**< Vref from AMUXBUS_B */
 501:Generated_Source\PSoC6\pdl\drivers/peripheral/gpio/cy_gpio.h **** /** \} */
 502:Generated_Source\PSoC6\pdl\drivers/peripheral/gpio/cy_gpio.h **** 
 503:Generated_Source\PSoC6\pdl\drivers/peripheral/gpio/cy_gpio.h **** /**
 504:Generated_Source\PSoC6\pdl\drivers/peripheral/gpio/cy_gpio.h **** * \defgroup group_gpio_sioVoh Regulated output voltage level (Voh) and input buffer trip-point of a
 505:Generated_Source\PSoC6\pdl\drivers/peripheral/gpio/cy_gpio.h **** * \{
 506:Generated_Source\PSoC6\pdl\drivers/peripheral/gpio/cy_gpio.h **** * Constants to be used for setting the Voh and input buffer trip-point of an SIO pair
 507:Generated_Source\PSoC6\pdl\drivers/peripheral/gpio/cy_gpio.h **** */
 508:Generated_Source\PSoC6\pdl\drivers/peripheral/gpio/cy_gpio.h **** #define CY_SIO_VOH_1_00                        (0x00UL) /**< Voh = 1 x Reference */
 509:Generated_Source\PSoC6\pdl\drivers/peripheral/gpio/cy_gpio.h **** #define CY_SIO_VOH_1_25                        (0x01UL) /**< Voh = 1.25 x Reference */
 510:Generated_Source\PSoC6\pdl\drivers/peripheral/gpio/cy_gpio.h **** #define CY_SIO_VOH_1_49                        (0x02UL) /**< Voh = 1.49 x Reference */
 511:Generated_Source\PSoC6\pdl\drivers/peripheral/gpio/cy_gpio.h **** #define CY_SIO_VOH_1_67                        (0x03UL) /**< Voh = 1.67 x Reference */
 512:Generated_Source\PSoC6\pdl\drivers/peripheral/gpio/cy_gpio.h **** #define CY_SIO_VOH_2_08                        (0x04UL) /**< Voh = 2.08 x Reference */
 513:Generated_Source\PSoC6\pdl\drivers/peripheral/gpio/cy_gpio.h **** #define CY_SIO_VOH_2_50                        (0x05UL) /**< Voh = 2.50 x Reference */
 514:Generated_Source\PSoC6\pdl\drivers/peripheral/gpio/cy_gpio.h **** #define CY_SIO_VOH_2_78                        (0x06UL) /**< Voh = 2.78 x Reference */
 515:Generated_Source\PSoC6\pdl\drivers/peripheral/gpio/cy_gpio.h **** #define CY_SIO_VOH_4_16                        (0x07UL) /**< Voh = 4.16 x Reference */
 516:Generated_Source\PSoC6\pdl\drivers/peripheral/gpio/cy_gpio.h **** /** \} */
 517:Generated_Source\PSoC6\pdl\drivers/peripheral/gpio/cy_gpio.h **** 
 518:Generated_Source\PSoC6\pdl\drivers/peripheral/gpio/cy_gpio.h **** /** \} group_gpio_macros */
 519:Generated_Source\PSoC6\pdl\drivers/peripheral/gpio/cy_gpio.h **** 
 520:Generated_Source\PSoC6\pdl\drivers/peripheral/gpio/cy_gpio.h **** /***************************************
 521:Generated_Source\PSoC6\pdl\drivers/peripheral/gpio/cy_gpio.h **** *        Function Prototypes
 522:Generated_Source\PSoC6\pdl\drivers/peripheral/gpio/cy_gpio.h **** ***************************************/
 523:Generated_Source\PSoC6\pdl\drivers/peripheral/gpio/cy_gpio.h **** 
 524:Generated_Source\PSoC6\pdl\drivers/peripheral/gpio/cy_gpio.h **** /**
 525:Generated_Source\PSoC6\pdl\drivers/peripheral/gpio/cy_gpio.h **** * \addtogroup group_gpio_functions
 526:Generated_Source\PSoC6\pdl\drivers/peripheral/gpio/cy_gpio.h **** * \{
 527:Generated_Source\PSoC6\pdl\drivers/peripheral/gpio/cy_gpio.h **** */
 528:Generated_Source\PSoC6\pdl\drivers/peripheral/gpio/cy_gpio.h **** 
 529:Generated_Source\PSoC6\pdl\drivers/peripheral/gpio/cy_gpio.h **** /**
 530:Generated_Source\PSoC6\pdl\drivers/peripheral/gpio/cy_gpio.h **** * \addtogroup group_gpio_functions_init
 531:Generated_Source\PSoC6\pdl\drivers/peripheral/gpio/cy_gpio.h **** * \{
 532:Generated_Source\PSoC6\pdl\drivers/peripheral/gpio/cy_gpio.h **** */
 533:Generated_Source\PSoC6\pdl\drivers/peripheral/gpio/cy_gpio.h **** 
 534:Generated_Source\PSoC6\pdl\drivers/peripheral/gpio/cy_gpio.h **** cy_en_gpio_status_t Cy_GPIO_Pin_Init(GPIO_PRT_Type* base, uint32_t pinNum, const cy_stc_gpio_pin_co
 535:Generated_Source\PSoC6\pdl\drivers/peripheral/gpio/cy_gpio.h **** cy_en_gpio_status_t Cy_GPIO_Port_Init(GPIO_PRT_Type* base, const cy_stc_gpio_prt_config_t *config);
 536:Generated_Source\PSoC6\pdl\drivers/peripheral/gpio/cy_gpio.h **** void Cy_GPIO_Pin_FastInit(GPIO_PRT_Type* base, uint32_t pinNum, uint32_t driveMode, uint32_t outVal
 537:Generated_Source\PSoC6\pdl\drivers/peripheral/gpio/cy_gpio.h **** void Cy_GPIO_Port_Deinit(GPIO_PRT_Type* base);
 538:Generated_Source\PSoC6\pdl\drivers/peripheral/gpio/cy_gpio.h **** __STATIC_INLINE void Cy_GPIO_SetHSIOM(GPIO_PRT_Type* base, uint32_t pinNum, en_hsiom_sel_t value);
 539:Generated_Source\PSoC6\pdl\drivers/peripheral/gpio/cy_gpio.h **** __STATIC_INLINE en_hsiom_sel_t Cy_GPIO_GetHSIOM(GPIO_PRT_Type* base, uint32_t pinNum);
 540:Generated_Source\PSoC6\pdl\drivers/peripheral/gpio/cy_gpio.h **** __STATIC_INLINE GPIO_PRT_Type* Cy_GPIO_PortToAddr(uint32_t portNum);
 541:Generated_Source\PSoC6\pdl\drivers/peripheral/gpio/cy_gpio.h **** 
 542:Generated_Source\PSoC6\pdl\drivers/peripheral/gpio/cy_gpio.h **** /** \} group_gpio_functions_init */
 543:Generated_Source\PSoC6\pdl\drivers/peripheral/gpio/cy_gpio.h **** 
 544:Generated_Source\PSoC6\pdl\drivers/peripheral/gpio/cy_gpio.h **** /**
 545:Generated_Source\PSoC6\pdl\drivers/peripheral/gpio/cy_gpio.h **** * \addtogroup group_gpio_functions_gpio
 546:Generated_Source\PSoC6\pdl\drivers/peripheral/gpio/cy_gpio.h **** * \{
 547:Generated_Source\PSoC6\pdl\drivers/peripheral/gpio/cy_gpio.h **** */
 548:Generated_Source\PSoC6\pdl\drivers/peripheral/gpio/cy_gpio.h **** 
 549:Generated_Source\PSoC6\pdl\drivers/peripheral/gpio/cy_gpio.h **** void Cy_GPIO_SetAmuxSplit(cy_en_amux_split_t switchCtrl, cy_en_gpio_amuxconnect_t amuxConnect, cy_e
 550:Generated_Source\PSoC6\pdl\drivers/peripheral/gpio/cy_gpio.h **** cy_en_gpio_amuxconnect_t Cy_GPIO_GetAmuxSplit(cy_en_amux_split_t switchCtrl, cy_en_gpio_amuxselect_
 551:Generated_Source\PSoC6\pdl\drivers/peripheral/gpio/cy_gpio.h **** 
 552:Generated_Source\PSoC6\pdl\drivers/peripheral/gpio/cy_gpio.h **** __STATIC_INLINE uint32_t Cy_GPIO_Read(GPIO_PRT_Type* base, uint32_t pinNum);
 553:Generated_Source\PSoC6\pdl\drivers/peripheral/gpio/cy_gpio.h **** __STATIC_INLINE void Cy_GPIO_Write(GPIO_PRT_Type* base, uint32_t pinNum, uint32_t value);
 554:Generated_Source\PSoC6\pdl\drivers/peripheral/gpio/cy_gpio.h **** __STATIC_INLINE uint32_t Cy_GPIO_ReadOut(GPIO_PRT_Type* base, uint32_t pinNum);
ARM GAS  C:\Users\louis\AppData\Local\Temp\ccj8Y2ua.s 			page 54


 555:Generated_Source\PSoC6\pdl\drivers/peripheral/gpio/cy_gpio.h **** __STATIC_INLINE void Cy_GPIO_Set(GPIO_PRT_Type* base, uint32_t pinNum);
 556:Generated_Source\PSoC6\pdl\drivers/peripheral/gpio/cy_gpio.h **** __STATIC_INLINE void Cy_GPIO_Clr(GPIO_PRT_Type* base, uint32_t pinNum);
 557:Generated_Source\PSoC6\pdl\drivers/peripheral/gpio/cy_gpio.h **** __STATIC_INLINE void Cy_GPIO_Inv(GPIO_PRT_Type* base, uint32_t pinNum);
 558:Generated_Source\PSoC6\pdl\drivers/peripheral/gpio/cy_gpio.h **** __STATIC_INLINE void Cy_GPIO_SetDrivemode(GPIO_PRT_Type* base, uint32_t pinNum, uint32_t value);
 559:Generated_Source\PSoC6\pdl\drivers/peripheral/gpio/cy_gpio.h **** __STATIC_INLINE uint32_t Cy_GPIO_GetDrivemode(GPIO_PRT_Type* base, uint32_t pinNum);
 560:Generated_Source\PSoC6\pdl\drivers/peripheral/gpio/cy_gpio.h **** __STATIC_INLINE void Cy_GPIO_SetVtrip(GPIO_PRT_Type* base, uint32_t pinNum, uint32_t value);
 561:Generated_Source\PSoC6\pdl\drivers/peripheral/gpio/cy_gpio.h **** __STATIC_INLINE uint32_t Cy_GPIO_GetVtrip(GPIO_PRT_Type* base, uint32_t pinNum);
 562:Generated_Source\PSoC6\pdl\drivers/peripheral/gpio/cy_gpio.h **** __STATIC_INLINE void Cy_GPIO_SetSlewRate(GPIO_PRT_Type* base, uint32_t pinNum, uint32_t value);
 563:Generated_Source\PSoC6\pdl\drivers/peripheral/gpio/cy_gpio.h **** __STATIC_INLINE uint32_t Cy_GPIO_GetSlewRate(GPIO_PRT_Type* base, uint32_t pinNum);
 564:Generated_Source\PSoC6\pdl\drivers/peripheral/gpio/cy_gpio.h **** __STATIC_INLINE void Cy_GPIO_SetDriveSel(GPIO_PRT_Type* base, uint32_t pinNum, uint32_t value);
 565:Generated_Source\PSoC6\pdl\drivers/peripheral/gpio/cy_gpio.h **** __STATIC_INLINE uint32_t Cy_GPIO_GetDriveSel(GPIO_PRT_Type* base, uint32_t pinNum);
 566:Generated_Source\PSoC6\pdl\drivers/peripheral/gpio/cy_gpio.h **** 
 567:Generated_Source\PSoC6\pdl\drivers/peripheral/gpio/cy_gpio.h **** /** \} group_gpio_functions_gpio */
 568:Generated_Source\PSoC6\pdl\drivers/peripheral/gpio/cy_gpio.h **** 
 569:Generated_Source\PSoC6\pdl\drivers/peripheral/gpio/cy_gpio.h **** /**
 570:Generated_Source\PSoC6\pdl\drivers/peripheral/gpio/cy_gpio.h **** * \addtogroup group_gpio_functions_sio
 571:Generated_Source\PSoC6\pdl\drivers/peripheral/gpio/cy_gpio.h **** * \{
 572:Generated_Source\PSoC6\pdl\drivers/peripheral/gpio/cy_gpio.h **** */
 573:Generated_Source\PSoC6\pdl\drivers/peripheral/gpio/cy_gpio.h **** 
 574:Generated_Source\PSoC6\pdl\drivers/peripheral/gpio/cy_gpio.h **** __STATIC_INLINE void Cy_GPIO_SetVregEn(GPIO_PRT_Type* base, uint32_t pinNum, uint32_t value);
 575:Generated_Source\PSoC6\pdl\drivers/peripheral/gpio/cy_gpio.h **** __STATIC_INLINE uint32_t Cy_GPIO_GetVregEn(GPIO_PRT_Type* base, uint32_t pinNum);
 576:Generated_Source\PSoC6\pdl\drivers/peripheral/gpio/cy_gpio.h **** __STATIC_INLINE void Cy_GPIO_SetIbufMode(GPIO_PRT_Type* base, uint32_t pinNum, uint32_t value);
 577:Generated_Source\PSoC6\pdl\drivers/peripheral/gpio/cy_gpio.h **** __STATIC_INLINE uint32_t Cy_GPIO_GetIbufMode(GPIO_PRT_Type* base, uint32_t pinNum);
 578:Generated_Source\PSoC6\pdl\drivers/peripheral/gpio/cy_gpio.h **** __STATIC_INLINE void Cy_GPIO_SetVtripSel(GPIO_PRT_Type* base, uint32_t pinNum, uint32_t value);
 579:Generated_Source\PSoC6\pdl\drivers/peripheral/gpio/cy_gpio.h **** __STATIC_INLINE uint32_t Cy_GPIO_GetVtripSel(GPIO_PRT_Type* base, uint32_t pinNum);
 580:Generated_Source\PSoC6\pdl\drivers/peripheral/gpio/cy_gpio.h **** __STATIC_INLINE void Cy_GPIO_SetVrefSel(GPIO_PRT_Type* base, uint32_t pinNum, uint32_t value);
 581:Generated_Source\PSoC6\pdl\drivers/peripheral/gpio/cy_gpio.h **** __STATIC_INLINE uint32_t Cy_GPIO_GetVrefSel(GPIO_PRT_Type* base, uint32_t pinNum);
 582:Generated_Source\PSoC6\pdl\drivers/peripheral/gpio/cy_gpio.h **** __STATIC_INLINE void Cy_GPIO_SetVohSel(GPIO_PRT_Type* base, uint32_t pinNum, uint32_t value);
 583:Generated_Source\PSoC6\pdl\drivers/peripheral/gpio/cy_gpio.h **** __STATIC_INLINE uint32_t Cy_GPIO_GetVohSel(GPIO_PRT_Type* base, uint32_t pinNum);
 584:Generated_Source\PSoC6\pdl\drivers/peripheral/gpio/cy_gpio.h **** 
 585:Generated_Source\PSoC6\pdl\drivers/peripheral/gpio/cy_gpio.h **** /** \} group_gpio_functions_sio */
 586:Generated_Source\PSoC6\pdl\drivers/peripheral/gpio/cy_gpio.h **** 
 587:Generated_Source\PSoC6\pdl\drivers/peripheral/gpio/cy_gpio.h **** /**
 588:Generated_Source\PSoC6\pdl\drivers/peripheral/gpio/cy_gpio.h **** * \addtogroup group_gpio_functions_interrupt
 589:Generated_Source\PSoC6\pdl\drivers/peripheral/gpio/cy_gpio.h **** * \{
 590:Generated_Source\PSoC6\pdl\drivers/peripheral/gpio/cy_gpio.h **** */
 591:Generated_Source\PSoC6\pdl\drivers/peripheral/gpio/cy_gpio.h **** 
 592:Generated_Source\PSoC6\pdl\drivers/peripheral/gpio/cy_gpio.h **** __STATIC_INLINE uint32_t Cy_GPIO_GetInterruptStatus(GPIO_PRT_Type* base, uint32_t pinNum);
 593:Generated_Source\PSoC6\pdl\drivers/peripheral/gpio/cy_gpio.h **** __STATIC_INLINE void Cy_GPIO_ClearInterrupt(GPIO_PRT_Type* base, uint32_t pinNum);
 594:Generated_Source\PSoC6\pdl\drivers/peripheral/gpio/cy_gpio.h **** __STATIC_INLINE void Cy_GPIO_SetInterruptMask(GPIO_PRT_Type* base, uint32_t pinNum, uint32_t value)
 595:Generated_Source\PSoC6\pdl\drivers/peripheral/gpio/cy_gpio.h **** __STATIC_INLINE uint32_t Cy_GPIO_GetInterruptMask(GPIO_PRT_Type* base, uint32_t pinNum);
 596:Generated_Source\PSoC6\pdl\drivers/peripheral/gpio/cy_gpio.h **** __STATIC_INLINE uint32_t Cy_GPIO_GetInterruptStatusMasked(GPIO_PRT_Type* base, uint32_t pinNum);
 597:Generated_Source\PSoC6\pdl\drivers/peripheral/gpio/cy_gpio.h **** __STATIC_INLINE void Cy_GPIO_SetSwInterrupt(GPIO_PRT_Type* base, uint32_t pinNum);
 598:Generated_Source\PSoC6\pdl\drivers/peripheral/gpio/cy_gpio.h **** __STATIC_INLINE void Cy_GPIO_SetInterruptEdge(GPIO_PRT_Type* base, uint32_t pinNum, uint32_t value)
 599:Generated_Source\PSoC6\pdl\drivers/peripheral/gpio/cy_gpio.h **** __STATIC_INLINE uint32_t Cy_GPIO_GetInterruptEdge(GPIO_PRT_Type* base, uint32_t pinNum);
 600:Generated_Source\PSoC6\pdl\drivers/peripheral/gpio/cy_gpio.h **** __STATIC_INLINE void Cy_GPIO_SetFilter(GPIO_PRT_Type* base, uint32_t value);
 601:Generated_Source\PSoC6\pdl\drivers/peripheral/gpio/cy_gpio.h **** __STATIC_INLINE uint32_t Cy_GPIO_GetFilter(GPIO_PRT_Type* base);
 602:Generated_Source\PSoC6\pdl\drivers/peripheral/gpio/cy_gpio.h **** 
 603:Generated_Source\PSoC6\pdl\drivers/peripheral/gpio/cy_gpio.h **** __STATIC_INLINE uint32_t Cy_GPIO_GetInterruptCause0(void);
 604:Generated_Source\PSoC6\pdl\drivers/peripheral/gpio/cy_gpio.h **** __STATIC_INLINE uint32_t Cy_GPIO_GetInterruptCause1(void);
 605:Generated_Source\PSoC6\pdl\drivers/peripheral/gpio/cy_gpio.h **** __STATIC_INLINE uint32_t Cy_GPIO_GetInterruptCause2(void);
 606:Generated_Source\PSoC6\pdl\drivers/peripheral/gpio/cy_gpio.h **** __STATIC_INLINE uint32_t Cy_GPIO_GetInterruptCause3(void);
 607:Generated_Source\PSoC6\pdl\drivers/peripheral/gpio/cy_gpio.h **** 
 608:Generated_Source\PSoC6\pdl\drivers/peripheral/gpio/cy_gpio.h **** /** \} group_gpio_functions_interrupt */
 609:Generated_Source\PSoC6\pdl\drivers/peripheral/gpio/cy_gpio.h **** 
 610:Generated_Source\PSoC6\pdl\drivers/peripheral/gpio/cy_gpio.h **** 
 611:Generated_Source\PSoC6\pdl\drivers/peripheral/gpio/cy_gpio.h **** /**
ARM GAS  C:\Users\louis\AppData\Local\Temp\ccj8Y2ua.s 			page 55


 612:Generated_Source\PSoC6\pdl\drivers/peripheral/gpio/cy_gpio.h **** * \addtogroup group_gpio_functions_init
 613:Generated_Source\PSoC6\pdl\drivers/peripheral/gpio/cy_gpio.h **** * \{
 614:Generated_Source\PSoC6\pdl\drivers/peripheral/gpio/cy_gpio.h **** */
 615:Generated_Source\PSoC6\pdl\drivers/peripheral/gpio/cy_gpio.h **** 
 616:Generated_Source\PSoC6\pdl\drivers/peripheral/gpio/cy_gpio.h **** /*******************************************************************************
 617:Generated_Source\PSoC6\pdl\drivers/peripheral/gpio/cy_gpio.h **** * Function Name: Cy_GPIO_SetHSIOM
 618:Generated_Source\PSoC6\pdl\drivers/peripheral/gpio/cy_gpio.h **** ****************************************************************************//**
 619:Generated_Source\PSoC6\pdl\drivers/peripheral/gpio/cy_gpio.h **** *
 620:Generated_Source\PSoC6\pdl\drivers/peripheral/gpio/cy_gpio.h **** * Configures the HSIOM connection to the pin.
 621:Generated_Source\PSoC6\pdl\drivers/peripheral/gpio/cy_gpio.h **** *
 622:Generated_Source\PSoC6\pdl\drivers/peripheral/gpio/cy_gpio.h **** * Connects the specified High-Speed Input Output Multiplexer (HSIOM) selection
 623:Generated_Source\PSoC6\pdl\drivers/peripheral/gpio/cy_gpio.h **** * to the pin.
 624:Generated_Source\PSoC6\pdl\drivers/peripheral/gpio/cy_gpio.h **** *
 625:Generated_Source\PSoC6\pdl\drivers/peripheral/gpio/cy_gpio.h **** * \param base
 626:Generated_Source\PSoC6\pdl\drivers/peripheral/gpio/cy_gpio.h **** * Pointer to the pin's port register base address
 627:Generated_Source\PSoC6\pdl\drivers/peripheral/gpio/cy_gpio.h **** *
 628:Generated_Source\PSoC6\pdl\drivers/peripheral/gpio/cy_gpio.h **** * \param pinNum
 629:Generated_Source\PSoC6\pdl\drivers/peripheral/gpio/cy_gpio.h **** * Position of the pin bit-field within the port register
 630:Generated_Source\PSoC6\pdl\drivers/peripheral/gpio/cy_gpio.h **** *
 631:Generated_Source\PSoC6\pdl\drivers/peripheral/gpio/cy_gpio.h **** * \param value
 632:Generated_Source\PSoC6\pdl\drivers/peripheral/gpio/cy_gpio.h **** * HSIOM input selection
 633:Generated_Source\PSoC6\pdl\drivers/peripheral/gpio/cy_gpio.h **** *
 634:Generated_Source\PSoC6\pdl\drivers/peripheral/gpio/cy_gpio.h **** * \note 
 635:Generated_Source\PSoC6\pdl\drivers/peripheral/gpio/cy_gpio.h **** * This function modifies a port register in a read-modify-write operation. It is
 636:Generated_Source\PSoC6\pdl\drivers/peripheral/gpio/cy_gpio.h **** * not thread safe as the resource is shared among multiple pins on a port.
 637:Generated_Source\PSoC6\pdl\drivers/peripheral/gpio/cy_gpio.h **** *
 638:Generated_Source\PSoC6\pdl\drivers/peripheral/gpio/cy_gpio.h **** * \funcusage
 639:Generated_Source\PSoC6\pdl\drivers/peripheral/gpio/cy_gpio.h **** * \snippet gpio/gpio_v1_10_sut_01.cydsn/main_cm4.c snippet_Cy_GPIO_SetHSIOM
 640:Generated_Source\PSoC6\pdl\drivers/peripheral/gpio/cy_gpio.h **** *
 641:Generated_Source\PSoC6\pdl\drivers/peripheral/gpio/cy_gpio.h **** *******************************************************************************/
 642:Generated_Source\PSoC6\pdl\drivers/peripheral/gpio/cy_gpio.h **** __STATIC_INLINE void Cy_GPIO_SetHSIOM(GPIO_PRT_Type* base, uint32_t pinNum, en_hsiom_sel_t value)
 643:Generated_Source\PSoC6\pdl\drivers/peripheral/gpio/cy_gpio.h **** {
 644:Generated_Source\PSoC6\pdl\drivers/peripheral/gpio/cy_gpio.h ****     uint32_t portNum;
 645:Generated_Source\PSoC6\pdl\drivers/peripheral/gpio/cy_gpio.h ****     uint32_t tempReg;
 646:Generated_Source\PSoC6\pdl\drivers/peripheral/gpio/cy_gpio.h ****     HSIOM_PRT_V1_Type* portAddrHSIOM;
 647:Generated_Source\PSoC6\pdl\drivers/peripheral/gpio/cy_gpio.h **** 
 648:Generated_Source\PSoC6\pdl\drivers/peripheral/gpio/cy_gpio.h ****     CY_ASSERT_L2(CY_GPIO_IS_PIN_VALID(pinNum));
 649:Generated_Source\PSoC6\pdl\drivers/peripheral/gpio/cy_gpio.h ****     CY_ASSERT_L2(CY_GPIO_IS_HSIOM_VALID(value));
 650:Generated_Source\PSoC6\pdl\drivers/peripheral/gpio/cy_gpio.h **** 
 651:Generated_Source\PSoC6\pdl\drivers/peripheral/gpio/cy_gpio.h ****     portNum = ((uint32_t)(base) - CY_GPIO_BASE) / GPIO_PRT_SECTION_SIZE;
 652:Generated_Source\PSoC6\pdl\drivers/peripheral/gpio/cy_gpio.h ****     portAddrHSIOM = (HSIOM_PRT_V1_Type*)(CY_HSIOM_BASE + (HSIOM_PRT_SECTION_SIZE * portNum));
 653:Generated_Source\PSoC6\pdl\drivers/peripheral/gpio/cy_gpio.h **** 
 654:Generated_Source\PSoC6\pdl\drivers/peripheral/gpio/cy_gpio.h ****     if(pinNum < CY_GPIO_PRT_HALF)
 655:Generated_Source\PSoC6\pdl\drivers/peripheral/gpio/cy_gpio.h ****     {
 656:Generated_Source\PSoC6\pdl\drivers/peripheral/gpio/cy_gpio.h ****         tempReg = HSIOM_PRT_PORT_SEL0(portAddrHSIOM) & ~(CY_GPIO_HSIOM_MASK << (pinNum << CY_GPIO_H
 657:Generated_Source\PSoC6\pdl\drivers/peripheral/gpio/cy_gpio.h ****         HSIOM_PRT_PORT_SEL0(portAddrHSIOM) = tempReg | ((value & CY_GPIO_HSIOM_MASK) << (pinNum << 
 658:Generated_Source\PSoC6\pdl\drivers/peripheral/gpio/cy_gpio.h ****     }
 659:Generated_Source\PSoC6\pdl\drivers/peripheral/gpio/cy_gpio.h ****     else
 660:Generated_Source\PSoC6\pdl\drivers/peripheral/gpio/cy_gpio.h ****     {
 661:Generated_Source\PSoC6\pdl\drivers/peripheral/gpio/cy_gpio.h ****         pinNum -= CY_GPIO_PRT_HALF;
 662:Generated_Source\PSoC6\pdl\drivers/peripheral/gpio/cy_gpio.h ****         tempReg = HSIOM_PRT_PORT_SEL1(portAddrHSIOM) & ~(CY_GPIO_HSIOM_MASK << (pinNum << CY_GPIO_H
 663:Generated_Source\PSoC6\pdl\drivers/peripheral/gpio/cy_gpio.h ****         HSIOM_PRT_PORT_SEL1(portAddrHSIOM) = tempReg | ((value & CY_GPIO_HSIOM_MASK) << (pinNum << 
 664:Generated_Source\PSoC6\pdl\drivers/peripheral/gpio/cy_gpio.h ****     }
 665:Generated_Source\PSoC6\pdl\drivers/peripheral/gpio/cy_gpio.h **** }
 666:Generated_Source\PSoC6\pdl\drivers/peripheral/gpio/cy_gpio.h **** 
 667:Generated_Source\PSoC6\pdl\drivers/peripheral/gpio/cy_gpio.h **** 
 668:Generated_Source\PSoC6\pdl\drivers/peripheral/gpio/cy_gpio.h **** /*******************************************************************************
ARM GAS  C:\Users\louis\AppData\Local\Temp\ccj8Y2ua.s 			page 56


 669:Generated_Source\PSoC6\pdl\drivers/peripheral/gpio/cy_gpio.h **** * Function Name: Cy_GPIO_GetHSIOM
 670:Generated_Source\PSoC6\pdl\drivers/peripheral/gpio/cy_gpio.h **** ****************************************************************************//**
 671:Generated_Source\PSoC6\pdl\drivers/peripheral/gpio/cy_gpio.h **** *
 672:Generated_Source\PSoC6\pdl\drivers/peripheral/gpio/cy_gpio.h **** * Returns the current HSIOM multiplexer connection to the pin.
 673:Generated_Source\PSoC6\pdl\drivers/peripheral/gpio/cy_gpio.h **** *
 674:Generated_Source\PSoC6\pdl\drivers/peripheral/gpio/cy_gpio.h **** * \param base
 675:Generated_Source\PSoC6\pdl\drivers/peripheral/gpio/cy_gpio.h **** * Pointer to the pin's port register base address
 676:Generated_Source\PSoC6\pdl\drivers/peripheral/gpio/cy_gpio.h **** *
 677:Generated_Source\PSoC6\pdl\drivers/peripheral/gpio/cy_gpio.h **** * \param pinNum
 678:Generated_Source\PSoC6\pdl\drivers/peripheral/gpio/cy_gpio.h **** * Position of the pin bit-field within the port register
 679:Generated_Source\PSoC6\pdl\drivers/peripheral/gpio/cy_gpio.h **** *
 680:Generated_Source\PSoC6\pdl\drivers/peripheral/gpio/cy_gpio.h **** * \return
 681:Generated_Source\PSoC6\pdl\drivers/peripheral/gpio/cy_gpio.h **** * HSIOM input selection
 682:Generated_Source\PSoC6\pdl\drivers/peripheral/gpio/cy_gpio.h **** *
 683:Generated_Source\PSoC6\pdl\drivers/peripheral/gpio/cy_gpio.h **** * \funcusage
 684:Generated_Source\PSoC6\pdl\drivers/peripheral/gpio/cy_gpio.h **** * \snippet gpio/gpio_v1_10_sut_01.cydsn/main_cm4.c snippet_Cy_GPIO_SetHSIOM
 685:Generated_Source\PSoC6\pdl\drivers/peripheral/gpio/cy_gpio.h **** *
 686:Generated_Source\PSoC6\pdl\drivers/peripheral/gpio/cy_gpio.h **** *******************************************************************************/
 687:Generated_Source\PSoC6\pdl\drivers/peripheral/gpio/cy_gpio.h **** __STATIC_INLINE en_hsiom_sel_t Cy_GPIO_GetHSIOM(GPIO_PRT_Type* base, uint32_t pinNum)
 688:Generated_Source\PSoC6\pdl\drivers/peripheral/gpio/cy_gpio.h **** {
 689:Generated_Source\PSoC6\pdl\drivers/peripheral/gpio/cy_gpio.h ****     uint32_t returnValue;
 690:Generated_Source\PSoC6\pdl\drivers/peripheral/gpio/cy_gpio.h ****     uint32_t portNum;
 691:Generated_Source\PSoC6\pdl\drivers/peripheral/gpio/cy_gpio.h ****     HSIOM_PRT_V1_Type* portAddrHSIOM;
 692:Generated_Source\PSoC6\pdl\drivers/peripheral/gpio/cy_gpio.h ****     
 693:Generated_Source\PSoC6\pdl\drivers/peripheral/gpio/cy_gpio.h ****     CY_ASSERT_L2(CY_GPIO_IS_PIN_VALID(pinNum));
 694:Generated_Source\PSoC6\pdl\drivers/peripheral/gpio/cy_gpio.h **** 
 695:Generated_Source\PSoC6\pdl\drivers/peripheral/gpio/cy_gpio.h ****     portNum = ((uint32_t)(base) - CY_GPIO_BASE) / GPIO_PRT_SECTION_SIZE;
 696:Generated_Source\PSoC6\pdl\drivers/peripheral/gpio/cy_gpio.h ****     portAddrHSIOM = (HSIOM_PRT_V1_Type*)(CY_HSIOM_BASE + (HSIOM_PRT_SECTION_SIZE * portNum));
 697:Generated_Source\PSoC6\pdl\drivers/peripheral/gpio/cy_gpio.h **** 
 698:Generated_Source\PSoC6\pdl\drivers/peripheral/gpio/cy_gpio.h ****     if(pinNum < CY_GPIO_PRT_HALF)
 699:Generated_Source\PSoC6\pdl\drivers/peripheral/gpio/cy_gpio.h ****     {
 700:Generated_Source\PSoC6\pdl\drivers/peripheral/gpio/cy_gpio.h ****         returnValue = (HSIOM_PRT_PORT_SEL0(portAddrHSIOM) >> (pinNum << CY_GPIO_HSIOM_OFFSET)) & CY
 701:Generated_Source\PSoC6\pdl\drivers/peripheral/gpio/cy_gpio.h ****     }
 702:Generated_Source\PSoC6\pdl\drivers/peripheral/gpio/cy_gpio.h ****     else
 703:Generated_Source\PSoC6\pdl\drivers/peripheral/gpio/cy_gpio.h ****     {
 704:Generated_Source\PSoC6\pdl\drivers/peripheral/gpio/cy_gpio.h ****         pinNum -= CY_GPIO_PRT_HALF;
 705:Generated_Source\PSoC6\pdl\drivers/peripheral/gpio/cy_gpio.h ****         returnValue = (HSIOM_PRT_PORT_SEL1(portAddrHSIOM) >> (pinNum << CY_GPIO_HSIOM_OFFSET)) & CY
 706:Generated_Source\PSoC6\pdl\drivers/peripheral/gpio/cy_gpio.h ****     }
 707:Generated_Source\PSoC6\pdl\drivers/peripheral/gpio/cy_gpio.h **** 
 708:Generated_Source\PSoC6\pdl\drivers/peripheral/gpio/cy_gpio.h ****     return (en_hsiom_sel_t)returnValue;
 709:Generated_Source\PSoC6\pdl\drivers/peripheral/gpio/cy_gpio.h **** }
 710:Generated_Source\PSoC6\pdl\drivers/peripheral/gpio/cy_gpio.h **** 
 711:Generated_Source\PSoC6\pdl\drivers/peripheral/gpio/cy_gpio.h **** 
 712:Generated_Source\PSoC6\pdl\drivers/peripheral/gpio/cy_gpio.h **** /*******************************************************************************
 713:Generated_Source\PSoC6\pdl\drivers/peripheral/gpio/cy_gpio.h **** * Function Name: Cy_GPIO_PortToAddr
 714:Generated_Source\PSoC6\pdl\drivers/peripheral/gpio/cy_gpio.h **** ****************************************************************************//**
 715:Generated_Source\PSoC6\pdl\drivers/peripheral/gpio/cy_gpio.h **** *
 716:Generated_Source\PSoC6\pdl\drivers/peripheral/gpio/cy_gpio.h **** * Retrieves the port address based on the given port number.
 717:Generated_Source\PSoC6\pdl\drivers/peripheral/gpio/cy_gpio.h **** *
 718:Generated_Source\PSoC6\pdl\drivers/peripheral/gpio/cy_gpio.h **** * This is a helper function to calculate the port base address when given a port
 719:Generated_Source\PSoC6\pdl\drivers/peripheral/gpio/cy_gpio.h **** * number. It is to be used when pin access needs to be calculated at runtime.
 720:Generated_Source\PSoC6\pdl\drivers/peripheral/gpio/cy_gpio.h **** *
 721:Generated_Source\PSoC6\pdl\drivers/peripheral/gpio/cy_gpio.h **** * \param portNum
 722:Generated_Source\PSoC6\pdl\drivers/peripheral/gpio/cy_gpio.h **** * Port number
 723:Generated_Source\PSoC6\pdl\drivers/peripheral/gpio/cy_gpio.h **** *
 724:Generated_Source\PSoC6\pdl\drivers/peripheral/gpio/cy_gpio.h **** * \return
 725:Generated_Source\PSoC6\pdl\drivers/peripheral/gpio/cy_gpio.h **** * Base address of the port register structure
ARM GAS  C:\Users\louis\AppData\Local\Temp\ccj8Y2ua.s 			page 57


 726:Generated_Source\PSoC6\pdl\drivers/peripheral/gpio/cy_gpio.h **** *
 727:Generated_Source\PSoC6\pdl\drivers/peripheral/gpio/cy_gpio.h **** * \funcusage
 728:Generated_Source\PSoC6\pdl\drivers/peripheral/gpio/cy_gpio.h **** * \snippet gpio/gpio_v1_10_sut_01.cydsn/main_cm4.c snippet_Cy_GPIO_PortToAddr
 729:Generated_Source\PSoC6\pdl\drivers/peripheral/gpio/cy_gpio.h **** *
 730:Generated_Source\PSoC6\pdl\drivers/peripheral/gpio/cy_gpio.h **** *******************************************************************************/
 731:Generated_Source\PSoC6\pdl\drivers/peripheral/gpio/cy_gpio.h **** __STATIC_INLINE GPIO_PRT_Type* Cy_GPIO_PortToAddr(uint32_t portNum)
 732:Generated_Source\PSoC6\pdl\drivers/peripheral/gpio/cy_gpio.h **** {
 733:Generated_Source\PSoC6\pdl\drivers/peripheral/gpio/cy_gpio.h ****     GPIO_PRT_Type* portBase;
 734:Generated_Source\PSoC6\pdl\drivers/peripheral/gpio/cy_gpio.h ****     
 735:Generated_Source\PSoC6\pdl\drivers/peripheral/gpio/cy_gpio.h ****     if(portNum < (uint32_t)IOSS_GPIO_GPIO_PORT_NR)
 736:Generated_Source\PSoC6\pdl\drivers/peripheral/gpio/cy_gpio.h ****     {
 737:Generated_Source\PSoC6\pdl\drivers/peripheral/gpio/cy_gpio.h ****         portBase = (GPIO_PRT_Type *)(CY_GPIO_BASE + (GPIO_PRT_SECTION_SIZE * portNum));
 738:Generated_Source\PSoC6\pdl\drivers/peripheral/gpio/cy_gpio.h ****     }
 739:Generated_Source\PSoC6\pdl\drivers/peripheral/gpio/cy_gpio.h ****     else
 740:Generated_Source\PSoC6\pdl\drivers/peripheral/gpio/cy_gpio.h ****     {
 741:Generated_Source\PSoC6\pdl\drivers/peripheral/gpio/cy_gpio.h ****         /* Error: Return default base address */
 742:Generated_Source\PSoC6\pdl\drivers/peripheral/gpio/cy_gpio.h ****         portBase = (GPIO_PRT_Type *)(CY_GPIO_BASE);
 743:Generated_Source\PSoC6\pdl\drivers/peripheral/gpio/cy_gpio.h ****     }
 744:Generated_Source\PSoC6\pdl\drivers/peripheral/gpio/cy_gpio.h **** 
 745:Generated_Source\PSoC6\pdl\drivers/peripheral/gpio/cy_gpio.h ****     return (portBase);
 746:Generated_Source\PSoC6\pdl\drivers/peripheral/gpio/cy_gpio.h **** }
 747:Generated_Source\PSoC6\pdl\drivers/peripheral/gpio/cy_gpio.h **** 
 748:Generated_Source\PSoC6\pdl\drivers/peripheral/gpio/cy_gpio.h **** /** \} group_gpio_functions_init */
 749:Generated_Source\PSoC6\pdl\drivers/peripheral/gpio/cy_gpio.h **** 
 750:Generated_Source\PSoC6\pdl\drivers/peripheral/gpio/cy_gpio.h **** /**
 751:Generated_Source\PSoC6\pdl\drivers/peripheral/gpio/cy_gpio.h **** * \addtogroup group_gpio_functions_gpio
 752:Generated_Source\PSoC6\pdl\drivers/peripheral/gpio/cy_gpio.h **** * \{
 753:Generated_Source\PSoC6\pdl\drivers/peripheral/gpio/cy_gpio.h **** */
 754:Generated_Source\PSoC6\pdl\drivers/peripheral/gpio/cy_gpio.h **** 
 755:Generated_Source\PSoC6\pdl\drivers/peripheral/gpio/cy_gpio.h **** /*******************************************************************************
 756:Generated_Source\PSoC6\pdl\drivers/peripheral/gpio/cy_gpio.h **** * Function Name: Cy_GPIO_Read
 757:Generated_Source\PSoC6\pdl\drivers/peripheral/gpio/cy_gpio.h **** ****************************************************************************//**
 758:Generated_Source\PSoC6\pdl\drivers/peripheral/gpio/cy_gpio.h **** *
 759:Generated_Source\PSoC6\pdl\drivers/peripheral/gpio/cy_gpio.h **** * Reads the current logic level on the input buffer of the pin.
 760:Generated_Source\PSoC6\pdl\drivers/peripheral/gpio/cy_gpio.h **** *
 761:Generated_Source\PSoC6\pdl\drivers/peripheral/gpio/cy_gpio.h **** * \param base
 762:Generated_Source\PSoC6\pdl\drivers/peripheral/gpio/cy_gpio.h **** * Pointer to the pin's port register base address
 763:Generated_Source\PSoC6\pdl\drivers/peripheral/gpio/cy_gpio.h **** *
 764:Generated_Source\PSoC6\pdl\drivers/peripheral/gpio/cy_gpio.h **** * \param pinNum
 765:Generated_Source\PSoC6\pdl\drivers/peripheral/gpio/cy_gpio.h **** * Position of the pin bit-field within the port register.
 766:Generated_Source\PSoC6\pdl\drivers/peripheral/gpio/cy_gpio.h **** * Bit position 8 is the routed pin through the port glitch filter.
 767:Generated_Source\PSoC6\pdl\drivers/peripheral/gpio/cy_gpio.h **** *
 768:Generated_Source\PSoC6\pdl\drivers/peripheral/gpio/cy_gpio.h **** * \return
 769:Generated_Source\PSoC6\pdl\drivers/peripheral/gpio/cy_gpio.h **** * Logic level present on the pin
 770:Generated_Source\PSoC6\pdl\drivers/peripheral/gpio/cy_gpio.h **** *
 771:Generated_Source\PSoC6\pdl\drivers/peripheral/gpio/cy_gpio.h **** * \funcusage
 772:Generated_Source\PSoC6\pdl\drivers/peripheral/gpio/cy_gpio.h **** * \snippet gpio/gpio_v1_10_sut_01.cydsn/main_cm4.c snippet_Cy_GPIO_Read
 773:Generated_Source\PSoC6\pdl\drivers/peripheral/gpio/cy_gpio.h **** *
 774:Generated_Source\PSoC6\pdl\drivers/peripheral/gpio/cy_gpio.h **** *******************************************************************************/
 775:Generated_Source\PSoC6\pdl\drivers/peripheral/gpio/cy_gpio.h **** __STATIC_INLINE uint32_t Cy_GPIO_Read(GPIO_PRT_Type* base, uint32_t pinNum)
 776:Generated_Source\PSoC6\pdl\drivers/peripheral/gpio/cy_gpio.h **** {
 777:Generated_Source\PSoC6\pdl\drivers/peripheral/gpio/cy_gpio.h ****     CY_ASSERT_L2(CY_GPIO_IS_FILTER_PIN_VALID(pinNum));
 778:Generated_Source\PSoC6\pdl\drivers/peripheral/gpio/cy_gpio.h ****     
 779:Generated_Source\PSoC6\pdl\drivers/peripheral/gpio/cy_gpio.h ****     return (GPIO_PRT_IN(base) >> (pinNum)) & CY_GPIO_IN_MASK;
 780:Generated_Source\PSoC6\pdl\drivers/peripheral/gpio/cy_gpio.h **** }
 781:Generated_Source\PSoC6\pdl\drivers/peripheral/gpio/cy_gpio.h **** 
 782:Generated_Source\PSoC6\pdl\drivers/peripheral/gpio/cy_gpio.h **** 
ARM GAS  C:\Users\louis\AppData\Local\Temp\ccj8Y2ua.s 			page 58


 783:Generated_Source\PSoC6\pdl\drivers/peripheral/gpio/cy_gpio.h **** /*******************************************************************************
 784:Generated_Source\PSoC6\pdl\drivers/peripheral/gpio/cy_gpio.h **** * Function Name: Cy_GPIO_Write
 785:Generated_Source\PSoC6\pdl\drivers/peripheral/gpio/cy_gpio.h **** ****************************************************************************//**
 786:Generated_Source\PSoC6\pdl\drivers/peripheral/gpio/cy_gpio.h **** *
 787:Generated_Source\PSoC6\pdl\drivers/peripheral/gpio/cy_gpio.h **** * Write a logic 0 or logic 1 state to the output driver.
 788:Generated_Source\PSoC6\pdl\drivers/peripheral/gpio/cy_gpio.h **** *
 789:Generated_Source\PSoC6\pdl\drivers/peripheral/gpio/cy_gpio.h **** * This function should be used only for software driven pins. It does not have
 790:Generated_Source\PSoC6\pdl\drivers/peripheral/gpio/cy_gpio.h **** * any effect on peripheral driven pins.
 791:Generated_Source\PSoC6\pdl\drivers/peripheral/gpio/cy_gpio.h **** *
 792:Generated_Source\PSoC6\pdl\drivers/peripheral/gpio/cy_gpio.h **** * \param base
 793:Generated_Source\PSoC6\pdl\drivers/peripheral/gpio/cy_gpio.h **** * Pointer to the pin's port register base address
 794:Generated_Source\PSoC6\pdl\drivers/peripheral/gpio/cy_gpio.h **** *
 795:Generated_Source\PSoC6\pdl\drivers/peripheral/gpio/cy_gpio.h **** * \param pinNum
 796:Generated_Source\PSoC6\pdl\drivers/peripheral/gpio/cy_gpio.h **** * Position of the pin bit-field within the port register
 797:Generated_Source\PSoC6\pdl\drivers/peripheral/gpio/cy_gpio.h **** *
 798:Generated_Source\PSoC6\pdl\drivers/peripheral/gpio/cy_gpio.h **** * \param value
 799:Generated_Source\PSoC6\pdl\drivers/peripheral/gpio/cy_gpio.h **** * Logic level to drive out on the pin
 800:Generated_Source\PSoC6\pdl\drivers/peripheral/gpio/cy_gpio.h **** *
 801:Generated_Source\PSoC6\pdl\drivers/peripheral/gpio/cy_gpio.h **** * \funcusage
 802:Generated_Source\PSoC6\pdl\drivers/peripheral/gpio/cy_gpio.h **** * \snippet gpio/gpio_v1_10_sut_01.cydsn/main_cm4.c snippet_Cy_GPIO_Write
 803:Generated_Source\PSoC6\pdl\drivers/peripheral/gpio/cy_gpio.h **** *
 804:Generated_Source\PSoC6\pdl\drivers/peripheral/gpio/cy_gpio.h **** *******************************************************************************/
 805:Generated_Source\PSoC6\pdl\drivers/peripheral/gpio/cy_gpio.h **** __STATIC_INLINE void Cy_GPIO_Write(GPIO_PRT_Type* base, uint32_t pinNum, uint32_t value)
 806:Generated_Source\PSoC6\pdl\drivers/peripheral/gpio/cy_gpio.h **** {
 807:Generated_Source\PSoC6\pdl\drivers/peripheral/gpio/cy_gpio.h ****     CY_ASSERT_L2(CY_GPIO_IS_PIN_VALID(pinNum));
 808:Generated_Source\PSoC6\pdl\drivers/peripheral/gpio/cy_gpio.h ****     CY_ASSERT_L2(CY_GPIO_IS_VALUE_VALID(value));
 809:Generated_Source\PSoC6\pdl\drivers/peripheral/gpio/cy_gpio.h **** 
 810:Generated_Source\PSoC6\pdl\drivers/peripheral/gpio/cy_gpio.h ****     /* Thread-safe: Directly access the pin registers instead of base->OUT */
 811:Generated_Source\PSoC6\pdl\drivers/peripheral/gpio/cy_gpio.h ****     if(0UL == value)
 812:Generated_Source\PSoC6\pdl\drivers/peripheral/gpio/cy_gpio.h ****     {
 813:Generated_Source\PSoC6\pdl\drivers/peripheral/gpio/cy_gpio.h ****         GPIO_PRT_OUT_CLR(base) = CY_GPIO_OUT_MASK << pinNum;
 1282              		.loc 4 813 0 discriminator 1
 1283 007c 074D     		ldr	r5, .L50+4
 1284 007e 0226     		movs	r6, #2
 1285 0080 6E60     		str	r6, [r5, #4]
 1286              	.LVL205:
 1287              	.LBE44:
 1288              	.LBE43:
 577:main_cm4.c    ****     
 578:main_cm4.c    ****     for(;;)
 579:main_cm4.c    ****     {
 580:main_cm4.c    ****         /* Turn on the Green LED before page update */
 581:main_cm4.c    ****         Cy_GPIO_Write(GreenLED_PORT, GreenLED_NUM, 0);
 582:main_cm4.c    ****         
 583:main_cm4.c    ****         /* Using pageNumber as index, update the display with a demo screen
 584:main_cm4.c    ****             Following are the functions that are called in sequence 
 585:main_cm4.c    ****                 ShowFontSizesNormal()
 586:main_cm4.c    ****                 ShowFontSizesBold()
 587:main_cm4.c    ****                 ShowTextModes()
 588:main_cm4.c    ****                 ShowTextWrapAndOrientation()
 589:main_cm4.c    ****                 Show2DGraphics1()
 590:main_cm4.c    ****                 Show2DGraphics2()
 591:main_cm4.c    ****         */
 592:main_cm4.c    ****         (*demoPageArray[pageNumber])();
 1289              		.loc 1 592 0 discriminator 1
 1290 0082 074B     		ldr	r3, .L50+8
 1291 0084 53F82430 		ldr	r3, [r3, r4, lsl #2]
ARM GAS  C:\Users\louis\AppData\Local\Temp\ccj8Y2ua.s 			page 59


 1292 0088 9847     		blx	r3
 1293              	.LVL206:
 1294              	.LBB45:
 1295              	.LBB46:
 814:Generated_Source\PSoC6\pdl\drivers/peripheral/gpio/cy_gpio.h ****     }
 815:Generated_Source\PSoC6\pdl\drivers/peripheral/gpio/cy_gpio.h ****     else
 816:Generated_Source\PSoC6\pdl\drivers/peripheral/gpio/cy_gpio.h ****     {
 817:Generated_Source\PSoC6\pdl\drivers/peripheral/gpio/cy_gpio.h ****         GPIO_PRT_OUT_SET(base) = CY_GPIO_OUT_MASK << pinNum;
 1296              		.loc 4 817 0 discriminator 1
 1297 008a AE60     		str	r6, [r5, #8]
 1298              	.LVL207:
 1299              	.LBE46:
 1300              	.LBE45:
 593:main_cm4.c    ****         
 594:main_cm4.c    ****         /* Turn off the Greed LED after page update */
 595:main_cm4.c    ****         Cy_GPIO_Write(GreenLED_PORT, GreenLED_NUM, 1);
 596:main_cm4.c    ****         
 597:main_cm4.c    ****         /* Wait for a switch press event */
 598:main_cm4.c    ****         WaitforSwitchPressAndRelease();
 1301              		.loc 1 598 0 discriminator 1
 1302 008c FFF7FEFF 		bl	WaitforSwitchPressAndRelease
 1303              	.LVL208:
 599:main_cm4.c    ****         
 600:main_cm4.c    ****         /* Cycle through page numbers */
 601:main_cm4.c    ****         pageNumber = (pageNumber+1) % NUMBER_OF_DEMO_PAGES;
 1304              		.loc 1 601 0 discriminator 1
 1305 0090 0134     		adds	r4, r4, #1
 1306              	.LVL209:
 1307 0092 04F00304 		and	r4, r4, #3
 1308              	.LVL210:
 1309 0096 F1E7     		b	.L48
 1310              	.L51:
 1311              		.align	2
 1312              	.L50:
 1313 0098 00001D41 		.word	1092419584
 1314 009c 80003240 		.word	1077018752
 1315 00a0 00000000 		.word	.LANCHOR2
 1316              		.cfi_endproc
 1317              	.LFE690:
 1318              		.size	main, .-main
 1319              		.global	demoPageArray
 1320              		.global	imageBufferCache
 1321              		.section	.rodata
 1322              		.align	2
 1323              		.set	.LANCHOR1,. + 0
 1324              	.LC21:
 1325 0000 30010000 		.word	.LC0
 1326 0004 3C010000 		.word	.LC1
 1327 0008 50010000 		.word	.LC2
 1328 000c 60010000 		.word	.LC3
 1329 0010 7C010000 		.word	.LC4
 1330 0014 88010000 		.word	.LC5
 1331              		.data
 1332              		.align	2
 1333              		.set	.LANCHOR2,. + 0
 1334              		.type	demoPageArray, %object
 1335              		.size	demoPageArray, 16
ARM GAS  C:\Users\louis\AppData\Local\Temp\ccj8Y2ua.s 			page 60


 1336              	demoPageArray:
 1337 0000 00000000 		.word	TemperatureDisplay
 1338 0004 00000000 		.word	CampingActivity
 1339 0008 00000000 		.word	EggTimer
 1340 000c 00000000 		.word	GasSensor
 1341              		.section	.rodata.str1.4,"aMS",%progbits,1
 1342              		.align	2
 1343              	.LC7:
 1344 0000 5631203D 		.ascii	"V1 = %fv V2=%fv Vtot =%fv T=%fC T=%fF\015\012\000"
 1344      20256676 
 1344      2056323D 
 1344      25667620 
 1344      56746F74 
 1345              	.LC8:
 1346 0028 256700   		.ascii	"%g\000"
 1347 002b 00       		.space	1
 1348              	.LC9:
 1349 002c 43757272 		.ascii	"Current temperature\000"
 1349      656E7420 
 1349      74656D70 
 1349      65726174 
 1349      75726500 
 1350              	.LC10:
 1351 0040 64656772 		.ascii	"degrees\000"
 1351      65657300 
 1352              	.LC11:
 1353 0048 256600   		.ascii	"%f\000"
 1354 004b 00       		.space	1
 1355              	.LC12:
 1356 004c 596F7520 		.ascii	"You have entered: %s\000"
 1356      68617665 
 1356      20656E74 
 1356      65726564 
 1356      3A202573 
 1357 0061 000000   		.space	3
 1358              	.LC13:
 1359 0064 47617320 		.ascii	"Gas reading\000"
 1359      72656164 
 1359      696E6700 
 1360              	.LC14:
 1361 0070 00       		.ascii	"\000"
 1362 0071 000000   		.space	3
 1363              	.LC15:
 1364 0074 74657374 		.ascii	"test\000"
 1364      00
 1365 0079 000000   		.space	3
 1366              	.LC16:
 1367 007c 45676720 		.ascii	"Egg Timer\000"
 1367      54696D65 
 1367      7200
 1368 0086 0000     		.space	2
 1369              	.LC17:
 1370 0088 54696D65 		.ascii	"Timer started now\000"
 1370      72207374 
 1370      61727465 
 1370      64206E6F 
 1370      7700
ARM GAS  C:\Users\louis\AppData\Local\Temp\ccj8Y2ua.s 			page 61


 1371 009a 0000     		.space	2
 1372              	.LC18:
 1373 009c 256400   		.ascii	"%d\000"
 1374 009f 00       		.space	1
 1375              	.LC19:
 1376 00a0 5365636F 		.ascii	"Seconds Left\000"
 1376      6E647320 
 1376      4C656674 
 1376      00
 1377 00ad 000000   		.space	3
 1378              	.LC20:
 1379 00b0 3000     		.ascii	"0\000"
 1380 00b2 0000     		.space	2
 1381              	.LC22:
 1382 00b4 52616E64 		.ascii	"Random camping activity\000"
 1382      6F6D2063 
 1382      616D7069 
 1382      6E672061 
 1382      63746976 
 1383              	.LC23:
 1384 00cc 48617665 		.ascii	"Have fun!\000"
 1384      2066756E 
 1384      2100
 1385 00d6 0000     		.space	2
 1386              	.LC24:
 1387 00d8 43616D70 		.ascii	"Campanion\000"
 1387      616E696F 
 1387      6E00
 1388 00e2 0000     		.space	2
 1389              	.LC25:
 1390 00e4 596F7572 		.ascii	"Your Camping Buddy\000"
 1390      2043616D 
 1390      70696E67 
 1390      20427564 
 1390      647900
 1391 00f7 00       		.space	1
 1392              	.LC26:
 1393 00f8 50524553 		.ascii	"PRESS THE PUSH BUTTON\000"
 1393      53205448 
 1393      45205055 
 1393      53482042 
 1393      5554544F 
 1394 010e 0000     		.space	2
 1395              	.LC27:
 1396 0110 544F2053 		.ascii	"TO SCROLL THROUGH \000"
 1396      43524F4C 
 1396      4C205448 
 1396      524F5547 
 1396      482000
 1397 0123 00       		.space	1
 1398              	.LC28:
 1399 0124 54484520 		.ascii	"THE PAGES!\000"
 1399      50414745 
 1399      532100
 1400 012f 00       		.space	1
 1401              	.LC0:
 1402 0130 43617264 		.ascii	"Card Game\000"
ARM GAS  C:\Users\louis\AppData\Local\Temp\ccj8Y2ua.s 			page 62


 1402      2047616D 
 1402      6500
 1403 013a 0000     		.space	2
 1404              	.LC1:
 1405 013c 45617420 		.ascii	"Eat a boiled egg\000"
 1405      6120626F 
 1405      696C6564 
 1405      20656767 
 1405      00
 1406 014d 000000   		.space	3
 1407              	.LC2:
 1408 0150 73636176 		.ascii	"scavenger hunt\000"
 1408      656E6765 
 1408      72206875 
 1408      6E7400
 1409 015f 00       		.space	1
 1410              	.LC3:
 1411 0160 42726176 		.ascii	"Brave the campsite showers\000"
 1411      65207468 
 1411      65206361 
 1411      6D707369 
 1411      74652073 
 1412 017b 00       		.space	1
 1413              	.LC4:
 1414 017c 54616B65 		.ascii	"Take a walk\000"
 1414      20612077 
 1414      616C6B00 
 1415              	.LC5:
 1416 0188 506C6179 		.ascii	"Play i spy\000"
 1416      20692073 
 1416      707900
 1417              		.bss
 1418              		.align	2
 1419              		.set	.LANCHOR0,. + 0
 1420              		.type	imageBufferCache, %object
 1421              		.size	imageBufferCache, 5808
 1422              	imageBufferCache:
 1423 0000 00000000 		.space	5808
 1423      00000000 
 1423      00000000 
 1423      00000000 
 1423      00000000 
 1424              		.text
 1425              	.Letext0:
 1426              		.file 5 "c:\\program files (x86)\\cypress\\psoc creator\\4.4\\psoc creator\\import\\gnu\\arm\\5.4.
 1427              		.file 6 "c:\\program files (x86)\\cypress\\psoc creator\\4.4\\psoc creator\\import\\gnu\\arm\\5.4.
 1428              		.file 7 "Generated_Source\\PSoC6\\pdl\\devices/psoc6/include/ip/cyip_gpio.h"
 1429              		.file 8 "Generated_Source\\PSoC6\\pdl\\devices/psoc6/include/ip/cyip_tcpwm.h"
 1430              		.file 9 "Generated_Source\\PSoC6\\pdl\\devices/psoc6/include/ip/cyip_sar.h"
 1431              		.file 10 "Generated_Source\\PSoC6\\pdl\\devices/psoc6/include/psoc6_01_config.h"
 1432              		.file 11 "Generated_Source\\PSoC6\\pdl\\drivers/peripheral/device/cy_device.h"
 1433              		.file 12 "Generated_Source\\PSoC6\\pdl\\drivers/peripheral/syslib/cy_syslib.h"
 1434              		.file 13 "Generated_Source\\PSoC6\\pdl\\drivers/peripheral/sar/cy_sar.h"
 1435              		.file 14 "Generated_Source\\PSoC6\\pdl\\drivers/peripheral/scb/cy_scb_spi.h"
 1436              		.file 15 "Generated_Source\\PSoC6\\pdl\\drivers/peripheral/scb/cy_scb_uart.h"
 1437              		.file 16 "Generated_Source\\PSoC6\\pdl\\drivers/peripheral/tcpwm/cy_tcpwm_counter.h"
 1438              		.file 17 "Generated_Source\\PSoC6\\pdl\\drivers/peripheral/tcpwm/cy_tcpwm_pwm.h"
ARM GAS  C:\Users\louis\AppData\Local\Temp\ccj8Y2ua.s 			page 63


 1439              		.file 18 "Generated_Source\\PSoC6/ADC_1.h"
 1440              		.file 19 "Generated_Source\\PSoC6\\pdl\\middleware/emWin/code/include/LCD.h"
 1441              		.file 20 "Generated_Source\\PSoC6\\pdl\\middleware/emWin/code/include/GUI_Type.h"
 1442              		.file 21 ".\\eInk Library/pervasive_eink_hardware_driver.h"
 1443              		.file 22 ".\\eInk Library/cy_eink_library.h"
 1444              		.file 23 "Generated_Source\\PSoC6/PWM.h"
 1445              		.file 24 "Generated_Source\\PSoC6\\pdl\\cmsis/include/core_cm4.h"
 1446              		.file 25 "Generated_Source\\PSoC6/CY_EINK_SPIM.h"
 1447              		.file 26 "Generated_Source\\PSoC6/CY_EINK_Timer.h"
 1448              		.file 27 "Generated_Source\\PSoC6/UART_1.h"
 1449              		.file 28 "Generated_Source\\PSoC6\\pdl\\middleware/emWin/code/include/GUI.h"
 1450              		.file 29 "LCDConf.h"
 1451              		.file 30 "Thermistor.h"
 1452              		.file 31 "c:\\program files (x86)\\cypress\\psoc creator\\4.4\\psoc creator\\import\\gnu\\arm\\5.4
 1453              		.file 32 "c:\\program files (x86)\\cypress\\psoc creator\\4.4\\psoc creator\\import\\gnu\\arm\\5.4
 1454              		.file 33 "Generated_Source\\PSoC6/Status_SW2.h"
 1455              		.file 34 "<built-in>"
 1456              		.section	.debug_info,"",%progbits
 1457              	.Ldebug_info0:
 1458 0000 CE2D0000 		.4byte	0x2dce
 1459 0004 0400     		.2byte	0x4
 1460 0006 00000000 		.4byte	.Ldebug_abbrev0
 1461 000a 04       		.byte	0x4
 1462 000b 01       		.uleb128 0x1
 1463 000c 00040000 		.4byte	.LASF450
 1464 0010 0C       		.byte	0xc
 1465 0011 A1000000 		.4byte	.LASF451
 1466 0015 93100000 		.4byte	.LASF452
 1467 0019 00000000 		.4byte	.Ldebug_ranges0+0
 1468 001d 00000000 		.4byte	0
 1469 0021 00000000 		.4byte	.Ldebug_line0
 1470 0025 02       		.uleb128 0x2
 1471 0026 04       		.byte	0x4
 1472 0027 04       		.byte	0x4
 1473 0028 85090000 		.4byte	.LASF0
 1474 002c 02       		.uleb128 0x2
 1475 002d 08       		.byte	0x8
 1476 002e 04       		.byte	0x4
 1477 002f A5080000 		.4byte	.LASF1
 1478 0033 02       		.uleb128 0x2
 1479 0034 02       		.byte	0x2
 1480 0035 05       		.byte	0x5
 1481 0036 BE000000 		.4byte	.LASF2
 1482 003a 02       		.uleb128 0x2
 1483 003b 01       		.byte	0x1
 1484 003c 06       		.byte	0x6
 1485 003d EE160000 		.4byte	.LASF3
 1486 0041 03       		.uleb128 0x3
 1487 0042 59130000 		.4byte	.LASF5
 1488 0046 05       		.byte	0x5
 1489 0047 1D       		.byte	0x1d
 1490 0048 4C000000 		.4byte	0x4c
 1491 004c 02       		.uleb128 0x2
 1492 004d 01       		.byte	0x1
 1493 004e 08       		.byte	0x8
 1494 004f 46150000 		.4byte	.LASF4
 1495 0053 03       		.uleb128 0x3
ARM GAS  C:\Users\louis\AppData\Local\Temp\ccj8Y2ua.s 			page 64


 1496 0054 2C0D0000 		.4byte	.LASF6
 1497 0058 05       		.byte	0x5
 1498 0059 29       		.byte	0x29
 1499 005a 33000000 		.4byte	0x33
 1500 005e 03       		.uleb128 0x3
 1501 005f DD090000 		.4byte	.LASF7
 1502 0063 05       		.byte	0x5
 1503 0064 2B       		.byte	0x2b
 1504 0065 69000000 		.4byte	0x69
 1505 0069 02       		.uleb128 0x2
 1506 006a 02       		.byte	0x2
 1507 006b 07       		.byte	0x7
 1508 006c 8E0F0000 		.4byte	.LASF8
 1509 0070 03       		.uleb128 0x3
 1510 0071 62020000 		.4byte	.LASF9
 1511 0075 05       		.byte	0x5
 1512 0076 3F       		.byte	0x3f
 1513 0077 7B000000 		.4byte	0x7b
 1514 007b 02       		.uleb128 0x2
 1515 007c 04       		.byte	0x4
 1516 007d 05       		.byte	0x5
 1517 007e ED110000 		.4byte	.LASF10
 1518 0082 03       		.uleb128 0x3
 1519 0083 68150000 		.4byte	.LASF11
 1520 0087 05       		.byte	0x5
 1521 0088 41       		.byte	0x41
 1522 0089 8D000000 		.4byte	0x8d
 1523 008d 02       		.uleb128 0x2
 1524 008e 04       		.byte	0x4
 1525 008f 07       		.byte	0x7
 1526 0090 4D140000 		.4byte	.LASF12
 1527 0094 02       		.uleb128 0x2
 1528 0095 08       		.byte	0x8
 1529 0096 05       		.byte	0x5
 1530 0097 490C0000 		.4byte	.LASF13
 1531 009b 02       		.uleb128 0x2
 1532 009c 08       		.byte	0x8
 1533 009d 07       		.byte	0x7
 1534 009e 9B060000 		.4byte	.LASF14
 1535 00a2 04       		.uleb128 0x4
 1536 00a3 04       		.byte	0x4
 1537 00a4 05       		.byte	0x5
 1538 00a5 696E7400 		.ascii	"int\000"
 1539 00a9 02       		.uleb128 0x2
 1540 00aa 04       		.byte	0x4
 1541 00ab 07       		.byte	0x7
 1542 00ac DC010000 		.4byte	.LASF15
 1543 00b0 03       		.uleb128 0x3
 1544 00b1 490B0000 		.4byte	.LASF16
 1545 00b5 06       		.byte	0x6
 1546 00b6 18       		.byte	0x18
 1547 00b7 41000000 		.4byte	0x41
 1548 00bb 03       		.uleb128 0x3
 1549 00bc 74060000 		.4byte	.LASF17
 1550 00c0 06       		.byte	0x6
 1551 00c1 20       		.byte	0x20
 1552 00c2 53000000 		.4byte	0x53
ARM GAS  C:\Users\louis\AppData\Local\Temp\ccj8Y2ua.s 			page 65


 1553 00c6 03       		.uleb128 0x3
 1554 00c7 BF0F0000 		.4byte	.LASF18
 1555 00cb 06       		.byte	0x6
 1556 00cc 24       		.byte	0x24
 1557 00cd 5E000000 		.4byte	0x5e
 1558 00d1 03       		.uleb128 0x3
 1559 00d2 B9020000 		.4byte	.LASF19
 1560 00d6 06       		.byte	0x6
 1561 00d7 2C       		.byte	0x2c
 1562 00d8 70000000 		.4byte	0x70
 1563 00dc 03       		.uleb128 0x3
 1564 00dd 6D050000 		.4byte	.LASF20
 1565 00e1 06       		.byte	0x6
 1566 00e2 30       		.byte	0x30
 1567 00e3 82000000 		.4byte	0x82
 1568 00e7 02       		.uleb128 0x2
 1569 00e8 04       		.byte	0x4
 1570 00e9 07       		.byte	0x7
 1571 00ea F6100000 		.4byte	.LASF21
 1572 00ee 05       		.uleb128 0x5
 1573 00ef DC000000 		.4byte	0xdc
 1574 00f3 06       		.uleb128 0x6
 1575 00f4 EE000000 		.4byte	0xee
 1576 00f8 07       		.uleb128 0x7
 1577 00f9 F3000000 		.4byte	0xf3
 1578 00fd 08010000 		.4byte	0x108
 1579 0101 08       		.uleb128 0x8
 1580 0102 E7000000 		.4byte	0xe7
 1581 0106 01       		.byte	0x1
 1582 0107 00       		.byte	0
 1583 0108 07       		.uleb128 0x7
 1584 0109 EE000000 		.4byte	0xee
 1585 010d 18010000 		.4byte	0x118
 1586 0111 08       		.uleb128 0x8
 1587 0112 E7000000 		.4byte	0xe7
 1588 0116 0F       		.byte	0xf
 1589 0117 00       		.byte	0
 1590 0118 07       		.uleb128 0x7
 1591 0119 F3000000 		.4byte	0xf3
 1592 011d 28010000 		.4byte	0x128
 1593 0121 08       		.uleb128 0x8
 1594 0122 E7000000 		.4byte	0xe7
 1595 0126 0F       		.byte	0xf
 1596 0127 00       		.byte	0
 1597 0128 07       		.uleb128 0x7
 1598 0129 F3000000 		.4byte	0xf3
 1599 012d 38010000 		.4byte	0x138
 1600 0131 08       		.uleb128 0x8
 1601 0132 E7000000 		.4byte	0xe7
 1602 0136 02       		.byte	0x2
 1603 0137 00       		.byte	0
 1604 0138 07       		.uleb128 0x7
 1605 0139 F3000000 		.4byte	0xf3
 1606 013d 48010000 		.4byte	0x148
 1607 0141 08       		.uleb128 0x8
 1608 0142 E7000000 		.4byte	0xe7
 1609 0146 0E       		.byte	0xe
ARM GAS  C:\Users\louis\AppData\Local\Temp\ccj8Y2ua.s 			page 66


 1610 0147 00       		.byte	0
 1611 0148 09       		.uleb128 0x9
 1612 0149 80       		.byte	0x80
 1613 014a 07       		.byte	0x7
 1614 014b 22       		.byte	0x22
 1615 014c 1C020000 		.4byte	0x21c
 1616 0150 0A       		.uleb128 0xa
 1617 0151 4F555400 		.ascii	"OUT\000"
 1618 0155 07       		.byte	0x7
 1619 0156 23       		.byte	0x23
 1620 0157 EE000000 		.4byte	0xee
 1621 015b 00       		.byte	0
 1622 015c 0B       		.uleb128 0xb
 1623 015d 56060000 		.4byte	.LASF22
 1624 0161 07       		.byte	0x7
 1625 0162 24       		.byte	0x24
 1626 0163 EE000000 		.4byte	0xee
 1627 0167 04       		.byte	0x4
 1628 0168 0B       		.uleb128 0xb
 1629 0169 D1050000 		.4byte	.LASF23
 1630 016d 07       		.byte	0x7
 1631 016e 25       		.byte	0x25
 1632 016f EE000000 		.4byte	0xee
 1633 0173 08       		.byte	0x8
 1634 0174 0B       		.uleb128 0xb
 1635 0175 3C130000 		.4byte	.LASF24
 1636 0179 07       		.byte	0x7
 1637 017a 26       		.byte	0x26
 1638 017b EE000000 		.4byte	0xee
 1639 017f 0C       		.byte	0xc
 1640 0180 0A       		.uleb128 0xa
 1641 0181 494E00   		.ascii	"IN\000"
 1642 0184 07       		.byte	0x7
 1643 0185 27       		.byte	0x27
 1644 0186 F3000000 		.4byte	0xf3
 1645 018a 10       		.byte	0x10
 1646 018b 0B       		.uleb128 0xb
 1647 018c 980D0000 		.4byte	.LASF25
 1648 0190 07       		.byte	0x7
 1649 0191 28       		.byte	0x28
 1650 0192 EE000000 		.4byte	0xee
 1651 0196 14       		.byte	0x14
 1652 0197 0B       		.uleb128 0xb
 1653 0198 D70D0000 		.4byte	.LASF26
 1654 019c 07       		.byte	0x7
 1655 019d 29       		.byte	0x29
 1656 019e EE000000 		.4byte	0xee
 1657 01a2 18       		.byte	0x18
 1658 01a3 0B       		.uleb128 0xb
 1659 01a4 E9130000 		.4byte	.LASF27
 1660 01a8 07       		.byte	0x7
 1661 01a9 2A       		.byte	0x2a
 1662 01aa F3000000 		.4byte	0xf3
 1663 01ae 1C       		.byte	0x1c
 1664 01af 0B       		.uleb128 0xb
 1665 01b0 73030000 		.4byte	.LASF28
 1666 01b4 07       		.byte	0x7
ARM GAS  C:\Users\louis\AppData\Local\Temp\ccj8Y2ua.s 			page 67


 1667 01b5 2B       		.byte	0x2b
 1668 01b6 EE000000 		.4byte	0xee
 1669 01ba 20       		.byte	0x20
 1670 01bb 0B       		.uleb128 0xb
 1671 01bc AA150000 		.4byte	.LASF29
 1672 01c0 07       		.byte	0x7
 1673 01c1 2C       		.byte	0x2c
 1674 01c2 EE000000 		.4byte	0xee
 1675 01c6 24       		.byte	0x24
 1676 01c7 0A       		.uleb128 0xa
 1677 01c8 43464700 		.ascii	"CFG\000"
 1678 01cc 07       		.byte	0x7
 1679 01cd 2D       		.byte	0x2d
 1680 01ce EE000000 		.4byte	0xee
 1681 01d2 28       		.byte	0x28
 1682 01d3 0B       		.uleb128 0xb
 1683 01d4 12100000 		.4byte	.LASF30
 1684 01d8 07       		.byte	0x7
 1685 01d9 2E       		.byte	0x2e
 1686 01da EE000000 		.4byte	0xee
 1687 01de 2C       		.byte	0x2c
 1688 01df 0B       		.uleb128 0xb
 1689 01e0 01080000 		.4byte	.LASF31
 1690 01e4 07       		.byte	0x7
 1691 01e5 2F       		.byte	0x2f
 1692 01e6 EE000000 		.4byte	0xee
 1693 01ea 30       		.byte	0x30
 1694 01eb 0B       		.uleb128 0xb
 1695 01ec 52180000 		.4byte	.LASF32
 1696 01f0 07       		.byte	0x7
 1697 01f1 30       		.byte	0x30
 1698 01f2 EE000000 		.4byte	0xee
 1699 01f6 34       		.byte	0x34
 1700 01f7 0B       		.uleb128 0xb
 1701 01f8 12000000 		.4byte	.LASF33
 1702 01fc 07       		.byte	0x7
 1703 01fd 31       		.byte	0x31
 1704 01fe F3000000 		.4byte	0xf3
 1705 0202 38       		.byte	0x38
 1706 0203 0B       		.uleb128 0xb
 1707 0204 53070000 		.4byte	.LASF34
 1708 0208 07       		.byte	0x7
 1709 0209 32       		.byte	0x32
 1710 020a EE000000 		.4byte	0xee
 1711 020e 3C       		.byte	0x3c
 1712 020f 0B       		.uleb128 0xb
 1713 0210 5E060000 		.4byte	.LASF35
 1714 0214 07       		.byte	0x7
 1715 0215 33       		.byte	0x33
 1716 0216 21020000 		.4byte	0x221
 1717 021a 40       		.byte	0x40
 1718 021b 00       		.byte	0
 1719 021c 05       		.uleb128 0x5
 1720 021d 18010000 		.4byte	0x118
 1721 0221 06       		.uleb128 0x6
 1722 0222 1C020000 		.4byte	0x21c
 1723 0226 03       		.uleb128 0x3
ARM GAS  C:\Users\louis\AppData\Local\Temp\ccj8Y2ua.s 			page 68


 1724 0227 76120000 		.4byte	.LASF36
 1725 022b 07       		.byte	0x7
 1726 022c 34       		.byte	0x34
 1727 022d 48010000 		.4byte	0x148
 1728 0231 0C       		.uleb128 0xc
 1729 0232 2440     		.2byte	0x4024
 1730 0234 07       		.byte	0x7
 1731 0235 39       		.byte	0x39
 1732 0236 BC020000 		.4byte	0x2bc
 1733 023a 0A       		.uleb128 0xa
 1734 023b 50525400 		.ascii	"PRT\000"
 1735 023f 07       		.byte	0x7
 1736 0240 3A       		.byte	0x3a
 1737 0241 BC020000 		.4byte	0x2bc
 1738 0245 00       		.byte	0
 1739 0246 0D       		.uleb128 0xd
 1740 0247 1B000000 		.4byte	.LASF37
 1741 024b 07       		.byte	0x7
 1742 024c 3B       		.byte	0x3b
 1743 024d F3000000 		.4byte	0xf3
 1744 0251 0040     		.2byte	0x4000
 1745 0253 0D       		.uleb128 0xd
 1746 0254 27000000 		.4byte	.LASF38
 1747 0258 07       		.byte	0x7
 1748 0259 3C       		.byte	0x3c
 1749 025a F3000000 		.4byte	0xf3
 1750 025e 0440     		.2byte	0x4004
 1751 0260 0D       		.uleb128 0xd
 1752 0261 33000000 		.4byte	.LASF39
 1753 0265 07       		.byte	0x7
 1754 0266 3D       		.byte	0x3d
 1755 0267 F3000000 		.4byte	0xf3
 1756 026b 0840     		.2byte	0x4008
 1757 026d 0D       		.uleb128 0xd
 1758 026e 830B0000 		.4byte	.LASF40
 1759 0272 07       		.byte	0x7
 1760 0273 3E       		.byte	0x3e
 1761 0274 F3000000 		.4byte	0xf3
 1762 0278 0C40     		.2byte	0x400c
 1763 027a 0D       		.uleb128 0xd
 1764 027b AA170000 		.4byte	.LASF41
 1765 027f 07       		.byte	0x7
 1766 0280 3F       		.byte	0x3f
 1767 0281 F3000000 		.4byte	0xf3
 1768 0285 1040     		.2byte	0x4010
 1769 0287 0D       		.uleb128 0xd
 1770 0288 1D090000 		.4byte	.LASF42
 1771 028c 07       		.byte	0x7
 1772 028d 40       		.byte	0x40
 1773 028e EE000000 		.4byte	0xee
 1774 0292 1440     		.2byte	0x4014
 1775 0294 0D       		.uleb128 0xd
 1776 0295 D5160000 		.4byte	.LASF43
 1777 0299 07       		.byte	0x7
 1778 029a 41       		.byte	0x41
 1779 029b EE000000 		.4byte	0xee
 1780 029f 1840     		.2byte	0x4018
ARM GAS  C:\Users\louis\AppData\Local\Temp\ccj8Y2ua.s 			page 69


 1781 02a1 0D       		.uleb128 0xd
 1782 02a2 000F0000 		.4byte	.LASF44
 1783 02a6 07       		.byte	0x7
 1784 02a7 42       		.byte	0x42
 1785 02a8 F3000000 		.4byte	0xf3
 1786 02ac 1C40     		.2byte	0x401c
 1787 02ae 0D       		.uleb128 0xd
 1788 02af EB0F0000 		.4byte	.LASF45
 1789 02b3 07       		.byte	0x7
 1790 02b4 43       		.byte	0x43
 1791 02b5 EE000000 		.4byte	0xee
 1792 02b9 2040     		.2byte	0x4020
 1793 02bb 00       		.byte	0
 1794 02bc 07       		.uleb128 0x7
 1795 02bd 26020000 		.4byte	0x226
 1796 02c1 CC020000 		.4byte	0x2cc
 1797 02c5 08       		.uleb128 0x8
 1798 02c6 E7000000 		.4byte	0xe7
 1799 02ca 7F       		.byte	0x7f
 1800 02cb 00       		.byte	0
 1801 02cc 03       		.uleb128 0x3
 1802 02cd 9C050000 		.4byte	.LASF46
 1803 02d1 07       		.byte	0x7
 1804 02d2 44       		.byte	0x44
 1805 02d3 31020000 		.4byte	0x231
 1806 02d7 09       		.uleb128 0x9
 1807 02d8 40       		.byte	0x40
 1808 02d9 08       		.byte	0x8
 1809 02da 22       		.byte	0x22
 1810 02db 9F030000 		.4byte	0x39f
 1811 02df 0B       		.uleb128 0xb
 1812 02e0 35190000 		.4byte	.LASF47
 1813 02e4 08       		.byte	0x8
 1814 02e5 23       		.byte	0x23
 1815 02e6 EE000000 		.4byte	0xee
 1816 02ea 00       		.byte	0
 1817 02eb 0B       		.uleb128 0xb
 1818 02ec 4B180000 		.4byte	.LASF48
 1819 02f0 08       		.byte	0x8
 1820 02f1 24       		.byte	0x24
 1821 02f2 F3000000 		.4byte	0xf3
 1822 02f6 04       		.byte	0x4
 1823 02f7 0B       		.uleb128 0xb
 1824 02f8 AD180000 		.4byte	.LASF49
 1825 02fc 08       		.byte	0x8
 1826 02fd 25       		.byte	0x25
 1827 02fe EE000000 		.4byte	0xee
 1828 0302 08       		.byte	0x8
 1829 0303 0A       		.uleb128 0xa
 1830 0304 434300   		.ascii	"CC\000"
 1831 0307 08       		.byte	0x8
 1832 0308 26       		.byte	0x26
 1833 0309 EE000000 		.4byte	0xee
 1834 030d 0C       		.byte	0xc
 1835 030e 0B       		.uleb128 0xb
 1836 030f 110B0000 		.4byte	.LASF50
 1837 0313 08       		.byte	0x8
ARM GAS  C:\Users\louis\AppData\Local\Temp\ccj8Y2ua.s 			page 70


 1838 0314 27       		.byte	0x27
 1839 0315 EE000000 		.4byte	0xee
 1840 0319 10       		.byte	0x10
 1841 031a 0B       		.uleb128 0xb
 1842 031b 15180000 		.4byte	.LASF51
 1843 031f 08       		.byte	0x8
 1844 0320 28       		.byte	0x28
 1845 0321 EE000000 		.4byte	0xee
 1846 0325 14       		.byte	0x14
 1847 0326 0B       		.uleb128 0xb
 1848 0327 1F190000 		.4byte	.LASF52
 1849 032b 08       		.byte	0x8
 1850 032c 29       		.byte	0x29
 1851 032d EE000000 		.4byte	0xee
 1852 0331 18       		.byte	0x18
 1853 0332 0B       		.uleb128 0xb
 1854 0333 12000000 		.4byte	.LASF33
 1855 0337 08       		.byte	0x8
 1856 0338 2A       		.byte	0x2a
 1857 0339 F3000000 		.4byte	0xf3
 1858 033d 1C       		.byte	0x1c
 1859 033e 0B       		.uleb128 0xb
 1860 033f AC010000 		.4byte	.LASF53
 1861 0343 08       		.byte	0x8
 1862 0344 2B       		.byte	0x2b
 1863 0345 EE000000 		.4byte	0xee
 1864 0349 20       		.byte	0x20
 1865 034a 0B       		.uleb128 0xb
 1866 034b B5170000 		.4byte	.LASF54
 1867 034f 08       		.byte	0x8
 1868 0350 2C       		.byte	0x2c
 1869 0351 EE000000 		.4byte	0xee
 1870 0355 24       		.byte	0x24
 1871 0356 0B       		.uleb128 0xb
 1872 0357 BE170000 		.4byte	.LASF55
 1873 035b 08       		.byte	0x8
 1874 035c 2D       		.byte	0x2d
 1875 035d EE000000 		.4byte	0xee
 1876 0361 28       		.byte	0x28
 1877 0362 0B       		.uleb128 0xb
 1878 0363 5E060000 		.4byte	.LASF35
 1879 0367 08       		.byte	0x8
 1880 0368 2E       		.byte	0x2e
 1881 0369 F3000000 		.4byte	0xf3
 1882 036d 2C       		.byte	0x2c
 1883 036e 0B       		.uleb128 0xb
 1884 036f 980D0000 		.4byte	.LASF25
 1885 0373 08       		.byte	0x8
 1886 0374 2F       		.byte	0x2f
 1887 0375 EE000000 		.4byte	0xee
 1888 0379 30       		.byte	0x30
 1889 037a 0B       		.uleb128 0xb
 1890 037b 73030000 		.4byte	.LASF28
 1891 037f 08       		.byte	0x8
 1892 0380 30       		.byte	0x30
 1893 0381 EE000000 		.4byte	0xee
 1894 0385 34       		.byte	0x34
ARM GAS  C:\Users\louis\AppData\Local\Temp\ccj8Y2ua.s 			page 71


 1895 0386 0B       		.uleb128 0xb
 1896 0387 D70D0000 		.4byte	.LASF26
 1897 038b 08       		.byte	0x8
 1898 038c 31       		.byte	0x31
 1899 038d EE000000 		.4byte	0xee
 1900 0391 38       		.byte	0x38
 1901 0392 0B       		.uleb128 0xb
 1902 0393 E9130000 		.4byte	.LASF27
 1903 0397 08       		.byte	0x8
 1904 0398 32       		.byte	0x32
 1905 0399 F3000000 		.4byte	0xf3
 1906 039d 3C       		.byte	0x3c
 1907 039e 00       		.byte	0
 1908 039f 03       		.uleb128 0x3
 1909 03a0 290E0000 		.4byte	.LASF56
 1910 03a4 08       		.byte	0x8
 1911 03a5 33       		.byte	0x33
 1912 03a6 D7020000 		.4byte	0x2d7
 1913 03aa 0C       		.uleb128 0xc
 1914 03ab 0009     		.2byte	0x900
 1915 03ad 08       		.byte	0x8
 1916 03ae 38       		.byte	0x38
 1917 03af 2D040000 		.4byte	0x42d
 1918 03b3 0B       		.uleb128 0xb
 1919 03b4 35190000 		.4byte	.LASF47
 1920 03b8 08       		.byte	0x8
 1921 03b9 39       		.byte	0x39
 1922 03ba EE000000 		.4byte	0xee
 1923 03be 00       		.byte	0
 1924 03bf 0B       		.uleb128 0xb
 1925 03c0 5F0C0000 		.4byte	.LASF57
 1926 03c4 08       		.byte	0x8
 1927 03c5 3A       		.byte	0x3a
 1928 03c6 EE000000 		.4byte	0xee
 1929 03ca 04       		.byte	0x4
 1930 03cb 0B       		.uleb128 0xb
 1931 03cc C80F0000 		.4byte	.LASF58
 1932 03d0 08       		.byte	0x8
 1933 03d1 3B       		.byte	0x3b
 1934 03d2 EE000000 		.4byte	0xee
 1935 03d6 08       		.byte	0x8
 1936 03d7 0B       		.uleb128 0xb
 1937 03d8 81000000 		.4byte	.LASF59
 1938 03dc 08       		.byte	0x8
 1939 03dd 3C       		.byte	0x3c
 1940 03de EE000000 		.4byte	0xee
 1941 03e2 0C       		.byte	0xc
 1942 03e3 0B       		.uleb128 0xb
 1943 03e4 E9010000 		.4byte	.LASF60
 1944 03e8 08       		.byte	0x8
 1945 03e9 3D       		.byte	0x3d
 1946 03ea EE000000 		.4byte	0xee
 1947 03ee 10       		.byte	0x10
 1948 03ef 0B       		.uleb128 0xb
 1949 03f0 35060000 		.4byte	.LASF61
 1950 03f4 08       		.byte	0x8
 1951 03f5 3E       		.byte	0x3e
ARM GAS  C:\Users\louis\AppData\Local\Temp\ccj8Y2ua.s 			page 72


 1952 03f6 EE000000 		.4byte	0xee
 1953 03fa 14       		.byte	0x14
 1954 03fb 0B       		.uleb128 0xb
 1955 03fc 20160000 		.4byte	.LASF62
 1956 0400 08       		.byte	0x8
 1957 0401 3F       		.byte	0x3f
 1958 0402 EE000000 		.4byte	0xee
 1959 0406 18       		.byte	0x18
 1960 0407 0B       		.uleb128 0xb
 1961 0408 FF010000 		.4byte	.LASF63
 1962 040c 08       		.byte	0x8
 1963 040d 40       		.byte	0x40
 1964 040e F3000000 		.4byte	0xf3
 1965 0412 1C       		.byte	0x1c
 1966 0413 0B       		.uleb128 0xb
 1967 0414 12000000 		.4byte	.LASF33
 1968 0418 08       		.byte	0x8
 1969 0419 41       		.byte	0x41
 1970 041a 42040000 		.4byte	0x442
 1971 041e 20       		.byte	0x20
 1972 041f 0E       		.uleb128 0xe
 1973 0420 434E5400 		.ascii	"CNT\000"
 1974 0424 08       		.byte	0x8
 1975 0425 42       		.byte	0x42
 1976 0426 47040000 		.4byte	0x447
 1977 042a 0001     		.2byte	0x100
 1978 042c 00       		.byte	0
 1979 042d 07       		.uleb128 0x7
 1980 042e F3000000 		.4byte	0xf3
 1981 0432 3D040000 		.4byte	0x43d
 1982 0436 08       		.uleb128 0x8
 1983 0437 E7000000 		.4byte	0xe7
 1984 043b 37       		.byte	0x37
 1985 043c 00       		.byte	0
 1986 043d 05       		.uleb128 0x5
 1987 043e 2D040000 		.4byte	0x42d
 1988 0442 06       		.uleb128 0x6
 1989 0443 3D040000 		.4byte	0x43d
 1990 0447 07       		.uleb128 0x7
 1991 0448 9F030000 		.4byte	0x39f
 1992 044c 57040000 		.4byte	0x457
 1993 0450 08       		.uleb128 0x8
 1994 0451 E7000000 		.4byte	0xe7
 1995 0455 1F       		.byte	0x1f
 1996 0456 00       		.byte	0
 1997 0457 03       		.uleb128 0x3
 1998 0458 3B050000 		.4byte	.LASF64
 1999 045c 08       		.byte	0x8
 2000 045d 43       		.byte	0x43
 2001 045e AA030000 		.4byte	0x3aa
 2002 0462 0C       		.uleb128 0xc
 2003 0463 080F     		.2byte	0xf08
 2004 0465 09       		.byte	0x9
 2005 0466 21       		.byte	0x21
 2006 0467 EA060000 		.4byte	0x6ea
 2007 046b 0B       		.uleb128 0xb
 2008 046c 35190000 		.4byte	.LASF47
ARM GAS  C:\Users\louis\AppData\Local\Temp\ccj8Y2ua.s 			page 73


 2009 0470 09       		.byte	0x9
 2010 0471 22       		.byte	0x22
 2011 0472 EE000000 		.4byte	0xee
 2012 0476 00       		.byte	0
 2013 0477 0B       		.uleb128 0xb
 2014 0478 EB0D0000 		.4byte	.LASF65
 2015 047c 09       		.byte	0x9
 2016 047d 23       		.byte	0x23
 2017 047e EE000000 		.4byte	0xee
 2018 0482 04       		.byte	0x4
 2019 0483 0B       		.uleb128 0xb
 2020 0484 12000000 		.4byte	.LASF33
 2021 0488 09       		.byte	0x9
 2022 0489 24       		.byte	0x24
 2023 048a EF060000 		.4byte	0x6ef
 2024 048e 08       		.byte	0x8
 2025 048f 0B       		.uleb128 0xb
 2026 0490 F4180000 		.4byte	.LASF66
 2027 0494 09       		.byte	0x9
 2028 0495 25       		.byte	0x25
 2029 0496 EE000000 		.4byte	0xee
 2030 049a 10       		.byte	0x10
 2031 049b 0B       		.uleb128 0xb
 2032 049c 3D070000 		.4byte	.LASF67
 2033 04a0 09       		.byte	0x9
 2034 04a1 26       		.byte	0x26
 2035 04a2 EE000000 		.4byte	0xee
 2036 04a6 14       		.byte	0x14
 2037 04a7 0B       		.uleb128 0xb
 2038 04a8 9B120000 		.4byte	.LASF68
 2039 04ac 09       		.byte	0x9
 2040 04ad 27       		.byte	0x27
 2041 04ae EE000000 		.4byte	0xee
 2042 04b2 18       		.byte	0x18
 2043 04b3 0B       		.uleb128 0xb
 2044 04b4 EC080000 		.4byte	.LASF69
 2045 04b8 09       		.byte	0x9
 2046 04b9 28       		.byte	0x28
 2047 04ba EE000000 		.4byte	0xee
 2048 04be 1C       		.byte	0x1c
 2049 04bf 0B       		.uleb128 0xb
 2050 04c0 11010000 		.4byte	.LASF70
 2051 04c4 09       		.byte	0x9
 2052 04c5 29       		.byte	0x29
 2053 04c6 EE000000 		.4byte	0xee
 2054 04ca 20       		.byte	0x20
 2055 04cb 0B       		.uleb128 0xb
 2056 04cc EF0E0000 		.4byte	.LASF71
 2057 04d0 09       		.byte	0x9
 2058 04d1 2A       		.byte	0x2a
 2059 04d2 EE000000 		.4byte	0xee
 2060 04d6 24       		.byte	0x24
 2061 04d7 0B       		.uleb128 0xb
 2062 04d8 5E060000 		.4byte	.LASF35
 2063 04dc 09       		.byte	0x9
 2064 04dd 2B       		.byte	0x2b
 2065 04de 09070000 		.4byte	0x709
ARM GAS  C:\Users\louis\AppData\Local\Temp\ccj8Y2ua.s 			page 74


 2066 04e2 28       		.byte	0x28
 2067 04e3 0B       		.uleb128 0xb
 2068 04e4 6E180000 		.4byte	.LASF72
 2069 04e8 09       		.byte	0x9
 2070 04e9 2C       		.byte	0x2c
 2071 04ea 0E070000 		.4byte	0x70e
 2072 04ee 80       		.byte	0x80
 2073 04ef 0B       		.uleb128 0xb
 2074 04f0 55110000 		.4byte	.LASF73
 2075 04f4 09       		.byte	0x9
 2076 04f5 2D       		.byte	0x2d
 2077 04f6 18070000 		.4byte	0x718
 2078 04fa C0       		.byte	0xc0
 2079 04fb 0D       		.uleb128 0xd
 2080 04fc 540A0000 		.4byte	.LASF74
 2081 0500 09       		.byte	0x9
 2082 0501 2E       		.byte	0x2e
 2083 0502 22070000 		.4byte	0x722
 2084 0506 0001     		.2byte	0x100
 2085 0508 0D       		.uleb128 0xd
 2086 0509 5F110000 		.4byte	.LASF75
 2087 050d 09       		.byte	0x9
 2088 050e 2F       		.byte	0x2f
 2089 050f 2C070000 		.4byte	0x72c
 2090 0513 4001     		.2byte	0x140
 2091 0515 0D       		.uleb128 0xd
 2092 0516 750D0000 		.4byte	.LASF76
 2093 051a 09       		.byte	0x9
 2094 051b 30       		.byte	0x30
 2095 051c 36070000 		.4byte	0x736
 2096 0520 8001     		.2byte	0x180
 2097 0522 0D       		.uleb128 0xd
 2098 0523 69110000 		.4byte	.LASF77
 2099 0527 09       		.byte	0x9
 2100 0528 31       		.byte	0x31
 2101 0529 40070000 		.4byte	0x740
 2102 052d C001     		.2byte	0x1c0
 2103 052f 0D       		.uleb128 0xd
 2104 0530 8B010000 		.4byte	.LASF78
 2105 0534 09       		.byte	0x9
 2106 0535 32       		.byte	0x32
 2107 0536 F3000000 		.4byte	0xf3
 2108 053a 0002     		.2byte	0x200
 2109 053c 0D       		.uleb128 0xd
 2110 053d CE140000 		.4byte	.LASF79
 2111 0541 09       		.byte	0x9
 2112 0542 33       		.byte	0x33
 2113 0543 F3000000 		.4byte	0xf3
 2114 0547 0402     		.2byte	0x204
 2115 0549 0D       		.uleb128 0xd
 2116 054a 86020000 		.4byte	.LASF80
 2117 054e 09       		.byte	0x9
 2118 054f 34       		.byte	0x34
 2119 0550 F3000000 		.4byte	0xf3
 2120 0554 0802     		.2byte	0x208
 2121 0556 0D       		.uleb128 0xd
 2122 0557 F30A0000 		.4byte	.LASF81
ARM GAS  C:\Users\louis\AppData\Local\Temp\ccj8Y2ua.s 			page 75


 2123 055b 09       		.byte	0x9
 2124 055c 35       		.byte	0x35
 2125 055d F3000000 		.4byte	0xf3
 2126 0561 0C02     		.2byte	0x20c
 2127 0563 0D       		.uleb128 0xd
 2128 0564 980D0000 		.4byte	.LASF25
 2129 0568 09       		.byte	0x9
 2130 0569 36       		.byte	0x36
 2131 056a EE000000 		.4byte	0xee
 2132 056e 1002     		.2byte	0x210
 2133 0570 0D       		.uleb128 0xd
 2134 0571 73030000 		.4byte	.LASF28
 2135 0575 09       		.byte	0x9
 2136 0576 37       		.byte	0x37
 2137 0577 EE000000 		.4byte	0xee
 2138 057b 1402     		.2byte	0x214
 2139 057d 0D       		.uleb128 0xd
 2140 057e D70D0000 		.4byte	.LASF26
 2141 0582 09       		.byte	0x9
 2142 0583 38       		.byte	0x38
 2143 0584 EE000000 		.4byte	0xee
 2144 0588 1802     		.2byte	0x218
 2145 058a 0D       		.uleb128 0xd
 2146 058b E9130000 		.4byte	.LASF27
 2147 058f 09       		.byte	0x9
 2148 0590 39       		.byte	0x39
 2149 0591 F3000000 		.4byte	0xf3
 2150 0595 1C02     		.2byte	0x21c
 2151 0597 0D       		.uleb128 0xd
 2152 0598 2F030000 		.4byte	.LASF82
 2153 059c 09       		.byte	0x9
 2154 059d 3A       		.byte	0x3a
 2155 059e EE000000 		.4byte	0xee
 2156 05a2 2002     		.2byte	0x220
 2157 05a4 0D       		.uleb128 0xd
 2158 05a5 680A0000 		.4byte	.LASF83
 2159 05a9 09       		.byte	0x9
 2160 05aa 3B       		.byte	0x3b
 2161 05ab EE000000 		.4byte	0xee
 2162 05af 2402     		.2byte	0x224
 2163 05b1 0D       		.uleb128 0xd
 2164 05b2 B3150000 		.4byte	.LASF84
 2165 05b6 09       		.byte	0x9
 2166 05b7 3C       		.byte	0x3c
 2167 05b8 EE000000 		.4byte	0xee
 2168 05bc 2802     		.2byte	0x228
 2169 05be 0D       		.uleb128 0xd
 2170 05bf CA110000 		.4byte	.LASF85
 2171 05c3 09       		.byte	0x9
 2172 05c4 3D       		.byte	0x3d
 2173 05c5 F3000000 		.4byte	0xf3
 2174 05c9 2C02     		.2byte	0x22c
 2175 05cb 0D       		.uleb128 0xd
 2176 05cc 9D0D0000 		.4byte	.LASF86
 2177 05d0 09       		.byte	0x9
 2178 05d1 3E       		.byte	0x3e
 2179 05d2 EE000000 		.4byte	0xee
ARM GAS  C:\Users\louis\AppData\Local\Temp\ccj8Y2ua.s 			page 76


 2180 05d6 3002     		.2byte	0x230
 2181 05d8 0D       		.uleb128 0xd
 2182 05d9 980B0000 		.4byte	.LASF87
 2183 05dd 09       		.byte	0x9
 2184 05de 3F       		.byte	0x3f
 2185 05df EE000000 		.4byte	0xee
 2186 05e3 3402     		.2byte	0x234
 2187 05e5 0D       		.uleb128 0xd
 2188 05e6 B5010000 		.4byte	.LASF88
 2189 05ea 09       		.byte	0x9
 2190 05eb 40       		.byte	0x40
 2191 05ec EE000000 		.4byte	0xee
 2192 05f0 3802     		.2byte	0x238
 2193 05f2 0D       		.uleb128 0xd
 2194 05f3 00000000 		.4byte	.LASF89
 2195 05f7 09       		.byte	0x9
 2196 05f8 41       		.byte	0x41
 2197 05f9 F3000000 		.4byte	0xf3
 2198 05fd 3C02     		.2byte	0x23c
 2199 05ff 0D       		.uleb128 0xd
 2200 0600 FF010000 		.4byte	.LASF63
 2201 0604 09       		.byte	0x9
 2202 0605 42       		.byte	0x42
 2203 0606 F3000000 		.4byte	0xf3
 2204 060a 4002     		.2byte	0x240
 2205 060c 0D       		.uleb128 0xd
 2206 060d 73110000 		.4byte	.LASF90
 2207 0611 09       		.byte	0x9
 2208 0612 43       		.byte	0x43
 2209 0613 4A070000 		.4byte	0x74a
 2210 0617 4402     		.2byte	0x244
 2211 0619 0D       		.uleb128 0xd
 2212 061a 09080000 		.4byte	.LASF91
 2213 061e 09       		.byte	0x9
 2214 061f 44       		.byte	0x44
 2215 0620 EE000000 		.4byte	0xee
 2216 0624 8002     		.2byte	0x280
 2217 0626 0D       		.uleb128 0xd
 2218 0627 7D110000 		.4byte	.LASF92
 2219 062b 09       		.byte	0x9
 2220 062c 45       		.byte	0x45
 2221 062d 54070000 		.4byte	0x754
 2222 0631 8402     		.2byte	0x284
 2223 0633 0D       		.uleb128 0xd
 2224 0634 52030000 		.4byte	.LASF93
 2225 0638 09       		.byte	0x9
 2226 0639 46       		.byte	0x46
 2227 063a F3000000 		.4byte	0xf3
 2228 063e 9002     		.2byte	0x290
 2229 0640 0D       		.uleb128 0xd
 2230 0641 7A180000 		.4byte	.LASF94
 2231 0645 09       		.byte	0x9
 2232 0646 47       		.byte	0x47
 2233 0647 5E070000 		.4byte	0x75e
 2234 064b 9402     		.2byte	0x294
 2235 064d 0D       		.uleb128 0xd
 2236 064e 4B180000 		.4byte	.LASF48
ARM GAS  C:\Users\louis\AppData\Local\Temp\ccj8Y2ua.s 			page 77


 2237 0652 09       		.byte	0x9
 2238 0653 48       		.byte	0x48
 2239 0654 F3000000 		.4byte	0xf3
 2240 0658 A002     		.2byte	0x2a0
 2241 065a 0D       		.uleb128 0xd
 2242 065b 210B0000 		.4byte	.LASF95
 2243 065f 09       		.byte	0x9
 2244 0660 49       		.byte	0x49
 2245 0661 F3000000 		.4byte	0xf3
 2246 0665 A402     		.2byte	0x2a4
 2247 0667 0D       		.uleb128 0xd
 2248 0668 92110000 		.4byte	.LASF96
 2249 066c 09       		.byte	0x9
 2250 066d 4A       		.byte	0x4a
 2251 066e 68070000 		.4byte	0x768
 2252 0672 A802     		.2byte	0x2a8
 2253 0674 0D       		.uleb128 0xd
 2254 0675 C2140000 		.4byte	.LASF97
 2255 0679 09       		.byte	0x9
 2256 067a 4B       		.byte	0x4b
 2257 067b EE000000 		.4byte	0xee
 2258 067f 0003     		.2byte	0x300
 2259 0681 0D       		.uleb128 0xd
 2260 0682 530E0000 		.4byte	.LASF98
 2261 0686 09       		.byte	0x9
 2262 0687 4C       		.byte	0x4c
 2263 0688 EE000000 		.4byte	0xee
 2264 068c 0403     		.2byte	0x304
 2265 068e 0D       		.uleb128 0xd
 2266 068f 9C110000 		.4byte	.LASF99
 2267 0693 09       		.byte	0x9
 2268 0694 4D       		.byte	0x4d
 2269 0695 82070000 		.4byte	0x782
 2270 0699 0803     		.2byte	0x308
 2271 069b 0D       		.uleb128 0xd
 2272 069c 5E170000 		.4byte	.LASF100
 2273 06a0 09       		.byte	0x9
 2274 06a1 4E       		.byte	0x4e
 2275 06a2 EE000000 		.4byte	0xee
 2276 06a6 4003     		.2byte	0x340
 2277 06a8 0D       		.uleb128 0xd
 2278 06a9 D9050000 		.4byte	.LASF101
 2279 06ad 09       		.byte	0x9
 2280 06ae 4F       		.byte	0x4f
 2281 06af EE000000 		.4byte	0xee
 2282 06b3 4403     		.2byte	0x344
 2283 06b5 0D       		.uleb128 0xd
 2284 06b6 D4170000 		.4byte	.LASF102
 2285 06ba 09       		.byte	0x9
 2286 06bb 50       		.byte	0x50
 2287 06bc F3000000 		.4byte	0xf3
 2288 06c0 4803     		.2byte	0x348
 2289 06c2 0D       		.uleb128 0xd
 2290 06c3 DD150000 		.4byte	.LASF103
 2291 06c7 09       		.byte	0x9
 2292 06c8 51       		.byte	0x51
 2293 06c9 9D070000 		.4byte	0x79d
ARM GAS  C:\Users\louis\AppData\Local\Temp\ccj8Y2ua.s 			page 78


 2294 06cd 4C03     		.2byte	0x34c
 2295 06cf 0D       		.uleb128 0xd
 2296 06d0 54150000 		.4byte	.LASF104
 2297 06d4 09       		.byte	0x9
 2298 06d5 52       		.byte	0x52
 2299 06d6 EE000000 		.4byte	0xee
 2300 06da 000F     		.2byte	0xf00
 2301 06dc 0D       		.uleb128 0xd
 2302 06dd 5E150000 		.4byte	.LASF105
 2303 06e1 09       		.byte	0x9
 2304 06e2 53       		.byte	0x53
 2305 06e3 EE000000 		.4byte	0xee
 2306 06e7 040F     		.2byte	0xf04
 2307 06e9 00       		.byte	0
 2308 06ea 05       		.uleb128 0x5
 2309 06eb F8000000 		.4byte	0xf8
 2310 06ef 06       		.uleb128 0x6
 2311 06f0 EA060000 		.4byte	0x6ea
 2312 06f4 07       		.uleb128 0x7
 2313 06f5 F3000000 		.4byte	0xf3
 2314 06f9 04070000 		.4byte	0x704
 2315 06fd 08       		.uleb128 0x8
 2316 06fe E7000000 		.4byte	0xe7
 2317 0702 15       		.byte	0x15
 2318 0703 00       		.byte	0
 2319 0704 05       		.uleb128 0x5
 2320 0705 F4060000 		.4byte	0x6f4
 2321 0709 06       		.uleb128 0x6
 2322 070a 04070000 		.4byte	0x704
 2323 070e 05       		.uleb128 0x5
 2324 070f 08010000 		.4byte	0x108
 2325 0713 05       		.uleb128 0x5
 2326 0714 18010000 		.4byte	0x118
 2327 0718 06       		.uleb128 0x6
 2328 0719 13070000 		.4byte	0x713
 2329 071d 05       		.uleb128 0x5
 2330 071e 18010000 		.4byte	0x118
 2331 0722 06       		.uleb128 0x6
 2332 0723 1D070000 		.4byte	0x71d
 2333 0727 05       		.uleb128 0x5
 2334 0728 18010000 		.4byte	0x118
 2335 072c 06       		.uleb128 0x6
 2336 072d 27070000 		.4byte	0x727
 2337 0731 05       		.uleb128 0x5
 2338 0732 18010000 		.4byte	0x118
 2339 0736 06       		.uleb128 0x6
 2340 0737 31070000 		.4byte	0x731
 2341 073b 05       		.uleb128 0x5
 2342 073c 18010000 		.4byte	0x118
 2343 0740 06       		.uleb128 0x6
 2344 0741 3B070000 		.4byte	0x73b
 2345 0745 05       		.uleb128 0x5
 2346 0746 38010000 		.4byte	0x138
 2347 074a 06       		.uleb128 0x6
 2348 074b 45070000 		.4byte	0x745
 2349 074f 05       		.uleb128 0x5
 2350 0750 28010000 		.4byte	0x128
ARM GAS  C:\Users\louis\AppData\Local\Temp\ccj8Y2ua.s 			page 79


 2351 0754 06       		.uleb128 0x6
 2352 0755 4F070000 		.4byte	0x74f
 2353 0759 05       		.uleb128 0x5
 2354 075a 28010000 		.4byte	0x128
 2355 075e 06       		.uleb128 0x6
 2356 075f 59070000 		.4byte	0x759
 2357 0763 05       		.uleb128 0x5
 2358 0764 F4060000 		.4byte	0x6f4
 2359 0768 06       		.uleb128 0x6
 2360 0769 63070000 		.4byte	0x763
 2361 076d 07       		.uleb128 0x7
 2362 076e F3000000 		.4byte	0xf3
 2363 0772 7D070000 		.4byte	0x77d
 2364 0776 08       		.uleb128 0x8
 2365 0777 E7000000 		.4byte	0xe7
 2366 077b 0D       		.byte	0xd
 2367 077c 00       		.byte	0
 2368 077d 05       		.uleb128 0x5
 2369 077e 6D070000 		.4byte	0x76d
 2370 0782 06       		.uleb128 0x6
 2371 0783 7D070000 		.4byte	0x77d
 2372 0787 07       		.uleb128 0x7
 2373 0788 F3000000 		.4byte	0xf3
 2374 078c 98070000 		.4byte	0x798
 2375 0790 0F       		.uleb128 0xf
 2376 0791 E7000000 		.4byte	0xe7
 2377 0795 EC02     		.2byte	0x2ec
 2378 0797 00       		.byte	0
 2379 0798 05       		.uleb128 0x5
 2380 0799 87070000 		.4byte	0x787
 2381 079d 06       		.uleb128 0x6
 2382 079e 98070000 		.4byte	0x798
 2383 07a2 03       		.uleb128 0x3
 2384 07a3 D2080000 		.4byte	.LASF106
 2385 07a7 09       		.byte	0x9
 2386 07a8 54       		.byte	0x54
 2387 07a9 62040000 		.4byte	0x462
 2388 07ad 10       		.uleb128 0x10
 2389 07ae B9090000 		.4byte	.LASF107
 2390 07b2 0A       		.byte	0xa
 2391 07b3 3106     		.2byte	0x631
 2392 07b5 26020000 		.4byte	0x226
 2393 07b9 10       		.uleb128 0x10
 2394 07ba 89150000 		.4byte	.LASF108
 2395 07be 0A       		.byte	0xa
 2396 07bf 3206     		.2byte	0x632
 2397 07c1 CC020000 		.4byte	0x2cc
 2398 07c5 10       		.uleb128 0x10
 2399 07c6 87110000 		.4byte	.LASF109
 2400 07ca 0A       		.byte	0xa
 2401 07cb 4206     		.2byte	0x642
 2402 07cd 57040000 		.4byte	0x457
 2403 07d1 10       		.uleb128 0x10
 2404 07d2 5A080000 		.4byte	.LASF110
 2405 07d6 0A       		.byte	0xa
 2406 07d7 5206     		.2byte	0x652
 2407 07d9 A2070000 		.4byte	0x7a2
ARM GAS  C:\Users\louis\AppData\Local\Temp\ccj8Y2ua.s 			page 80


 2408 07dd 02       		.uleb128 0x2
 2409 07de 08       		.byte	0x8
 2410 07df 04       		.byte	0x4
 2411 07e0 AB0F0000 		.4byte	.LASF111
 2412 07e4 09       		.uleb128 0x9
 2413 07e5 B8       		.byte	0xb8
 2414 07e6 0B       		.byte	0xb
 2415 07e7 34       		.byte	0x34
 2416 07e8 F50B0000 		.4byte	0xbf5
 2417 07ec 0B       		.uleb128 0xb
 2418 07ed 99020000 		.4byte	.LASF112
 2419 07f1 0B       		.byte	0xb
 2420 07f2 37       		.byte	0x37
 2421 07f3 DC000000 		.4byte	0xdc
 2422 07f7 00       		.byte	0
 2423 07f8 0B       		.uleb128 0xb
 2424 07f9 62010000 		.4byte	.LASF113
 2425 07fd 0B       		.byte	0xb
 2426 07fe 38       		.byte	0x38
 2427 07ff DC000000 		.4byte	0xdc
 2428 0803 04       		.byte	0x4
 2429 0804 0B       		.uleb128 0xb
 2430 0805 22010000 		.4byte	.LASF114
 2431 0809 0B       		.byte	0xb
 2432 080a 39       		.byte	0x39
 2433 080b DC000000 		.4byte	0xdc
 2434 080f 08       		.byte	0x8
 2435 0810 0B       		.uleb128 0xb
 2436 0811 4B070000 		.4byte	.LASF115
 2437 0815 0B       		.byte	0xb
 2438 0816 3A       		.byte	0x3a
 2439 0817 DC000000 		.4byte	0xdc
 2440 081b 0C       		.byte	0xc
 2441 081c 0B       		.uleb128 0xb
 2442 081d 5E120000 		.4byte	.LASF116
 2443 0821 0B       		.byte	0xb
 2444 0822 3B       		.byte	0x3b
 2445 0823 DC000000 		.4byte	0xdc
 2446 0827 10       		.byte	0x10
 2447 0828 0B       		.uleb128 0xb
 2448 0829 570D0000 		.4byte	.LASF117
 2449 082d 0B       		.byte	0xb
 2450 082e 3C       		.byte	0x3c
 2451 082f DC000000 		.4byte	0xdc
 2452 0833 14       		.byte	0x14
 2453 0834 0B       		.uleb128 0xb
 2454 0835 2F090000 		.4byte	.LASF118
 2455 0839 0B       		.byte	0xb
 2456 083a 3D       		.byte	0x3d
 2457 083b DC000000 		.4byte	0xdc
 2458 083f 18       		.byte	0x18
 2459 0840 0B       		.uleb128 0xb
 2460 0841 0C180000 		.4byte	.LASF119
 2461 0845 0B       		.byte	0xb
 2462 0846 3E       		.byte	0x3e
 2463 0847 DC000000 		.4byte	0xdc
 2464 084b 1C       		.byte	0x1c
ARM GAS  C:\Users\louis\AppData\Local\Temp\ccj8Y2ua.s 			page 81


 2465 084c 0B       		.uleb128 0xb
 2466 084d 570C0000 		.4byte	.LASF120
 2467 0851 0B       		.byte	0xb
 2468 0852 3F       		.byte	0x3f
 2469 0853 DC000000 		.4byte	0xdc
 2470 0857 20       		.byte	0x20
 2471 0858 0B       		.uleb128 0xb
 2472 0859 0F0A0000 		.4byte	.LASF121
 2473 085d 0B       		.byte	0xb
 2474 085e 40       		.byte	0x40
 2475 085f DC000000 		.4byte	0xdc
 2476 0863 24       		.byte	0x24
 2477 0864 0B       		.uleb128 0xb
 2478 0865 05120000 		.4byte	.LASF122
 2479 0869 0B       		.byte	0xb
 2480 086a 43       		.byte	0x43
 2481 086b B0000000 		.4byte	0xb0
 2482 086f 28       		.byte	0x28
 2483 0870 0B       		.uleb128 0xb
 2484 0871 DF110000 		.4byte	.LASF123
 2485 0875 0B       		.byte	0xb
 2486 0876 44       		.byte	0x44
 2487 0877 B0000000 		.4byte	0xb0
 2488 087b 29       		.byte	0x29
 2489 087c 0B       		.uleb128 0xb
 2490 087d 3C150000 		.4byte	.LASF124
 2491 0881 0B       		.byte	0xb
 2492 0882 45       		.byte	0x45
 2493 0883 B0000000 		.4byte	0xb0
 2494 0887 2A       		.byte	0x2a
 2495 0888 0B       		.uleb128 0xb
 2496 0889 47120000 		.4byte	.LASF125
 2497 088d 0B       		.byte	0xb
 2498 088e 46       		.byte	0x46
 2499 088f B0000000 		.4byte	0xb0
 2500 0893 2B       		.byte	0x2b
 2501 0894 0B       		.uleb128 0xb
 2502 0895 2E120000 		.4byte	.LASF126
 2503 0899 0B       		.byte	0xb
 2504 089a 47       		.byte	0x47
 2505 089b B0000000 		.4byte	0xb0
 2506 089f 2C       		.byte	0x2c
 2507 08a0 0B       		.uleb128 0xb
 2508 08a1 40140000 		.4byte	.LASF127
 2509 08a5 0B       		.byte	0xb
 2510 08a6 48       		.byte	0x48
 2511 08a7 B0000000 		.4byte	0xb0
 2512 08ab 2D       		.byte	0x2d
 2513 08ac 0B       		.uleb128 0xb
 2514 08ad 02190000 		.4byte	.LASF128
 2515 08b1 0B       		.byte	0xb
 2516 08b2 49       		.byte	0x49
 2517 08b3 B0000000 		.4byte	0xb0
 2518 08b7 2E       		.byte	0x2e
 2519 08b8 0B       		.uleb128 0xb
 2520 08b9 E6170000 		.4byte	.LASF129
 2521 08bd 0B       		.byte	0xb
ARM GAS  C:\Users\louis\AppData\Local\Temp\ccj8Y2ua.s 			page 82


 2522 08be 4A       		.byte	0x4a
 2523 08bf B0000000 		.4byte	0xb0
 2524 08c3 2F       		.byte	0x2f
 2525 08c4 0B       		.uleb128 0xb
 2526 08c5 B3040000 		.4byte	.LASF130
 2527 08c9 0B       		.byte	0xb
 2528 08ca 4B       		.byte	0x4b
 2529 08cb B0000000 		.4byte	0xb0
 2530 08cf 30       		.byte	0x30
 2531 08d0 0B       		.uleb128 0xb
 2532 08d1 420E0000 		.4byte	.LASF131
 2533 08d5 0B       		.byte	0xb
 2534 08d6 4E       		.byte	0x4e
 2535 08d7 B0000000 		.4byte	0xb0
 2536 08db 31       		.byte	0x31
 2537 08dc 0B       		.uleb128 0xb
 2538 08dd 18170000 		.4byte	.LASF132
 2539 08e1 0B       		.byte	0xb
 2540 08e2 4F       		.byte	0x4f
 2541 08e3 B0000000 		.4byte	0xb0
 2542 08e7 32       		.byte	0x32
 2543 08e8 0B       		.uleb128 0xb
 2544 08e9 BB0D0000 		.4byte	.LASF133
 2545 08ed 0B       		.byte	0xb
 2546 08ee 50       		.byte	0x50
 2547 08ef B0000000 		.4byte	0xb0
 2548 08f3 33       		.byte	0x33
 2549 08f4 0B       		.uleb128 0xb
 2550 08f5 430A0000 		.4byte	.LASF134
 2551 08f9 0B       		.byte	0xb
 2552 08fa 51       		.byte	0x51
 2553 08fb B0000000 		.4byte	0xb0
 2554 08ff 34       		.byte	0x34
 2555 0900 0B       		.uleb128 0xb
 2556 0901 02070000 		.4byte	.LASF135
 2557 0905 0B       		.byte	0xb
 2558 0906 52       		.byte	0x52
 2559 0907 BB000000 		.4byte	0xbb
 2560 090b 36       		.byte	0x36
 2561 090c 0B       		.uleb128 0xb
 2562 090d C1020000 		.4byte	.LASF136
 2563 0911 0B       		.byte	0xb
 2564 0912 53       		.byte	0x53
 2565 0913 BB000000 		.4byte	0xbb
 2566 0917 38       		.byte	0x38
 2567 0918 0B       		.uleb128 0xb
 2568 0919 F0020000 		.4byte	.LASF137
 2569 091d 0B       		.byte	0xb
 2570 091e 54       		.byte	0x54
 2571 091f BB000000 		.4byte	0xbb
 2572 0923 3A       		.byte	0x3a
 2573 0924 0B       		.uleb128 0xb
 2574 0925 340A0000 		.4byte	.LASF138
 2575 0929 0B       		.byte	0xb
 2576 092a 55       		.byte	0x55
 2577 092b B0000000 		.4byte	0xb0
 2578 092f 3C       		.byte	0x3c
ARM GAS  C:\Users\louis\AppData\Local\Temp\ccj8Y2ua.s 			page 83


 2579 0930 0B       		.uleb128 0xb
 2580 0931 B1030000 		.4byte	.LASF139
 2581 0935 0B       		.byte	0xb
 2582 0936 56       		.byte	0x56
 2583 0937 B0000000 		.4byte	0xb0
 2584 093b 3D       		.byte	0x3d
 2585 093c 0B       		.uleb128 0xb
 2586 093d 33100000 		.4byte	.LASF140
 2587 0941 0B       		.byte	0xb
 2588 0942 57       		.byte	0x57
 2589 0943 B0000000 		.4byte	0xb0
 2590 0947 3E       		.byte	0x3e
 2591 0948 0B       		.uleb128 0xb
 2592 0949 DF000000 		.4byte	.LASF141
 2593 094d 0B       		.byte	0xb
 2594 094e 58       		.byte	0x58
 2595 094f B0000000 		.4byte	0xb0
 2596 0953 3F       		.byte	0x3f
 2597 0954 0B       		.uleb128 0xb
 2598 0955 0A020000 		.4byte	.LASF142
 2599 0959 0B       		.byte	0xb
 2600 095a 59       		.byte	0x59
 2601 095b B0000000 		.4byte	0xb0
 2602 095f 40       		.byte	0x40
 2603 0960 0B       		.uleb128 0xb
 2604 0961 750E0000 		.4byte	.LASF143
 2605 0965 0B       		.byte	0xb
 2606 0966 5A       		.byte	0x5a
 2607 0967 B0000000 		.4byte	0xb0
 2608 096b 41       		.byte	0x41
 2609 096c 0B       		.uleb128 0xb
 2610 096d 14060000 		.4byte	.LASF144
 2611 0971 0B       		.byte	0xb
 2612 0972 5B       		.byte	0x5b
 2613 0973 B0000000 		.4byte	0xb0
 2614 0977 42       		.byte	0x42
 2615 0978 0B       		.uleb128 0xb
 2616 0979 A1090000 		.4byte	.LASF145
 2617 097d 0B       		.byte	0xb
 2618 097e 5C       		.byte	0x5c
 2619 097f B0000000 		.4byte	0xb0
 2620 0983 43       		.byte	0x43
 2621 0984 0B       		.uleb128 0xb
 2622 0985 C50A0000 		.4byte	.LASF146
 2623 0989 0B       		.byte	0xb
 2624 098a 5D       		.byte	0x5d
 2625 098b B0000000 		.4byte	0xb0
 2626 098f 44       		.byte	0x44
 2627 0990 0B       		.uleb128 0xb
 2628 0991 75160000 		.4byte	.LASF147
 2629 0995 0B       		.byte	0xb
 2630 0996 5E       		.byte	0x5e
 2631 0997 DC000000 		.4byte	0xdc
 2632 099b 48       		.byte	0x48
 2633 099c 0B       		.uleb128 0xb
 2634 099d D60A0000 		.4byte	.LASF148
 2635 09a1 0B       		.byte	0xb
ARM GAS  C:\Users\louis\AppData\Local\Temp\ccj8Y2ua.s 			page 84


 2636 09a2 5F       		.byte	0x5f
 2637 09a3 DC000000 		.4byte	0xdc
 2638 09a7 4C       		.byte	0x4c
 2639 09a8 0B       		.uleb128 0xb
 2640 09a9 98160000 		.4byte	.LASF149
 2641 09ad 0B       		.byte	0xb
 2642 09ae 60       		.byte	0x60
 2643 09af B0000000 		.4byte	0xb0
 2644 09b3 50       		.byte	0x50
 2645 09b4 0B       		.uleb128 0xb
 2646 09b5 2A150000 		.4byte	.LASF150
 2647 09b9 0B       		.byte	0xb
 2648 09ba 61       		.byte	0x61
 2649 09bb B0000000 		.4byte	0xb0
 2650 09bf 51       		.byte	0x51
 2651 09c0 0B       		.uleb128 0xb
 2652 09c1 D70C0000 		.4byte	.LASF151
 2653 09c5 0B       		.byte	0xb
 2654 09c6 62       		.byte	0x62
 2655 09c7 B0000000 		.4byte	0xb0
 2656 09cb 52       		.byte	0x52
 2657 09cc 0B       		.uleb128 0xb
 2658 09cd 100F0000 		.4byte	.LASF152
 2659 09d1 0B       		.byte	0xb
 2660 09d2 63       		.byte	0x63
 2661 09d3 B0000000 		.4byte	0xb0
 2662 09d7 53       		.byte	0x53
 2663 09d8 0B       		.uleb128 0xb
 2664 09d9 E8150000 		.4byte	.LASF153
 2665 09dd 0B       		.byte	0xb
 2666 09de 64       		.byte	0x64
 2667 09df B0000000 		.4byte	0xb0
 2668 09e3 54       		.byte	0x54
 2669 09e4 0B       		.uleb128 0xb
 2670 09e5 71170000 		.4byte	.LASF154
 2671 09e9 0B       		.byte	0xb
 2672 09ea 65       		.byte	0x65
 2673 09eb B0000000 		.4byte	0xb0
 2674 09ef 55       		.byte	0x55
 2675 09f0 0B       		.uleb128 0xb
 2676 09f1 C1160000 		.4byte	.LASF155
 2677 09f5 0B       		.byte	0xb
 2678 09f6 66       		.byte	0x66
 2679 09f7 B0000000 		.4byte	0xb0
 2680 09fb 56       		.byte	0x56
 2681 09fc 0B       		.uleb128 0xb
 2682 09fd 360D0000 		.4byte	.LASF156
 2683 0a01 0B       		.byte	0xb
 2684 0a02 67       		.byte	0x67
 2685 0a03 B0000000 		.4byte	0xb0
 2686 0a07 57       		.byte	0x57
 2687 0a08 0B       		.uleb128 0xb
 2688 0a09 32080000 		.4byte	.LASF157
 2689 0a0d 0B       		.byte	0xb
 2690 0a0e 68       		.byte	0x68
 2691 0a0f B0000000 		.4byte	0xb0
 2692 0a13 58       		.byte	0x58
ARM GAS  C:\Users\louis\AppData\Local\Temp\ccj8Y2ua.s 			page 85


 2693 0a14 0B       		.uleb128 0xb
 2694 0a15 5A180000 		.4byte	.LASF158
 2695 0a19 0B       		.byte	0xb
 2696 0a1a 69       		.byte	0x69
 2697 0a1b B0000000 		.4byte	0xb0
 2698 0a1f 59       		.byte	0x59
 2699 0a20 0B       		.uleb128 0xb
 2700 0a21 0D170000 		.4byte	.LASF159
 2701 0a25 0B       		.byte	0xb
 2702 0a26 6E       		.byte	0x6e
 2703 0a27 C6000000 		.4byte	0xc6
 2704 0a2b 5A       		.byte	0x5a
 2705 0a2c 0B       		.uleb128 0xb
 2706 0a2d 82010000 		.4byte	.LASF160
 2707 0a31 0B       		.byte	0xb
 2708 0a32 6F       		.byte	0x6f
 2709 0a33 C6000000 		.4byte	0xc6
 2710 0a37 5C       		.byte	0x5c
 2711 0a38 0B       		.uleb128 0xb
 2712 0a39 48020000 		.4byte	.LASF161
 2713 0a3d 0B       		.byte	0xb
 2714 0a3e 70       		.byte	0x70
 2715 0a3f B0000000 		.4byte	0xb0
 2716 0a43 5E       		.byte	0x5e
 2717 0a44 0B       		.uleb128 0xb
 2718 0a45 6F090000 		.4byte	.LASF162
 2719 0a49 0B       		.byte	0xb
 2720 0a4a 71       		.byte	0x71
 2721 0a4b B0000000 		.4byte	0xb0
 2722 0a4f 5F       		.byte	0x5f
 2723 0a50 0B       		.uleb128 0xb
 2724 0a51 CC090000 		.4byte	.LASF163
 2725 0a55 0B       		.byte	0xb
 2726 0a56 72       		.byte	0x72
 2727 0a57 B0000000 		.4byte	0xb0
 2728 0a5b 60       		.byte	0x60
 2729 0a5c 0B       		.uleb128 0xb
 2730 0a5d 2A0B0000 		.4byte	.LASF164
 2731 0a61 0B       		.byte	0xb
 2732 0a62 73       		.byte	0x73
 2733 0a63 DC000000 		.4byte	0xdc
 2734 0a67 64       		.byte	0x64
 2735 0a68 0B       		.uleb128 0xb
 2736 0a69 83100000 		.4byte	.LASF165
 2737 0a6d 0B       		.byte	0xb
 2738 0a6e 76       		.byte	0x76
 2739 0a6f C6000000 		.4byte	0xc6
 2740 0a73 68       		.byte	0x68
 2741 0a74 0B       		.uleb128 0xb
 2742 0a75 00100000 		.4byte	.LASF166
 2743 0a79 0B       		.byte	0xb
 2744 0a7a 77       		.byte	0x77
 2745 0a7b C6000000 		.4byte	0xc6
 2746 0a7f 6A       		.byte	0x6a
 2747 0a80 0B       		.uleb128 0xb
 2748 0a81 890D0000 		.4byte	.LASF167
 2749 0a85 0B       		.byte	0xb
ARM GAS  C:\Users\louis\AppData\Local\Temp\ccj8Y2ua.s 			page 86


 2750 0a86 78       		.byte	0x78
 2751 0a87 C6000000 		.4byte	0xc6
 2752 0a8b 6C       		.byte	0x6c
 2753 0a8c 0B       		.uleb128 0xb
 2754 0a8d 45030000 		.4byte	.LASF168
 2755 0a91 0B       		.byte	0xb
 2756 0a92 79       		.byte	0x79
 2757 0a93 C6000000 		.4byte	0xc6
 2758 0a97 6E       		.byte	0x6e
 2759 0a98 0B       		.uleb128 0xb
 2760 0a99 E7070000 		.4byte	.LASF169
 2761 0a9d 0B       		.byte	0xb
 2762 0a9e 7B       		.byte	0x7b
 2763 0a9f B0000000 		.4byte	0xb0
 2764 0aa3 70       		.byte	0x70
 2765 0aa4 0B       		.uleb128 0xb
 2766 0aa5 F0040000 		.4byte	.LASF170
 2767 0aa9 0B       		.byte	0xb
 2768 0aaa 7C       		.byte	0x7c
 2769 0aab B0000000 		.4byte	0xb0
 2770 0aaf 71       		.byte	0x71
 2771 0ab0 0B       		.uleb128 0xb
 2772 0ab1 5D030000 		.4byte	.LASF171
 2773 0ab5 0B       		.byte	0xb
 2774 0ab6 7D       		.byte	0x7d
 2775 0ab7 B0000000 		.4byte	0xb0
 2776 0abb 72       		.byte	0x72
 2777 0abc 0B       		.uleb128 0xb
 2778 0abd 31020000 		.4byte	.LASF172
 2779 0ac1 0B       		.byte	0xb
 2780 0ac2 7E       		.byte	0x7e
 2781 0ac3 B0000000 		.4byte	0xb0
 2782 0ac7 73       		.byte	0x73
 2783 0ac8 0B       		.uleb128 0xb
 2784 0ac9 43110000 		.4byte	.LASF173
 2785 0acd 0B       		.byte	0xb
 2786 0ace 80       		.byte	0x80
 2787 0acf C6000000 		.4byte	0xc6
 2788 0ad3 74       		.byte	0x74
 2789 0ad4 0B       		.uleb128 0xb
 2790 0ad5 220F0000 		.4byte	.LASF174
 2791 0ad9 0B       		.byte	0xb
 2792 0ada 81       		.byte	0x81
 2793 0adb C6000000 		.4byte	0xc6
 2794 0adf 76       		.byte	0x76
 2795 0ae0 0B       		.uleb128 0xb
 2796 0ae1 36180000 		.4byte	.LASF175
 2797 0ae5 0B       		.byte	0xb
 2798 0ae6 82       		.byte	0x82
 2799 0ae7 C6000000 		.4byte	0xc6
 2800 0aeb 78       		.byte	0x78
 2801 0aec 0B       		.uleb128 0xb
 2802 0aed BD130000 		.4byte	.LASF176
 2803 0af1 0B       		.byte	0xb
 2804 0af2 83       		.byte	0x83
 2805 0af3 C6000000 		.4byte	0xc6
 2806 0af7 7A       		.byte	0x7a
ARM GAS  C:\Users\louis\AppData\Local\Temp\ccj8Y2ua.s 			page 87


 2807 0af8 0B       		.uleb128 0xb
 2808 0af9 A70B0000 		.4byte	.LASF177
 2809 0afd 0B       		.byte	0xb
 2810 0afe 86       		.byte	0x86
 2811 0aff B0000000 		.4byte	0xb0
 2812 0b03 7C       		.byte	0x7c
 2813 0b04 0B       		.uleb128 0xb
 2814 0b05 A9160000 		.4byte	.LASF178
 2815 0b09 0B       		.byte	0xb
 2816 0b0a 87       		.byte	0x87
 2817 0b0b B0000000 		.4byte	0xb0
 2818 0b0f 7D       		.byte	0x7d
 2819 0b10 0B       		.uleb128 0xb
 2820 0b11 7C060000 		.4byte	.LASF179
 2821 0b15 0B       		.byte	0xb
 2822 0b16 88       		.byte	0x88
 2823 0b17 B0000000 		.4byte	0xb0
 2824 0b1b 7E       		.byte	0x7e
 2825 0b1c 0B       		.uleb128 0xb
 2826 0b1d A9050000 		.4byte	.LASF180
 2827 0b21 0B       		.byte	0xb
 2828 0b22 89       		.byte	0x89
 2829 0b23 B0000000 		.4byte	0xb0
 2830 0b27 7F       		.byte	0x7f
 2831 0b28 0B       		.uleb128 0xb
 2832 0b29 BD060000 		.4byte	.LASF181
 2833 0b2d 0B       		.byte	0xb
 2834 0b2e 8A       		.byte	0x8a
 2835 0b2f B0000000 		.4byte	0xb0
 2836 0b33 80       		.byte	0x80
 2837 0b34 0B       		.uleb128 0xb
 2838 0b35 C8000000 		.4byte	.LASF182
 2839 0b39 0B       		.byte	0xb
 2840 0b3a 8D       		.byte	0x8d
 2841 0b3b DC000000 		.4byte	0xdc
 2842 0b3f 84       		.byte	0x84
 2843 0b40 0B       		.uleb128 0xb
 2844 0b41 D2130000 		.4byte	.LASF183
 2845 0b45 0B       		.byte	0xb
 2846 0b46 8E       		.byte	0x8e
 2847 0b47 DC000000 		.4byte	0xdc
 2848 0b4b 88       		.byte	0x88
 2849 0b4c 0B       		.uleb128 0xb
 2850 0b4d 85170000 		.4byte	.LASF184
 2851 0b51 0B       		.byte	0xb
 2852 0b52 8F       		.byte	0x8f
 2853 0b53 DC000000 		.4byte	0xdc
 2854 0b57 8C       		.byte	0x8c
 2855 0b58 0B       		.uleb128 0xb
 2856 0b59 04150000 		.4byte	.LASF185
 2857 0b5d 0B       		.byte	0xb
 2858 0b5e 90       		.byte	0x90
 2859 0b5f DC000000 		.4byte	0xdc
 2860 0b63 90       		.byte	0x90
 2861 0b64 0B       		.uleb128 0xb
 2862 0b65 44130000 		.4byte	.LASF186
 2863 0b69 0B       		.byte	0xb
ARM GAS  C:\Users\louis\AppData\Local\Temp\ccj8Y2ua.s 			page 88


 2864 0b6a 91       		.byte	0x91
 2865 0b6b DC000000 		.4byte	0xdc
 2866 0b6f 94       		.byte	0x94
 2867 0b70 0B       		.uleb128 0xb
 2868 0b71 05050000 		.4byte	.LASF187
 2869 0b75 0B       		.byte	0xb
 2870 0b76 92       		.byte	0x92
 2871 0b77 DC000000 		.4byte	0xdc
 2872 0b7b 98       		.byte	0x98
 2873 0b7c 0B       		.uleb128 0xb
 2874 0b7d 0F140000 		.4byte	.LASF188
 2875 0b81 0B       		.byte	0xb
 2876 0b82 93       		.byte	0x93
 2877 0b83 DC000000 		.4byte	0xdc
 2878 0b87 9C       		.byte	0x9c
 2879 0b88 0B       		.uleb128 0xb
 2880 0b89 8B090000 		.4byte	.LASF189
 2881 0b8d 0B       		.byte	0xb
 2882 0b8e 94       		.byte	0x94
 2883 0b8f DC000000 		.4byte	0xdc
 2884 0b93 A0       		.byte	0xa0
 2885 0b94 0B       		.uleb128 0xb
 2886 0b95 6D010000 		.4byte	.LASF190
 2887 0b99 0B       		.byte	0xb
 2888 0b9a 95       		.byte	0x95
 2889 0b9b C6000000 		.4byte	0xc6
 2890 0b9f A4       		.byte	0xa4
 2891 0ba0 0B       		.uleb128 0xb
 2892 0ba1 1D110000 		.4byte	.LASF191
 2893 0ba5 0B       		.byte	0xb
 2894 0ba6 96       		.byte	0x96
 2895 0ba7 C6000000 		.4byte	0xc6
 2896 0bab A6       		.byte	0xa6
 2897 0bac 0B       		.uleb128 0xb
 2898 0bad 5F140000 		.4byte	.LASF192
 2899 0bb1 0B       		.byte	0xb
 2900 0bb2 97       		.byte	0x97
 2901 0bb3 C6000000 		.4byte	0xc6
 2902 0bb7 A8       		.byte	0xa8
 2903 0bb8 0B       		.uleb128 0xb
 2904 0bb9 270C0000 		.4byte	.LASF193
 2905 0bbd 0B       		.byte	0xb
 2906 0bbe 98       		.byte	0x98
 2907 0bbf C6000000 		.4byte	0xc6
 2908 0bc3 AA       		.byte	0xaa
 2909 0bc4 0B       		.uleb128 0xb
 2910 0bc5 92030000 		.4byte	.LASF194
 2911 0bc9 0B       		.byte	0xb
 2912 0bca 99       		.byte	0x99
 2913 0bcb C6000000 		.4byte	0xc6
 2914 0bcf AC       		.byte	0xac
 2915 0bd0 0B       		.uleb128 0xb
 2916 0bd1 950E0000 		.4byte	.LASF195
 2917 0bd5 0B       		.byte	0xb
 2918 0bd6 9A       		.byte	0x9a
 2919 0bd7 C6000000 		.4byte	0xc6
 2920 0bdb AE       		.byte	0xae
ARM GAS  C:\Users\louis\AppData\Local\Temp\ccj8Y2ua.s 			page 89


 2921 0bdc 0B       		.uleb128 0xb
 2922 0bdd BC030000 		.4byte	.LASF196
 2923 0be1 0B       		.byte	0xb
 2924 0be2 9D       		.byte	0x9d
 2925 0be3 C6000000 		.4byte	0xc6
 2926 0be7 B0       		.byte	0xb0
 2927 0be8 0B       		.uleb128 0xb
 2928 0be9 8D000000 		.4byte	.LASF197
 2929 0bed 0B       		.byte	0xb
 2930 0bee 9E       		.byte	0x9e
 2931 0bef DC000000 		.4byte	0xdc
 2932 0bf3 B4       		.byte	0xb4
 2933 0bf4 00       		.byte	0
 2934 0bf5 03       		.uleb128 0x3
 2935 0bf6 9A170000 		.4byte	.LASF198
 2936 0bfa 0B       		.byte	0xb
 2937 0bfb 9F       		.byte	0x9f
 2938 0bfc E4070000 		.4byte	0x7e4
 2939 0c00 11       		.uleb128 0x11
 2940 0c01 04       		.byte	0x4
 2941 0c02 060C0000 		.4byte	0xc06
 2942 0c06 12       		.uleb128 0x12
 2943 0c07 10       		.uleb128 0x10
 2944 0c08 BB120000 		.4byte	.LASF199
 2945 0c0c 0C       		.byte	0xc
 2946 0c0d F601     		.2byte	0x1f6
 2947 0c0f 130C0000 		.4byte	0xc13
 2948 0c13 02       		.uleb128 0x2
 2949 0c14 01       		.byte	0x1
 2950 0c15 08       		.byte	0x8
 2951 0c16 920A0000 		.4byte	.LASF200
 2952 0c1a 10       		.uleb128 0x10
 2953 0c1b F8170000 		.4byte	.LASF201
 2954 0c1f 0C       		.byte	0xc
 2955 0c20 EA03     		.2byte	0x3ea
 2956 0c22 B0000000 		.4byte	0xb0
 2957 0c26 10       		.uleb128 0x10
 2958 0c27 3B0E0000 		.4byte	.LASF202
 2959 0c2b 0C       		.byte	0xc
 2960 0c2c EC03     		.2byte	0x3ec
 2961 0c2e DC000000 		.4byte	0xdc
 2962 0c32 13       		.uleb128 0x13
 2963 0c33 04       		.byte	0x4
 2964 0c34 02       		.uleb128 0x2
 2965 0c35 01       		.byte	0x1
 2966 0c36 02       		.byte	0x2
 2967 0c37 B8080000 		.4byte	.LASF203
 2968 0c3b 14       		.uleb128 0x14
 2969 0c3c 01       		.byte	0x1
 2970 0c3d 4C000000 		.4byte	0x4c
 2971 0c41 0D       		.byte	0xd
 2972 0c42 0703     		.2byte	0x307
 2973 0c44 550C0000 		.4byte	0xc55
 2974 0c48 15       		.uleb128 0x15
 2975 0c49 35160000 		.4byte	.LASF204
 2976 0c4d 00       		.byte	0
 2977 0c4e 15       		.uleb128 0x15
ARM GAS  C:\Users\louis\AppData\Local\Temp\ccj8Y2ua.s 			page 90


 2978 0c4f D4180000 		.4byte	.LASF205
 2979 0c53 01       		.byte	0x1
 2980 0c54 00       		.byte	0
 2981 0c55 14       		.uleb128 0x14
 2982 0c56 01       		.byte	0x1
 2983 0c57 4C000000 		.4byte	0x4c
 2984 0c5b 0D       		.byte	0xd
 2985 0c5c 1304     		.2byte	0x413
 2986 0c5e 7B0C0000 		.4byte	0xc7b
 2987 0c62 15       		.uleb128 0x15
 2988 0c63 D8020000 		.4byte	.LASF206
 2989 0c67 00       		.byte	0
 2990 0c68 15       		.uleb128 0x15
 2991 0c69 6C070000 		.4byte	.LASF207
 2992 0c6d 01       		.byte	0x1
 2993 0c6e 15       		.uleb128 0x15
 2994 0c6f 7A0A0000 		.4byte	.LASF208
 2995 0c73 02       		.byte	0x2
 2996 0c74 15       		.uleb128 0x15
 2997 0c75 17020000 		.4byte	.LASF209
 2998 0c79 03       		.byte	0x3
 2999 0c7a 00       		.byte	0
 3000 0c7b 10       		.uleb128 0x10
 3001 0c7c 84180000 		.4byte	.LASF210
 3002 0c80 0D       		.byte	0xd
 3003 0c81 1804     		.2byte	0x418
 3004 0c83 550C0000 		.4byte	0xc55
 3005 0c87 16       		.uleb128 0x16
 3006 0c88 78       		.byte	0x78
 3007 0c89 0D       		.byte	0xd
 3008 0c8a 0205     		.2byte	0x502
 3009 0c8c 540D0000 		.4byte	0xd54
 3010 0c90 17       		.uleb128 0x17
 3011 0c91 A7070000 		.4byte	.LASF211
 3012 0c95 0D       		.byte	0xd
 3013 0c96 0405     		.2byte	0x504
 3014 0c98 DC000000 		.4byte	0xdc
 3015 0c9c 00       		.byte	0
 3016 0c9d 17       		.uleb128 0x17
 3017 0c9e 19150000 		.4byte	.LASF212
 3018 0ca2 0D       		.byte	0xd
 3019 0ca3 0505     		.2byte	0x505
 3020 0ca5 DC000000 		.4byte	0xdc
 3021 0ca9 04       		.byte	0x4
 3022 0caa 17       		.uleb128 0x17
 3023 0cab 19100000 		.4byte	.LASF213
 3024 0caf 0D       		.byte	0xd
 3025 0cb0 0605     		.2byte	0x506
 3026 0cb2 DC000000 		.4byte	0xdc
 3027 0cb6 08       		.byte	0x8
 3028 0cb7 17       		.uleb128 0x17
 3029 0cb8 25140000 		.4byte	.LASF214
 3030 0cbc 0D       		.byte	0xd
 3031 0cbd 0705     		.2byte	0x507
 3032 0cbf DC000000 		.4byte	0xdc
 3033 0cc3 0C       		.byte	0xc
 3034 0cc4 17       		.uleb128 0x17
ARM GAS  C:\Users\louis\AppData\Local\Temp\ccj8Y2ua.s 			page 91


 3035 0cc5 57010000 		.4byte	.LASF215
 3036 0cc9 0D       		.byte	0xd
 3037 0cca 0805     		.2byte	0x508
 3038 0ccc DC000000 		.4byte	0xdc
 3039 0cd0 10       		.byte	0x10
 3040 0cd1 17       		.uleb128 0x17
 3041 0cd2 F00B0000 		.4byte	.LASF216
 3042 0cd6 0D       		.byte	0xd
 3043 0cd7 0905     		.2byte	0x509
 3044 0cd9 7B0C0000 		.4byte	0xc7b
 3045 0cdd 14       		.byte	0x14
 3046 0cde 17       		.uleb128 0x17
 3047 0cdf 9F0A0000 		.4byte	.LASF217
 3048 0ce3 0D       		.byte	0xd
 3049 0ce4 0A05     		.2byte	0x50a
 3050 0ce6 DC000000 		.4byte	0xdc
 3051 0cea 18       		.byte	0x18
 3052 0ceb 17       		.uleb128 0x17
 3053 0cec F70D0000 		.4byte	.LASF218
 3054 0cf0 0D       		.byte	0xd
 3055 0cf1 0B05     		.2byte	0x50b
 3056 0cf3 540D0000 		.4byte	0xd54
 3057 0cf7 1C       		.byte	0x1c
 3058 0cf8 17       		.uleb128 0x17
 3059 0cf9 16190000 		.4byte	.LASF219
 3060 0cfd 0D       		.byte	0xd
 3061 0cfe 0C05     		.2byte	0x50c
 3062 0d00 DC000000 		.4byte	0xdc
 3063 0d04 5C       		.byte	0x5c
 3064 0d05 17       		.uleb128 0x17
 3065 0d06 86030000 		.4byte	.LASF220
 3066 0d0a 0D       		.byte	0xd
 3067 0d0b 0D05     		.2byte	0x50d
 3068 0d0d DC000000 		.4byte	0xdc
 3069 0d11 60       		.byte	0x60
 3070 0d12 17       		.uleb128 0x17
 3071 0d13 FA0B0000 		.4byte	.LASF221
 3072 0d17 0D       		.byte	0xd
 3073 0d18 0E05     		.2byte	0x50e
 3074 0d1a DC000000 		.4byte	0xdc
 3075 0d1e 64       		.byte	0x64
 3076 0d1f 17       		.uleb128 0x17
 3077 0d20 E10D0000 		.4byte	.LASF222
 3078 0d24 0D       		.byte	0xd
 3079 0d25 0F05     		.2byte	0x50f
 3080 0d27 DC000000 		.4byte	0xdc
 3081 0d2b 68       		.byte	0x68
 3082 0d2c 17       		.uleb128 0x17
 3083 0d2d BC0B0000 		.4byte	.LASF223
 3084 0d31 0D       		.byte	0xd
 3085 0d32 1005     		.2byte	0x510
 3086 0d34 DC000000 		.4byte	0xdc
 3087 0d38 6C       		.byte	0x6c
 3088 0d39 17       		.uleb128 0x17
 3089 0d3a FE170000 		.4byte	.LASF224
 3090 0d3e 0D       		.byte	0xd
 3091 0d3f 1105     		.2byte	0x511
ARM GAS  C:\Users\louis\AppData\Local\Temp\ccj8Y2ua.s 			page 92


 3092 0d41 340C0000 		.4byte	0xc34
 3093 0d45 70       		.byte	0x70
 3094 0d46 17       		.uleb128 0x17
 3095 0d47 030A0000 		.4byte	.LASF225
 3096 0d4b 0D       		.byte	0xd
 3097 0d4c 1205     		.2byte	0x512
 3098 0d4e DC000000 		.4byte	0xdc
 3099 0d52 74       		.byte	0x74
 3100 0d53 00       		.byte	0
 3101 0d54 07       		.uleb128 0x7
 3102 0d55 DC000000 		.4byte	0xdc
 3103 0d59 640D0000 		.4byte	0xd64
 3104 0d5d 08       		.uleb128 0x8
 3105 0d5e E7000000 		.4byte	0xe7
 3106 0d62 0F       		.byte	0xf
 3107 0d63 00       		.byte	0
 3108 0d64 10       		.uleb128 0x10
 3109 0d65 85070000 		.4byte	.LASF226
 3110 0d69 0D       		.byte	0xd
 3111 0d6a 1305     		.2byte	0x513
 3112 0d6c 870C0000 		.4byte	0xc87
 3113 0d70 11       		.uleb128 0x11
 3114 0d71 04       		.byte	0x4
 3115 0d72 760D0000 		.4byte	0xd76
 3116 0d76 18       		.uleb128 0x18
 3117 0d77 810D0000 		.4byte	0xd81
 3118 0d7b 19       		.uleb128 0x19
 3119 0d7c DC000000 		.4byte	0xdc
 3120 0d80 00       		.byte	0
 3121 0d81 10       		.uleb128 0x10
 3122 0d82 3F000000 		.4byte	.LASF227
 3123 0d86 0E       		.byte	0xe
 3124 0d87 F201     		.2byte	0x1f2
 3125 0d89 700D0000 		.4byte	0xd70
 3126 0d8d 1A       		.uleb128 0x1a
 3127 0d8e C6150000 		.4byte	.LASF239
 3128 0d92 24       		.byte	0x24
 3129 0d93 0E       		.byte	0xe
 3130 0d94 7402     		.2byte	0x274
 3131 0d96 100E0000 		.4byte	0xe10
 3132 0d9a 17       		.uleb128 0x17
 3133 0d9b 510B0000 		.4byte	.LASF228
 3134 0d9f 0E       		.byte	0xe
 3135 0da0 7702     		.2byte	0x277
 3136 0da2 EE000000 		.4byte	0xee
 3137 0da6 00       		.byte	0
 3138 0da7 17       		.uleb128 0x17
 3139 0da8 96080000 		.4byte	.LASF229
 3140 0dac 0E       		.byte	0xe
 3141 0dad 7902     		.2byte	0x279
 3142 0daf 320C0000 		.4byte	0xc32
 3143 0db3 04       		.byte	0x4
 3144 0db4 17       		.uleb128 0x17
 3145 0db5 2B190000 		.4byte	.LASF230
 3146 0db9 0E       		.byte	0xe
 3147 0dba 7A02     		.2byte	0x27a
 3148 0dbc DC000000 		.4byte	0xdc
ARM GAS  C:\Users\louis\AppData\Local\Temp\ccj8Y2ua.s 			page 93


 3149 0dc0 08       		.byte	0x8
 3150 0dc1 17       		.uleb128 0x17
 3151 0dc2 080B0000 		.4byte	.LASF231
 3152 0dc6 0E       		.byte	0xe
 3153 0dc7 7B02     		.2byte	0x27b
 3154 0dc9 EE000000 		.4byte	0xee
 3155 0dcd 0C       		.byte	0xc
 3156 0dce 17       		.uleb128 0x17
 3157 0dcf FA0E0000 		.4byte	.LASF232
 3158 0dd3 0E       		.byte	0xe
 3159 0dd4 7D02     		.2byte	0x27d
 3160 0dd6 320C0000 		.4byte	0xc32
 3161 0dda 10       		.byte	0x10
 3162 0ddb 17       		.uleb128 0x17
 3163 0ddc C3080000 		.4byte	.LASF233
 3164 0de0 0E       		.byte	0xe
 3165 0de1 7E02     		.2byte	0x27e
 3166 0de3 DC000000 		.4byte	0xdc
 3167 0de7 14       		.byte	0x14
 3168 0de8 17       		.uleb128 0x17
 3169 0de9 020D0000 		.4byte	.LASF234
 3170 0ded 0E       		.byte	0xe
 3171 0dee 7F02     		.2byte	0x27f
 3172 0df0 EE000000 		.4byte	0xee
 3173 0df4 18       		.byte	0x18
 3174 0df5 17       		.uleb128 0x17
 3175 0df6 9C080000 		.4byte	.LASF235
 3176 0dfa 0E       		.byte	0xe
 3177 0dfb 8502     		.2byte	0x285
 3178 0dfd 810D0000 		.4byte	0xd81
 3179 0e01 1C       		.byte	0x1c
 3180 0e02 17       		.uleb128 0x17
 3181 0e03 190B0000 		.4byte	.LASF236
 3182 0e07 0E       		.byte	0xe
 3183 0e08 8802     		.2byte	0x288
 3184 0e0a DC000000 		.4byte	0xdc
 3185 0e0e 20       		.byte	0x20
 3186 0e0f 00       		.byte	0
 3187 0e10 10       		.uleb128 0x10
 3188 0e11 130D0000 		.4byte	.LASF237
 3189 0e15 0E       		.byte	0xe
 3190 0e16 8B02     		.2byte	0x28b
 3191 0e18 8D0D0000 		.4byte	0xd8d
 3192 0e1c 10       		.uleb128 0x10
 3193 0e1d D10B0000 		.4byte	.LASF238
 3194 0e21 0F       		.byte	0xf
 3195 0e22 D901     		.2byte	0x1d9
 3196 0e24 700D0000 		.4byte	0xd70
 3197 0e28 1A       		.uleb128 0x1a
 3198 0e29 3E060000 		.4byte	.LASF240
 3199 0e2d 38       		.byte	0x38
 3200 0e2e 0F       		.byte	0xf
 3201 0e2f 7502     		.2byte	0x275
 3202 0e31 EC0E0000 		.4byte	0xeec
 3203 0e35 17       		.uleb128 0x17
 3204 0e36 19010000 		.4byte	.LASF241
 3205 0e3a 0F       		.byte	0xf
ARM GAS  C:\Users\louis\AppData\Local\Temp\ccj8Y2ua.s 			page 94


 3206 0e3b 7802     		.2byte	0x278
 3207 0e3d EE000000 		.4byte	0xee
 3208 0e41 00       		.byte	0
 3209 0e42 17       		.uleb128 0x17
 3210 0e43 1B050000 		.4byte	.LASF242
 3211 0e47 0F       		.byte	0xf
 3212 0e48 7902     		.2byte	0x279
 3213 0e4a EE000000 		.4byte	0xee
 3214 0e4e 04       		.byte	0x4
 3215 0e4f 17       		.uleb128 0x17
 3216 0e50 A10F0000 		.4byte	.LASF243
 3217 0e54 0F       		.byte	0xf
 3218 0e55 7B02     		.2byte	0x27b
 3219 0e57 320C0000 		.4byte	0xc32
 3220 0e5b 08       		.byte	0x8
 3221 0e5c 17       		.uleb128 0x17
 3222 0e5d 21030000 		.4byte	.LASF244
 3223 0e61 0F       		.byte	0xf
 3224 0e62 7C02     		.2byte	0x27c
 3225 0e64 DC000000 		.4byte	0xdc
 3226 0e68 0C       		.byte	0xc
 3227 0e69 17       		.uleb128 0x17
 3228 0e6a AD0D0000 		.4byte	.LASF245
 3229 0e6e 0F       		.byte	0xf
 3230 0e6f 7D02     		.2byte	0x27d
 3231 0e71 EE000000 		.4byte	0xee
 3232 0e75 10       		.byte	0x10
 3233 0e76 17       		.uleb128 0x17
 3234 0e77 A60A0000 		.4byte	.LASF246
 3235 0e7b 0F       		.byte	0xf
 3236 0e7c 7E02     		.2byte	0x27e
 3237 0e7e EE000000 		.4byte	0xee
 3238 0e82 14       		.byte	0x14
 3239 0e83 17       		.uleb128 0x17
 3240 0e84 96080000 		.4byte	.LASF229
 3241 0e88 0F       		.byte	0xf
 3242 0e89 8002     		.2byte	0x280
 3243 0e8b 320C0000 		.4byte	0xc32
 3244 0e8f 18       		.byte	0x18
 3245 0e90 17       		.uleb128 0x17
 3246 0e91 2B190000 		.4byte	.LASF230
 3247 0e95 0F       		.byte	0xf
 3248 0e96 8102     		.2byte	0x281
 3249 0e98 DC000000 		.4byte	0xdc
 3250 0e9c 1C       		.byte	0x1c
 3251 0e9d 17       		.uleb128 0x17
 3252 0e9e 080B0000 		.4byte	.LASF231
 3253 0ea2 0F       		.byte	0xf
 3254 0ea3 8202     		.2byte	0x282
 3255 0ea5 EE000000 		.4byte	0xee
 3256 0ea9 20       		.byte	0x20
 3257 0eaa 17       		.uleb128 0x17
 3258 0eab FA0E0000 		.4byte	.LASF232
 3259 0eaf 0F       		.byte	0xf
 3260 0eb0 8402     		.2byte	0x284
 3261 0eb2 320C0000 		.4byte	0xc32
 3262 0eb6 24       		.byte	0x24
ARM GAS  C:\Users\louis\AppData\Local\Temp\ccj8Y2ua.s 			page 95


 3263 0eb7 17       		.uleb128 0x17
 3264 0eb8 C3080000 		.4byte	.LASF233
 3265 0ebc 0F       		.byte	0xf
 3266 0ebd 8502     		.2byte	0x285
 3267 0ebf DC000000 		.4byte	0xdc
 3268 0ec3 28       		.byte	0x28
 3269 0ec4 17       		.uleb128 0x17
 3270 0ec5 20130000 		.4byte	.LASF247
 3271 0ec9 0F       		.byte	0xf
 3272 0eca 8602     		.2byte	0x286
 3273 0ecc EE000000 		.4byte	0xee
 3274 0ed0 2C       		.byte	0x2c
 3275 0ed1 17       		.uleb128 0x17
 3276 0ed2 9C080000 		.4byte	.LASF235
 3277 0ed6 0F       		.byte	0xf
 3278 0ed7 8B02     		.2byte	0x28b
 3279 0ed9 1C0E0000 		.4byte	0xe1c
 3280 0edd 30       		.byte	0x30
 3281 0ede 17       		.uleb128 0x17
 3282 0edf 190B0000 		.4byte	.LASF236
 3283 0ee3 0F       		.byte	0xf
 3284 0ee4 8E02     		.2byte	0x28e
 3285 0ee6 DC000000 		.4byte	0xdc
 3286 0eea 34       		.byte	0x34
 3287 0eeb 00       		.byte	0
 3288 0eec 10       		.uleb128 0x10
 3289 0eed 6C020000 		.4byte	.LASF248
 3290 0ef1 0F       		.byte	0xf
 3291 0ef2 9102     		.2byte	0x291
 3292 0ef4 280E0000 		.4byte	0xe28
 3293 0ef8 1B       		.uleb128 0x1b
 3294 0ef9 26170000 		.4byte	.LASF249
 3295 0efd 4C       		.byte	0x4c
 3296 0efe 10       		.byte	0x10
 3297 0eff 2F       		.byte	0x2f
 3298 0f00 E90F0000 		.4byte	0xfe9
 3299 0f04 0B       		.uleb128 0xb
 3300 0f05 FA160000 		.4byte	.LASF250
 3301 0f09 10       		.byte	0x10
 3302 0f0a 31       		.byte	0x31
 3303 0f0b DC000000 		.4byte	0xdc
 3304 0f0f 00       		.byte	0
 3305 0f10 0B       		.uleb128 0xb
 3306 0f11 E40A0000 		.4byte	.LASF251
 3307 0f15 10       		.byte	0x10
 3308 0f16 33       		.byte	0x33
 3309 0f17 DC000000 		.4byte	0xdc
 3310 0f1b 04       		.byte	0x4
 3311 0f1c 0B       		.uleb128 0xb
 3312 0f1d F80F0000 		.4byte	.LASF252
 3313 0f21 10       		.byte	0x10
 3314 0f22 34       		.byte	0x34
 3315 0f23 DC000000 		.4byte	0xdc
 3316 0f27 08       		.byte	0x8
 3317 0f28 0B       		.uleb128 0xb
 3318 0f29 67120000 		.4byte	.LASF253
 3319 0f2d 10       		.byte	0x10
ARM GAS  C:\Users\louis\AppData\Local\Temp\ccj8Y2ua.s 			page 96


 3320 0f2e 35       		.byte	0x35
 3321 0f2f DC000000 		.4byte	0xdc
 3322 0f33 0C       		.byte	0xc
 3323 0f34 0B       		.uleb128 0xb
 3324 0f35 32110000 		.4byte	.LASF254
 3325 0f39 10       		.byte	0x10
 3326 0f3a 37       		.byte	0x37
 3327 0f3b DC000000 		.4byte	0xdc
 3328 0f3f 10       		.byte	0x10
 3329 0f40 0B       		.uleb128 0xb
 3330 0f41 E4030000 		.4byte	.LASF255
 3331 0f45 10       		.byte	0x10
 3332 0f46 38       		.byte	0x38
 3333 0f47 DC000000 		.4byte	0xdc
 3334 0f4b 14       		.byte	0x14
 3335 0f4c 0B       		.uleb128 0xb
 3336 0f4d ED030000 		.4byte	.LASF256
 3337 0f51 10       		.byte	0x10
 3338 0f52 39       		.byte	0x39
 3339 0f53 DC000000 		.4byte	0xdc
 3340 0f57 18       		.byte	0x18
 3341 0f58 0B       		.uleb128 0xb
 3342 0f59 B8110000 		.4byte	.LASF257
 3343 0f5d 10       		.byte	0x10
 3344 0f5e 3A       		.byte	0x3a
 3345 0f5f 340C0000 		.4byte	0xc34
 3346 0f63 1C       		.byte	0x1c
 3347 0f64 0B       		.uleb128 0xb
 3348 0f65 49050000 		.4byte	.LASF258
 3349 0f69 10       		.byte	0x10
 3350 0f6a 3C       		.byte	0x3c
 3351 0f6b DC000000 		.4byte	0xdc
 3352 0f6f 20       		.byte	0x20
 3353 0f70 0B       		.uleb128 0xb
 3354 0f71 BB070000 		.4byte	.LASF259
 3355 0f75 10       		.byte	0x10
 3356 0f76 3D       		.byte	0x3d
 3357 0f77 DC000000 		.4byte	0xdc
 3358 0f7b 24       		.byte	0x24
 3359 0f7c 0B       		.uleb128 0xb
 3360 0f7d F7140000 		.4byte	.LASF260
 3361 0f81 10       		.byte	0x10
 3362 0f82 3F       		.byte	0x3f
 3363 0f83 DC000000 		.4byte	0xdc
 3364 0f87 28       		.byte	0x28
 3365 0f88 0B       		.uleb128 0xb
 3366 0f89 C70D0000 		.4byte	.LASF261
 3367 0f8d 10       		.byte	0x10
 3368 0f8e 40       		.byte	0x40
 3369 0f8f DC000000 		.4byte	0xdc
 3370 0f93 2C       		.byte	0x2c
 3371 0f94 0B       		.uleb128 0xb
 3372 0f95 68060000 		.4byte	.LASF262
 3373 0f99 10       		.byte	0x10
 3374 0f9a 42       		.byte	0x42
 3375 0f9b DC000000 		.4byte	0xdc
 3376 0f9f 30       		.byte	0x30
ARM GAS  C:\Users\louis\AppData\Local\Temp\ccj8Y2ua.s 			page 97


 3377 0fa0 0B       		.uleb128 0xb
 3378 0fa1 AC070000 		.4byte	.LASF263
 3379 0fa5 10       		.byte	0x10
 3380 0fa6 43       		.byte	0x43
 3381 0fa7 DC000000 		.4byte	0xdc
 3382 0fab 34       		.byte	0x34
 3383 0fac 0B       		.uleb128 0xb
 3384 0fad 57020000 		.4byte	.LASF264
 3385 0fb1 10       		.byte	0x10
 3386 0fb2 45       		.byte	0x45
 3387 0fb3 DC000000 		.4byte	0xdc
 3388 0fb7 38       		.byte	0x38
 3389 0fb8 0B       		.uleb128 0xb
 3390 0fb9 CC070000 		.4byte	.LASF265
 3391 0fbd 10       		.byte	0x10
 3392 0fbe 46       		.byte	0x46
 3393 0fbf DC000000 		.4byte	0xdc
 3394 0fc3 3C       		.byte	0x3c
 3395 0fc4 0B       		.uleb128 0xb
 3396 0fc5 17030000 		.4byte	.LASF266
 3397 0fc9 10       		.byte	0x10
 3398 0fca 48       		.byte	0x48
 3399 0fcb DC000000 		.4byte	0xdc
 3400 0fcf 40       		.byte	0x40
 3401 0fd0 0B       		.uleb128 0xb
 3402 0fd1 1F120000 		.4byte	.LASF267
 3403 0fd5 10       		.byte	0x10
 3404 0fd6 49       		.byte	0x49
 3405 0fd7 DC000000 		.4byte	0xdc
 3406 0fdb 44       		.byte	0x44
 3407 0fdc 0B       		.uleb128 0xb
 3408 0fdd 9F150000 		.4byte	.LASF268
 3409 0fe1 10       		.byte	0x10
 3410 0fe2 4B       		.byte	0x4b
 3411 0fe3 DC000000 		.4byte	0xdc
 3412 0fe7 48       		.byte	0x48
 3413 0fe8 00       		.byte	0
 3414 0fe9 03       		.uleb128 0x3
 3415 0fea 41100000 		.4byte	.LASF269
 3416 0fee 10       		.byte	0x10
 3417 0fef 4C       		.byte	0x4c
 3418 0ff0 F80E0000 		.4byte	0xef8
 3419 0ff4 1B       		.uleb128 0x1b
 3420 0ff5 D8040000 		.4byte	.LASF270
 3421 0ff9 64       		.byte	0x64
 3422 0ffa 11       		.byte	0x11
 3423 0ffb 2F       		.byte	0x2f
 3424 0ffc 2D110000 		.4byte	0x112d
 3425 1000 0B       		.uleb128 0xb
 3426 1001 3D030000 		.4byte	.LASF271
 3427 1005 11       		.byte	0x11
 3428 1006 31       		.byte	0x31
 3429 1007 DC000000 		.4byte	0xdc
 3430 100b 00       		.byte	0
 3431 100c 0B       		.uleb128 0xb
 3432 100d E40A0000 		.4byte	.LASF251
 3433 1011 11       		.byte	0x11
ARM GAS  C:\Users\louis\AppData\Local\Temp\ccj8Y2ua.s 			page 98


 3434 1012 33       		.byte	0x33
 3435 1013 DC000000 		.4byte	0xdc
 3436 1017 04       		.byte	0x4
 3437 1018 0B       		.uleb128 0xb
 3438 1019 47090000 		.4byte	.LASF272
 3439 101d 11       		.byte	0x11
 3440 101e 34       		.byte	0x34
 3441 101f DC000000 		.4byte	0xdc
 3442 1023 08       		.byte	0x8
 3443 1024 0B       		.uleb128 0xb
 3444 1025 B3140000 		.4byte	.LASF273
 3445 1029 11       		.byte	0x11
 3446 102a 35       		.byte	0x35
 3447 102b DC000000 		.4byte	0xdc
 3448 102f 0C       		.byte	0xc
 3449 1030 0B       		.uleb128 0xb
 3450 1031 F80F0000 		.4byte	.LASF252
 3451 1035 11       		.byte	0x11
 3452 1036 36       		.byte	0x36
 3453 1037 DC000000 		.4byte	0xdc
 3454 103b 10       		.byte	0x10
 3455 103c 0B       		.uleb128 0xb
 3456 103d 35070000 		.4byte	.LASF274
 3457 1041 11       		.byte	0x11
 3458 1042 37       		.byte	0x37
 3459 1043 DC000000 		.4byte	0xdc
 3460 1047 14       		.byte	0x14
 3461 1048 0B       		.uleb128 0xb
 3462 1049 0B0D0000 		.4byte	.LASF275
 3463 104d 11       		.byte	0x11
 3464 104e 38       		.byte	0x38
 3465 104f DC000000 		.4byte	0xdc
 3466 1053 18       		.byte	0x18
 3467 1054 0B       		.uleb128 0xb
 3468 1055 760C0000 		.4byte	.LASF276
 3469 1059 11       		.byte	0x11
 3470 105a 39       		.byte	0x39
 3471 105b 340C0000 		.4byte	0xc34
 3472 105f 1C       		.byte	0x1c
 3473 1060 0B       		.uleb128 0xb
 3474 1061 E4030000 		.4byte	.LASF255
 3475 1065 11       		.byte	0x11
 3476 1066 3A       		.byte	0x3a
 3477 1067 DC000000 		.4byte	0xdc
 3478 106b 20       		.byte	0x20
 3479 106c 0B       		.uleb128 0xb
 3480 106d ED030000 		.4byte	.LASF256
 3481 1071 11       		.byte	0x11
 3482 1072 3B       		.byte	0x3b
 3483 1073 DC000000 		.4byte	0xdc
 3484 1077 24       		.byte	0x24
 3485 1078 0B       		.uleb128 0xb
 3486 1079 B8110000 		.4byte	.LASF257
 3487 107d 11       		.byte	0x11
 3488 107e 3C       		.byte	0x3c
 3489 107f 340C0000 		.4byte	0xc34
 3490 1083 28       		.byte	0x28
ARM GAS  C:\Users\louis\AppData\Local\Temp\ccj8Y2ua.s 			page 99


 3491 1084 0B       		.uleb128 0xb
 3492 1085 49050000 		.4byte	.LASF258
 3493 1089 11       		.byte	0x11
 3494 108a 3E       		.byte	0x3e
 3495 108b DC000000 		.4byte	0xdc
 3496 108f 2C       		.byte	0x2c
 3497 1090 0B       		.uleb128 0xb
 3498 1091 470F0000 		.4byte	.LASF277
 3499 1095 11       		.byte	0x11
 3500 1096 3F       		.byte	0x3f
 3501 1097 DC000000 		.4byte	0xdc
 3502 109b 30       		.byte	0x30
 3503 109c 0B       		.uleb128 0xb
 3504 109d 99070000 		.4byte	.LASF278
 3505 10a1 11       		.byte	0x11
 3506 10a2 40       		.byte	0x40
 3507 10a3 DC000000 		.4byte	0xdc
 3508 10a7 34       		.byte	0x34
 3509 10a8 0B       		.uleb128 0xb
 3510 10a9 A6110000 		.4byte	.LASF279
 3511 10ad 11       		.byte	0x11
 3512 10ae 41       		.byte	0x41
 3513 10af DC000000 		.4byte	0xdc
 3514 10b3 38       		.byte	0x38
 3515 10b4 0B       		.uleb128 0xb
 3516 10b5 AA0C0000 		.4byte	.LASF280
 3517 10b9 11       		.byte	0x11
 3518 10ba 42       		.byte	0x42
 3519 10bb DC000000 		.4byte	0xdc
 3520 10bf 3C       		.byte	0x3c
 3521 10c0 0B       		.uleb128 0xb
 3522 10c1 08090000 		.4byte	.LASF281
 3523 10c5 11       		.byte	0x11
 3524 10c6 44       		.byte	0x44
 3525 10c7 DC000000 		.4byte	0xdc
 3526 10cb 40       		.byte	0x40
 3527 10cc 0B       		.uleb128 0xb
 3528 10cd C70D0000 		.4byte	.LASF261
 3529 10d1 11       		.byte	0x11
 3530 10d2 45       		.byte	0x45
 3531 10d3 DC000000 		.4byte	0xdc
 3532 10d7 44       		.byte	0x44
 3533 10d8 0B       		.uleb128 0xb
 3534 10d9 68060000 		.4byte	.LASF262
 3535 10dd 11       		.byte	0x11
 3536 10de 47       		.byte	0x47
 3537 10df DC000000 		.4byte	0xdc
 3538 10e3 48       		.byte	0x48
 3539 10e4 0B       		.uleb128 0xb
 3540 10e5 AC070000 		.4byte	.LASF263
 3541 10e9 11       		.byte	0x11
 3542 10ea 48       		.byte	0x48
 3543 10eb DC000000 		.4byte	0xdc
 3544 10ef 4C       		.byte	0x4c
 3545 10f0 0B       		.uleb128 0xb
 3546 10f1 57020000 		.4byte	.LASF264
 3547 10f5 11       		.byte	0x11
ARM GAS  C:\Users\louis\AppData\Local\Temp\ccj8Y2ua.s 			page 100


 3548 10f6 4A       		.byte	0x4a
 3549 10f7 DC000000 		.4byte	0xdc
 3550 10fb 50       		.byte	0x50
 3551 10fc 0B       		.uleb128 0xb
 3552 10fd 32140000 		.4byte	.LASF282
 3553 1101 11       		.byte	0x11
 3554 1102 4B       		.byte	0x4b
 3555 1103 DC000000 		.4byte	0xdc
 3556 1107 54       		.byte	0x54
 3557 1108 0B       		.uleb128 0xb
 3558 1109 05140000 		.4byte	.LASF283
 3559 110d 11       		.byte	0x11
 3560 110e 4D       		.byte	0x4d
 3561 110f DC000000 		.4byte	0xdc
 3562 1113 58       		.byte	0x58
 3563 1114 0B       		.uleb128 0xb
 3564 1115 1F120000 		.4byte	.LASF267
 3565 1119 11       		.byte	0x11
 3566 111a 4E       		.byte	0x4e
 3567 111b DC000000 		.4byte	0xdc
 3568 111f 5C       		.byte	0x5c
 3569 1120 0B       		.uleb128 0xb
 3570 1121 9F150000 		.4byte	.LASF268
 3571 1125 11       		.byte	0x11
 3572 1126 50       		.byte	0x50
 3573 1127 DC000000 		.4byte	0xdc
 3574 112b 60       		.byte	0x60
 3575 112c 00       		.byte	0
 3576 112d 03       		.uleb128 0x3
 3577 112e D10F0000 		.4byte	.LASF284
 3578 1132 11       		.byte	0x11
 3579 1133 51       		.byte	0x51
 3580 1134 F40F0000 		.4byte	0xff4
 3581 1138 09       		.uleb128 0x9
 3582 1139 14       		.byte	0x14
 3583 113a 12       		.byte	0x12
 3584 113b 3B       		.byte	0x3b
 3585 113c 7D110000 		.4byte	0x117d
 3586 1140 0B       		.uleb128 0xb
 3587 1141 A3020000 		.4byte	.LASF285
 3588 1145 12       		.byte	0x12
 3589 1146 3D       		.byte	0x3d
 3590 1147 DC000000 		.4byte	0xdc
 3591 114b 00       		.byte	0
 3592 114c 0B       		.uleb128 0xb
 3593 114d 8F060000 		.4byte	.LASF286
 3594 1151 12       		.byte	0x12
 3595 1152 3E       		.byte	0x3e
 3596 1153 DC000000 		.4byte	0xdc
 3597 1157 04       		.byte	0x4
 3598 1158 0B       		.uleb128 0xb
 3599 1159 CC020000 		.4byte	.LASF287
 3600 115d 12       		.byte	0x12
 3601 115e 3F       		.byte	0x3f
 3602 115f 7D110000 		.4byte	0x117d
 3603 1163 08       		.byte	0x8
 3604 1164 0B       		.uleb128 0xb
ARM GAS  C:\Users\louis\AppData\Local\Temp\ccj8Y2ua.s 			page 101


 3605 1165 70130000 		.4byte	.LASF288
 3606 1169 12       		.byte	0x12
 3607 116a 40       		.byte	0x40
 3608 116b DC000000 		.4byte	0xdc
 3609 116f 0C       		.byte	0xc
 3610 1170 0B       		.uleb128 0xb
 3611 1171 2A160000 		.4byte	.LASF289
 3612 1175 12       		.byte	0x12
 3613 1176 45       		.byte	0x45
 3614 1177 DC000000 		.4byte	0xdc
 3615 117b 10       		.byte	0x10
 3616 117c 00       		.byte	0
 3617 117d 11       		.uleb128 0x11
 3618 117e 04       		.byte	0x4
 3619 117f 83110000 		.4byte	0x1183
 3620 1183 06       		.uleb128 0x6
 3621 1184 640D0000 		.4byte	0xd64
 3622 1188 03       		.uleb128 0x3
 3623 1189 46080000 		.4byte	.LASF290
 3624 118d 12       		.byte	0x12
 3625 118e 48       		.byte	0x48
 3626 118f 38110000 		.4byte	0x1138
 3627 1193 03       		.uleb128 0x3
 3628 1194 71080000 		.4byte	.LASF291
 3629 1198 13       		.byte	0x13
 3630 1199 6A       		.byte	0x6a
 3631 119a 8D000000 		.4byte	0x8d
 3632 119e 09       		.uleb128 0x9
 3633 119f 0C       		.byte	0xc
 3634 11a0 13       		.byte	0x13
 3635 11a1 73       		.byte	0x73
 3636 11a2 CB110000 		.4byte	0x11cb
 3637 11a6 0B       		.uleb128 0xb
 3638 11a7 31130000 		.4byte	.LASF292
 3639 11ab 13       		.byte	0x13
 3640 11ac 74       		.byte	0x74
 3641 11ad A2000000 		.4byte	0xa2
 3642 11b1 00       		.byte	0
 3643 11b2 0B       		.uleb128 0xb
 3644 11b3 8F0B0000 		.4byte	.LASF293
 3645 11b7 13       		.byte	0x13
 3646 11b8 75       		.byte	0x75
 3647 11b9 130C0000 		.4byte	0xc13
 3648 11bd 04       		.byte	0x4
 3649 11be 0B       		.uleb128 0xb
 3650 11bf EC050000 		.4byte	.LASF294
 3651 11c3 13       		.byte	0x13
 3652 11c4 76       		.byte	0x76
 3653 11c5 CB110000 		.4byte	0x11cb
 3654 11c9 08       		.byte	0x8
 3655 11ca 00       		.byte	0
 3656 11cb 11       		.uleb128 0x11
 3657 11cc 04       		.byte	0x4
 3658 11cd D1110000 		.4byte	0x11d1
 3659 11d1 06       		.uleb128 0x6
 3660 11d2 93110000 		.4byte	0x1193
 3661 11d6 03       		.uleb128 0x3
ARM GAS  C:\Users\louis\AppData\Local\Temp\ccj8Y2ua.s 			page 102


 3662 11d7 26070000 		.4byte	.LASF295
 3663 11db 13       		.byte	0x13
 3664 11dc 77       		.byte	0x77
 3665 11dd 9E110000 		.4byte	0x119e
 3666 11e1 03       		.uleb128 0x3
 3667 11e2 91140000 		.4byte	.LASF296
 3668 11e6 13       		.byte	0x13
 3669 11e7 88       		.byte	0x88
 3670 11e8 EC110000 		.4byte	0x11ec
 3671 11ec 1C       		.uleb128 0x1c
 3672 11ed 93110000 		.4byte	0x1193
 3673 11f1 FB110000 		.4byte	0x11fb
 3674 11f5 19       		.uleb128 0x19
 3675 11f6 8D000000 		.4byte	0x8d
 3676 11fa 00       		.byte	0
 3677 11fb 03       		.uleb128 0x3
 3678 11fc CA030000 		.4byte	.LASF297
 3679 1200 13       		.byte	0x13
 3680 1201 89       		.byte	0x89
 3681 1202 06120000 		.4byte	0x1206
 3682 1206 1C       		.uleb128 0x1c
 3683 1207 8D000000 		.4byte	0x8d
 3684 120b 15120000 		.4byte	0x1215
 3685 120f 19       		.uleb128 0x19
 3686 1210 93110000 		.4byte	0x1193
 3687 1214 00       		.byte	0
 3688 1215 03       		.uleb128 0x3
 3689 1216 E2140000 		.4byte	.LASF298
 3690 121a 13       		.byte	0x13
 3691 121b 8A       		.byte	0x8a
 3692 121c 20120000 		.4byte	0x1220
 3693 1220 1D       		.uleb128 0x1d
 3694 1221 8D000000 		.4byte	0x8d
 3695 1225 03       		.uleb128 0x3
 3696 1226 DF060000 		.4byte	.LASF299
 3697 122a 13       		.byte	0x13
 3698 122b 8C       		.byte	0x8c
 3699 122c 30120000 		.4byte	0x1230
 3700 1230 18       		.uleb128 0x18
 3701 1231 4A120000 		.4byte	0x124a
 3702 1235 19       		.uleb128 0x19
 3703 1236 320C0000 		.4byte	0xc32
 3704 123a 19       		.uleb128 0x19
 3705 123b 4A120000 		.4byte	0x124a
 3706 123f 19       		.uleb128 0x19
 3707 1240 8D000000 		.4byte	0x8d
 3708 1244 19       		.uleb128 0x19
 3709 1245 4C000000 		.4byte	0x4c
 3710 1249 00       		.byte	0
 3711 124a 11       		.uleb128 0x11
 3712 124b 04       		.byte	0x4
 3713 124c 93110000 		.4byte	0x1193
 3714 1250 03       		.uleb128 0x3
 3715 1251 A5130000 		.4byte	.LASF300
 3716 1255 13       		.byte	0x13
 3717 1256 8D       		.byte	0x8d
 3718 1257 5B120000 		.4byte	0x125b
ARM GAS  C:\Users\louis\AppData\Local\Temp\ccj8Y2ua.s 			page 103


 3719 125b 18       		.uleb128 0x18
 3720 125c 75120000 		.4byte	0x1275
 3721 1260 19       		.uleb128 0x19
 3722 1261 4A120000 		.4byte	0x124a
 3723 1265 19       		.uleb128 0x19
 3724 1266 320C0000 		.4byte	0xc32
 3725 126a 19       		.uleb128 0x19
 3726 126b 8D000000 		.4byte	0x8d
 3727 126f 19       		.uleb128 0x19
 3728 1270 4C000000 		.4byte	0x4c
 3729 1274 00       		.byte	0
 3730 1275 09       		.uleb128 0x9
 3731 1276 18       		.byte	0x18
 3732 1277 13       		.byte	0x13
 3733 1278 93       		.byte	0x93
 3734 1279 C6120000 		.4byte	0x12c6
 3735 127d 0B       		.uleb128 0xb
 3736 127e A5140000 		.4byte	.LASF301
 3737 1282 13       		.byte	0x13
 3738 1283 94       		.byte	0x94
 3739 1284 C6120000 		.4byte	0x12c6
 3740 1288 00       		.byte	0
 3741 1289 0B       		.uleb128 0xb
 3742 128a 3B0B0000 		.4byte	.LASF302
 3743 128e 13       		.byte	0x13
 3744 128f 95       		.byte	0x95
 3745 1290 CC120000 		.4byte	0x12cc
 3746 1294 04       		.byte	0x4
 3747 1295 0B       		.uleb128 0xb
 3748 1296 19080000 		.4byte	.LASF303
 3749 129a 13       		.byte	0x13
 3750 129b 96       		.byte	0x96
 3751 129c D2120000 		.4byte	0x12d2
 3752 12a0 08       		.byte	0x8
 3753 12a1 0B       		.uleb128 0xb
 3754 12a2 810D0000 		.4byte	.LASF304
 3755 12a6 13       		.byte	0x13
 3756 12a7 97       		.byte	0x97
 3757 12a8 A2000000 		.4byte	0xa2
 3758 12ac 0C       		.byte	0xc
 3759 12ad 0B       		.uleb128 0xb
 3760 12ae 05030000 		.4byte	.LASF305
 3761 12b2 13       		.byte	0x13
 3762 12b3 98       		.byte	0x98
 3763 12b4 D8120000 		.4byte	0x12d8
 3764 12b8 10       		.byte	0x10
 3765 12b9 0B       		.uleb128 0xb
 3766 12ba 350F0000 		.4byte	.LASF306
 3767 12be 13       		.byte	0x13
 3768 12bf 99       		.byte	0x99
 3769 12c0 DE120000 		.4byte	0x12de
 3770 12c4 14       		.byte	0x14
 3771 12c5 00       		.byte	0
 3772 12c6 11       		.uleb128 0x11
 3773 12c7 04       		.byte	0x4
 3774 12c8 FB110000 		.4byte	0x11fb
 3775 12cc 11       		.uleb128 0x11
ARM GAS  C:\Users\louis\AppData\Local\Temp\ccj8Y2ua.s 			page 104


 3776 12cd 04       		.byte	0x4
 3777 12ce E1110000 		.4byte	0x11e1
 3778 12d2 11       		.uleb128 0x11
 3779 12d3 04       		.byte	0x4
 3780 12d4 15120000 		.4byte	0x1215
 3781 12d8 11       		.uleb128 0x11
 3782 12d9 04       		.byte	0x4
 3783 12da 50120000 		.4byte	0x1250
 3784 12de 11       		.uleb128 0x11
 3785 12df 04       		.byte	0x4
 3786 12e0 25120000 		.4byte	0x1225
 3787 12e4 03       		.uleb128 0x3
 3788 12e5 70100000 		.4byte	.LASF307
 3789 12e9 13       		.byte	0x13
 3790 12ea 9A       		.byte	0x9a
 3791 12eb 75120000 		.4byte	0x1275
 3792 12ef 11       		.uleb128 0x11
 3793 12f0 04       		.byte	0x4
 3794 12f1 F5120000 		.4byte	0x12f5
 3795 12f5 06       		.uleb128 0x6
 3796 12f6 4C000000 		.4byte	0x4c
 3797 12fa 11       		.uleb128 0x11
 3798 12fb 04       		.byte	0x4
 3799 12fc 00130000 		.4byte	0x1300
 3800 1300 1E       		.uleb128 0x1e
 3801 1301 11       		.uleb128 0x11
 3802 1302 04       		.byte	0x4
 3803 1303 07130000 		.4byte	0x1307
 3804 1307 06       		.uleb128 0x6
 3805 1308 130C0000 		.4byte	0xc13
 3806 130c 03       		.uleb128 0x3
 3807 130d 7C030000 		.4byte	.LASF308
 3808 1311 14       		.byte	0x14
 3809 1312 3D       		.byte	0x3d
 3810 1313 93110000 		.4byte	0x1193
 3811 1317 03       		.uleb128 0x3
 3812 1318 66160000 		.4byte	.LASF309
 3813 131c 14       		.byte	0x14
 3814 131d 3E       		.byte	0x3e
 3815 131e D6110000 		.4byte	0x11d6
 3816 1322 09       		.uleb128 0x9
 3817 1323 10       		.byte	0x10
 3818 1324 14       		.byte	0x14
 3819 1325 42       		.byte	0x42
 3820 1326 5B130000 		.4byte	0x135b
 3821 132a 0B       		.uleb128 0xb
 3822 132b 40120000 		.4byte	.LASF310
 3823 132f 14       		.byte	0x14
 3824 1330 43       		.byte	0x43
 3825 1331 94130000 		.4byte	0x1394
 3826 1335 00       		.byte	0
 3827 1336 0B       		.uleb128 0xb
 3828 1337 3B0B0000 		.4byte	.LASF302
 3829 133b 14       		.byte	0x14
 3830 133c 4B       		.byte	0x4b
 3831 133d A9130000 		.4byte	0x13a9
 3832 1341 04       		.byte	0x4
ARM GAS  C:\Users\louis\AppData\Local\Temp\ccj8Y2ua.s 			page 105


 3833 1342 0B       		.uleb128 0xb
 3834 1343 26090000 		.4byte	.LASF311
 3835 1347 14       		.byte	0x14
 3836 1348 4C       		.byte	0x4c
 3837 1349 94130000 		.4byte	0x1394
 3838 134d 08       		.byte	0x8
 3839 134e 0B       		.uleb128 0xb
 3840 134f 63080000 		.4byte	.LASF312
 3841 1353 14       		.byte	0x14
 3842 1354 54       		.byte	0x54
 3843 1355 AF130000 		.4byte	0x13af
 3844 1359 0C       		.byte	0xc
 3845 135a 00       		.byte	0
 3846 135b 18       		.uleb128 0x18
 3847 135c 89130000 		.4byte	0x1389
 3848 1360 19       		.uleb128 0x19
 3849 1361 A2000000 		.4byte	0xa2
 3850 1365 19       		.uleb128 0x19
 3851 1366 A2000000 		.4byte	0xa2
 3852 136a 19       		.uleb128 0x19
 3853 136b A2000000 		.4byte	0xa2
 3854 136f 19       		.uleb128 0x19
 3855 1370 A2000000 		.4byte	0xa2
 3856 1374 19       		.uleb128 0x19
 3857 1375 EF120000 		.4byte	0x12ef
 3858 1379 19       		.uleb128 0x19
 3859 137a 89130000 		.4byte	0x1389
 3860 137e 19       		.uleb128 0x19
 3861 137f A2000000 		.4byte	0xa2
 3862 1383 19       		.uleb128 0x19
 3863 1384 A2000000 		.4byte	0xa2
 3864 1388 00       		.byte	0
 3865 1389 11       		.uleb128 0x11
 3866 138a 04       		.byte	0x4
 3867 138b 8F130000 		.4byte	0x138f
 3868 138f 06       		.uleb128 0x6
 3869 1390 D6110000 		.4byte	0x11d6
 3870 1394 11       		.uleb128 0x11
 3871 1395 04       		.byte	0x4
 3872 1396 5B130000 		.4byte	0x135b
 3873 139a 1C       		.uleb128 0x1c
 3874 139b 0C130000 		.4byte	0x130c
 3875 139f A9130000 		.4byte	0x13a9
 3876 13a3 19       		.uleb128 0x19
 3877 13a4 8D000000 		.4byte	0x8d
 3878 13a8 00       		.byte	0
 3879 13a9 11       		.uleb128 0x11
 3880 13aa 04       		.byte	0x4
 3881 13ab 9A130000 		.4byte	0x139a
 3882 13af 11       		.uleb128 0x11
 3883 13b0 04       		.byte	0x4
 3884 13b1 B5130000 		.4byte	0x13b5
 3885 13b5 06       		.uleb128 0x6
 3886 13b6 E4120000 		.4byte	0x12e4
 3887 13ba 03       		.uleb128 0x3
 3888 13bb 6E000000 		.4byte	.LASF313
 3889 13bf 14       		.byte	0x14
ARM GAS  C:\Users\louis\AppData\Local\Temp\ccj8Y2ua.s 			page 106


 3890 13c0 55       		.byte	0x55
 3891 13c1 22130000 		.4byte	0x1322
 3892 13c5 09       		.uleb128 0x9
 3893 13c6 14       		.byte	0x14
 3894 13c7 14       		.byte	0x14
 3895 13c8 57       		.byte	0x57
 3896 13c9 22140000 		.4byte	0x1422
 3897 13cd 0B       		.uleb128 0xb
 3898 13ce 4C170000 		.4byte	.LASF314
 3899 13d2 14       		.byte	0x14
 3900 13d3 58       		.byte	0x58
 3901 13d4 69000000 		.4byte	0x69
 3902 13d8 00       		.byte	0
 3903 13d9 0B       		.uleb128 0xb
 3904 13da 4D0E0000 		.4byte	.LASF315
 3905 13de 14       		.byte	0x14
 3906 13df 59       		.byte	0x59
 3907 13e0 69000000 		.4byte	0x69
 3908 13e4 02       		.byte	0x2
 3909 13e5 0B       		.uleb128 0xb
 3910 13e6 B80C0000 		.4byte	.LASF316
 3911 13ea 14       		.byte	0x14
 3912 13eb 5A       		.byte	0x5a
 3913 13ec 69000000 		.4byte	0x69
 3914 13f0 04       		.byte	0x4
 3915 13f1 0B       		.uleb128 0xb
 3916 13f2 DA070000 		.4byte	.LASF317
 3917 13f6 14       		.byte	0x14
 3918 13f7 5B       		.byte	0x5b
 3919 13f8 69000000 		.4byte	0x69
 3920 13fc 06       		.byte	0x6
 3921 13fd 0B       		.uleb128 0xb
 3922 13fe DE030000 		.4byte	.LASF318
 3923 1402 14       		.byte	0x14
 3924 1403 5C       		.byte	0x5c
 3925 1404 EF120000 		.4byte	0x12ef
 3926 1408 08       		.byte	0x8
 3927 1409 0B       		.uleb128 0xb
 3928 140a C7090000 		.4byte	.LASF319
 3929 140e 14       		.byte	0x14
 3930 140f 5D       		.byte	0x5d
 3931 1410 22140000 		.4byte	0x1422
 3932 1414 0C       		.byte	0xc
 3933 1415 0B       		.uleb128 0xb
 3934 1416 CE0C0000 		.4byte	.LASF320
 3935 141a 14       		.byte	0x14
 3936 141b 5E       		.byte	0x5e
 3937 141c 2D140000 		.4byte	0x142d
 3938 1420 10       		.byte	0x10
 3939 1421 00       		.byte	0
 3940 1422 11       		.uleb128 0x11
 3941 1423 04       		.byte	0x4
 3942 1424 28140000 		.4byte	0x1428
 3943 1428 06       		.uleb128 0x6
 3944 1429 17130000 		.4byte	0x1317
 3945 142d 11       		.uleb128 0x11
 3946 142e 04       		.byte	0x4
ARM GAS  C:\Users\louis\AppData\Local\Temp\ccj8Y2ua.s 			page 107


 3947 142f 33140000 		.4byte	0x1433
 3948 1433 06       		.uleb128 0x6
 3949 1434 BA130000 		.4byte	0x13ba
 3950 1438 03       		.uleb128 0x3
 3951 1439 E3160000 		.4byte	.LASF321
 3952 143d 14       		.byte	0x14
 3953 143e 5F       		.byte	0x5f
 3954 143f C5130000 		.4byte	0x13c5
 3955 1443 09       		.uleb128 0x9
 3956 1444 04       		.byte	0x4
 3957 1445 14       		.byte	0x14
 3958 1446 B6       		.byte	0xb6
 3959 1447 62140000 		.4byte	0x1462
 3960 144b 0A       		.uleb128 0xa
 3961 144c 633000   		.ascii	"c0\000"
 3962 144f 14       		.byte	0x14
 3963 1450 B7       		.byte	0xb7
 3964 1451 33000000 		.4byte	0x33
 3965 1455 00       		.byte	0
 3966 1456 0A       		.uleb128 0xa
 3967 1457 633100   		.ascii	"c1\000"
 3968 145a 14       		.byte	0x14
 3969 145b B8       		.byte	0xb8
 3970 145c 33000000 		.4byte	0x33
 3971 1460 02       		.byte	0x2
 3972 1461 00       		.byte	0
 3973 1462 03       		.uleb128 0x3
 3974 1463 7E140000 		.4byte	.LASF322
 3975 1467 14       		.byte	0x14
 3976 1468 B9       		.byte	0xb9
 3977 1469 43140000 		.4byte	0x1443
 3978 146d 09       		.uleb128 0x9
 3979 146e 08       		.byte	0x8
 3980 146f 14       		.byte	0x14
 3981 1470 BB       		.byte	0xbb
 3982 1471 9A140000 		.4byte	0x149a
 3983 1475 0B       		.uleb128 0xb
 3984 1476 5E0A0000 		.4byte	.LASF323
 3985 147a 14       		.byte	0x14
 3986 147b BC       		.byte	0xbc
 3987 147c 69000000 		.4byte	0x69
 3988 1480 00       		.byte	0
 3989 1481 0B       		.uleb128 0xb
 3990 1482 55120000 		.4byte	.LASF324
 3991 1486 14       		.byte	0x14
 3992 1487 BD       		.byte	0xbd
 3993 1488 69000000 		.4byte	0x69
 3994 148c 02       		.byte	0x2
 3995 148d 0B       		.uleb128 0xb
 3996 148e D6010000 		.4byte	.LASF325
 3997 1492 14       		.byte	0x14
 3998 1493 BE       		.byte	0xbe
 3999 1494 9A140000 		.4byte	0x149a
 4000 1498 04       		.byte	0x4
 4001 1499 00       		.byte	0
 4002 149a 11       		.uleb128 0x11
 4003 149b 04       		.byte	0x4
ARM GAS  C:\Users\louis\AppData\Local\Temp\ccj8Y2ua.s 			page 108


 4004 149c A0140000 		.4byte	0x14a0
 4005 14a0 06       		.uleb128 0x6
 4006 14a1 62140000 		.4byte	0x1462
 4007 14a5 03       		.uleb128 0x3
 4008 14a6 5A050000 		.4byte	.LASF326
 4009 14aa 14       		.byte	0x14
 4010 14ab BF       		.byte	0xbf
 4011 14ac 6D140000 		.4byte	0x146d
 4012 14b0 09       		.uleb128 0x9
 4013 14b1 08       		.byte	0x8
 4014 14b2 14       		.byte	0x14
 4015 14b3 C1       		.byte	0xc1
 4016 14b4 E9140000 		.4byte	0x14e9
 4017 14b8 0B       		.uleb128 0xb
 4018 14b9 4C170000 		.4byte	.LASF314
 4019 14bd 14       		.byte	0x14
 4020 14be C2       		.byte	0xc2
 4021 14bf 4C000000 		.4byte	0x4c
 4022 14c3 00       		.byte	0
 4023 14c4 0B       		.uleb128 0xb
 4024 14c5 24150000 		.4byte	.LASF327
 4025 14c9 14       		.byte	0x14
 4026 14ca C3       		.byte	0xc3
 4027 14cb 4C000000 		.4byte	0x4c
 4028 14cf 01       		.byte	0x1
 4029 14d0 0B       		.uleb128 0xb
 4030 14d1 B80C0000 		.4byte	.LASF316
 4031 14d5 14       		.byte	0x14
 4032 14d6 C4       		.byte	0xc4
 4033 14d7 4C000000 		.4byte	0x4c
 4034 14db 02       		.byte	0x2
 4035 14dc 0B       		.uleb128 0xb
 4036 14dd DE030000 		.4byte	.LASF318
 4037 14e1 14       		.byte	0x14
 4038 14e2 C5       		.byte	0xc5
 4039 14e3 EF120000 		.4byte	0x12ef
 4040 14e7 04       		.byte	0x4
 4041 14e8 00       		.byte	0
 4042 14e9 03       		.uleb128 0x3
 4043 14ea 1C180000 		.4byte	.LASF328
 4044 14ee 14       		.byte	0x14
 4045 14ef C6       		.byte	0xc6
 4046 14f0 B0140000 		.4byte	0x14b0
 4047 14f4 09       		.uleb128 0x9
 4048 14f5 0C       		.byte	0xc
 4049 14f6 14       		.byte	0x14
 4050 14f7 C8       		.byte	0xc8
 4051 14f8 45150000 		.4byte	0x1545
 4052 14fc 0B       		.uleb128 0xb
 4053 14fd 4C170000 		.4byte	.LASF314
 4054 1501 14       		.byte	0x14
 4055 1502 C9       		.byte	0xc9
 4056 1503 4C000000 		.4byte	0x4c
 4057 1507 00       		.byte	0
 4058 1508 0B       		.uleb128 0xb
 4059 1509 4D0E0000 		.4byte	.LASF315
 4060 150d 14       		.byte	0x14
ARM GAS  C:\Users\louis\AppData\Local\Temp\ccj8Y2ua.s 			page 109


 4061 150e CA       		.byte	0xca
 4062 150f 4C000000 		.4byte	0x4c
 4063 1513 01       		.byte	0x1
 4064 1514 0B       		.uleb128 0xb
 4065 1515 770B0000 		.4byte	.LASF329
 4066 1519 14       		.byte	0x14
 4067 151a CB       		.byte	0xcb
 4068 151b 3A000000 		.4byte	0x3a
 4069 151f 02       		.byte	0x2
 4070 1520 0B       		.uleb128 0xb
 4071 1521 0C010000 		.4byte	.LASF330
 4072 1525 14       		.byte	0x14
 4073 1526 CC       		.byte	0xcc
 4074 1527 3A000000 		.4byte	0x3a
 4075 152b 03       		.byte	0x3
 4076 152c 0B       		.uleb128 0xb
 4077 152d 24150000 		.4byte	.LASF327
 4078 1531 14       		.byte	0x14
 4079 1532 CD       		.byte	0xcd
 4080 1533 4C000000 		.4byte	0x4c
 4081 1537 04       		.byte	0x4
 4082 1538 0B       		.uleb128 0xb
 4083 1539 DE030000 		.4byte	.LASF318
 4084 153d 14       		.byte	0x14
 4085 153e CE       		.byte	0xce
 4086 153f EF120000 		.4byte	0x12ef
 4087 1543 08       		.byte	0x8
 4088 1544 00       		.byte	0
 4089 1545 03       		.uleb128 0x3
 4090 1546 0F070000 		.4byte	.LASF331
 4091 154a 14       		.byte	0x14
 4092 154b CF       		.byte	0xcf
 4093 154c F4140000 		.4byte	0x14f4
 4094 1550 1B       		.uleb128 0x1b
 4095 1551 BD050000 		.4byte	.LASF332
 4096 1555 0C       		.byte	0xc
 4097 1556 14       		.byte	0x14
 4098 1557 D1       		.byte	0xd1
 4099 1558 8D150000 		.4byte	0x158d
 4100 155c 0B       		.uleb128 0xb
 4101 155d 20070000 		.4byte	.LASF333
 4102 1561 14       		.byte	0x14
 4103 1562 D2       		.byte	0xd2
 4104 1563 69000000 		.4byte	0x69
 4105 1567 00       		.byte	0
 4106 1568 0B       		.uleb128 0xb
 4107 1569 A80D0000 		.4byte	.LASF334
 4108 156d 14       		.byte	0x14
 4109 156e D3       		.byte	0xd3
 4110 156f 69000000 		.4byte	0x69
 4111 1573 02       		.byte	0x2
 4112 1574 0B       		.uleb128 0xb
 4113 1575 580B0000 		.4byte	.LASF335
 4114 1579 14       		.byte	0x14
 4115 157a D4       		.byte	0xd4
 4116 157b 8D150000 		.4byte	0x158d
 4117 157f 04       		.byte	0x4
ARM GAS  C:\Users\louis\AppData\Local\Temp\ccj8Y2ua.s 			page 110


 4118 1580 0B       		.uleb128 0xb
 4119 1581 A7180000 		.4byte	.LASF336
 4120 1585 14       		.byte	0x14
 4121 1586 D5       		.byte	0xd5
 4122 1587 98150000 		.4byte	0x1598
 4123 158b 08       		.byte	0x8
 4124 158c 00       		.byte	0
 4125 158d 11       		.uleb128 0x11
 4126 158e 04       		.byte	0x4
 4127 158f 93150000 		.4byte	0x1593
 4128 1593 06       		.uleb128 0x6
 4129 1594 E9140000 		.4byte	0x14e9
 4130 1598 11       		.uleb128 0x11
 4131 1599 04       		.byte	0x4
 4132 159a 9E150000 		.4byte	0x159e
 4133 159e 06       		.uleb128 0x6
 4134 159f 50150000 		.4byte	0x1550
 4135 15a3 03       		.uleb128 0x3
 4136 15a4 BD050000 		.4byte	.LASF332
 4137 15a8 14       		.byte	0x14
 4138 15a9 D6       		.byte	0xd6
 4139 15aa 50150000 		.4byte	0x1550
 4140 15ae 1B       		.uleb128 0x1b
 4141 15af 5D090000 		.4byte	.LASF337
 4142 15b3 0C       		.byte	0xc
 4143 15b4 14       		.byte	0x14
 4144 15b5 D8       		.byte	0xd8
 4145 15b6 EB150000 		.4byte	0x15eb
 4146 15ba 0B       		.uleb128 0xb
 4147 15bb 20070000 		.4byte	.LASF333
 4148 15bf 14       		.byte	0x14
 4149 15c0 D9       		.byte	0xd9
 4150 15c1 69000000 		.4byte	0x69
 4151 15c5 00       		.byte	0
 4152 15c6 0B       		.uleb128 0xb
 4153 15c7 A80D0000 		.4byte	.LASF334
 4154 15cb 14       		.byte	0x14
 4155 15cc DA       		.byte	0xda
 4156 15cd 69000000 		.4byte	0x69
 4157 15d1 02       		.byte	0x2
 4158 15d2 0B       		.uleb128 0xb
 4159 15d3 580B0000 		.4byte	.LASF335
 4160 15d7 14       		.byte	0x14
 4161 15d8 DB       		.byte	0xdb
 4162 15d9 EB150000 		.4byte	0x15eb
 4163 15dd 04       		.byte	0x4
 4164 15de 0B       		.uleb128 0xb
 4165 15df A7180000 		.4byte	.LASF336
 4166 15e3 14       		.byte	0x14
 4167 15e4 DC       		.byte	0xdc
 4168 15e5 F6150000 		.4byte	0x15f6
 4169 15e9 08       		.byte	0x8
 4170 15ea 00       		.byte	0
 4171 15eb 11       		.uleb128 0x11
 4172 15ec 04       		.byte	0x4
 4173 15ed F1150000 		.4byte	0x15f1
 4174 15f1 06       		.uleb128 0x6
ARM GAS  C:\Users\louis\AppData\Local\Temp\ccj8Y2ua.s 			page 111


 4175 15f2 45150000 		.4byte	0x1545
 4176 15f6 11       		.uleb128 0x11
 4177 15f7 04       		.byte	0x4
 4178 15f8 FC150000 		.4byte	0x15fc
 4179 15fc 06       		.uleb128 0x6
 4180 15fd AE150000 		.4byte	0x15ae
 4181 1601 03       		.uleb128 0x3
 4182 1602 5D090000 		.4byte	.LASF337
 4183 1606 14       		.byte	0x14
 4184 1607 DD       		.byte	0xdd
 4185 1608 AE150000 		.4byte	0x15ae
 4186 160c 09       		.uleb128 0x9
 4187 160d 14       		.byte	0x14
 4188 160e 14       		.byte	0x14
 4189 160f DF       		.byte	0xdf
 4190 1610 75160000 		.4byte	0x1675
 4191 1614 0B       		.uleb128 0xb
 4192 1615 DE030000 		.4byte	.LASF318
 4193 1619 14       		.byte	0x14
 4194 161a E0       		.byte	0xe0
 4195 161b EF120000 		.4byte	0x12ef
 4196 161f 00       		.byte	0
 4197 1620 0B       		.uleb128 0xb
 4198 1621 61070000 		.4byte	.LASF338
 4199 1625 14       		.byte	0x14
 4200 1626 E1       		.byte	0xe1
 4201 1627 EF120000 		.4byte	0x12ef
 4202 162b 04       		.byte	0x4
 4203 162c 0B       		.uleb128 0xb
 4204 162d 650F0000 		.4byte	.LASF339
 4205 1631 14       		.byte	0x14
 4206 1632 E2       		.byte	0xe2
 4207 1633 75160000 		.4byte	0x1675
 4208 1637 08       		.byte	0x8
 4209 1638 0B       		.uleb128 0xb
 4210 1639 5E0A0000 		.4byte	.LASF323
 4211 163d 14       		.byte	0x14
 4212 163e E3       		.byte	0xe3
 4213 163f 69000000 		.4byte	0x69
 4214 1643 0C       		.byte	0xc
 4215 1644 0B       		.uleb128 0xb
 4216 1645 55120000 		.4byte	.LASF324
 4217 1649 14       		.byte	0x14
 4218 164a E4       		.byte	0xe4
 4219 164b 69000000 		.4byte	0x69
 4220 164f 0E       		.byte	0xe
 4221 1650 0B       		.uleb128 0xb
 4222 1651 4C170000 		.4byte	.LASF314
 4223 1655 14       		.byte	0x14
 4224 1656 E5       		.byte	0xe5
 4225 1657 4C000000 		.4byte	0x4c
 4226 165b 10       		.byte	0x10
 4227 165c 0B       		.uleb128 0xb
 4228 165d 24150000 		.4byte	.LASF327
 4229 1661 14       		.byte	0x14
 4230 1662 E6       		.byte	0xe6
 4231 1663 4C000000 		.4byte	0x4c
ARM GAS  C:\Users\louis\AppData\Local\Temp\ccj8Y2ua.s 			page 112


 4232 1667 11       		.byte	0x11
 4233 1668 0B       		.uleb128 0xb
 4234 1669 B80C0000 		.4byte	.LASF316
 4235 166d 14       		.byte	0x14
 4236 166e E7       		.byte	0xe7
 4237 166f 4C000000 		.4byte	0x4c
 4238 1673 12       		.byte	0x12
 4239 1674 00       		.byte	0
 4240 1675 11       		.uleb128 0x11
 4241 1676 04       		.byte	0x4
 4242 1677 7B160000 		.4byte	0x167b
 4243 167b 06       		.uleb128 0x6
 4244 167c A5140000 		.4byte	0x14a5
 4245 1680 03       		.uleb128 0x3
 4246 1681 06060000 		.4byte	.LASF340
 4247 1685 14       		.byte	0x14
 4248 1686 E8       		.byte	0xe8
 4249 1687 0C160000 		.4byte	0x160c
 4250 168b 09       		.uleb128 0x9
 4251 168c 06       		.byte	0x6
 4252 168d 14       		.byte	0x14
 4253 168e F1       		.byte	0xf1
 4254 168f C4160000 		.4byte	0x16c4
 4255 1693 0B       		.uleb128 0xb
 4256 1694 CB050000 		.4byte	.LASF341
 4257 1698 14       		.byte	0x14
 4258 1699 F2       		.byte	0xf2
 4259 169a 69000000 		.4byte	0x69
 4260 169e 00       		.byte	0
 4261 169f 0B       		.uleb128 0xb
 4262 16a0 BF040000 		.4byte	.LASF342
 4263 16a4 14       		.byte	0x14
 4264 16a5 F3       		.byte	0xf3
 4265 16a6 4C000000 		.4byte	0x4c
 4266 16aa 02       		.byte	0x2
 4267 16ab 0B       		.uleb128 0xb
 4268 16ac 68100000 		.4byte	.LASF343
 4269 16b0 14       		.byte	0x14
 4270 16b1 F4       		.byte	0xf4
 4271 16b2 4C000000 		.4byte	0x4c
 4272 16b6 03       		.byte	0x3
 4273 16b7 0B       		.uleb128 0xb
 4274 16b8 970A0000 		.4byte	.LASF344
 4275 16bc 14       		.byte	0x14
 4276 16bd F5       		.byte	0xf5
 4277 16be 4C000000 		.4byte	0x4c
 4278 16c2 04       		.byte	0x4
 4279 16c3 00       		.byte	0
 4280 16c4 03       		.uleb128 0x3
 4281 16c5 7D050000 		.4byte	.LASF345
 4282 16c9 14       		.byte	0x14
 4283 16ca F6       		.byte	0xf6
 4284 16cb 8B160000 		.4byte	0x168b
 4285 16cf 10       		.uleb128 0x10
 4286 16d0 7C0F0000 		.4byte	.LASF346
 4287 16d4 14       		.byte	0x14
 4288 16d5 1301     		.2byte	0x113
ARM GAS  C:\Users\louis\AppData\Local\Temp\ccj8Y2ua.s 			page 113


 4289 16d7 DB160000 		.4byte	0x16db
 4290 16db 1C       		.uleb128 0x1c
 4291 16dc A2000000 		.4byte	0xa2
 4292 16e0 EF160000 		.4byte	0x16ef
 4293 16e4 19       		.uleb128 0x19
 4294 16e5 01130000 		.4byte	0x1301
 4295 16e9 19       		.uleb128 0x19
 4296 16ea A2000000 		.4byte	0xa2
 4297 16ee 00       		.byte	0
 4298 16ef 10       		.uleb128 0x10
 4299 16f0 F5130000 		.4byte	.LASF347
 4300 16f4 14       		.byte	0x14
 4301 16f5 1401     		.2byte	0x114
 4302 16f7 DB160000 		.4byte	0x16db
 4303 16fb 10       		.uleb128 0x10
 4304 16fc 4A0D0000 		.4byte	.LASF348
 4305 1700 14       		.byte	0x14
 4306 1701 1501     		.2byte	0x115
 4307 1703 07170000 		.4byte	0x1707
 4308 1707 18       		.uleb128 0x18
 4309 1708 17170000 		.4byte	0x1717
 4310 170c 19       		.uleb128 0x19
 4311 170d 01130000 		.4byte	0x1301
 4312 1711 19       		.uleb128 0x19
 4313 1712 A2000000 		.4byte	0xa2
 4314 1716 00       		.byte	0
 4315 1717 16       		.uleb128 0x16
 4316 1718 0C       		.byte	0xc
 4317 1719 14       		.byte	0x14
 4318 171a 1701     		.2byte	0x117
 4319 171c 48170000 		.4byte	0x1748
 4320 1720 17       		.uleb128 0x17
 4321 1721 38090000 		.4byte	.LASF349
 4322 1725 14       		.byte	0x14
 4323 1726 1801     		.2byte	0x118
 4324 1728 48170000 		.4byte	0x1748
 4325 172c 00       		.byte	0
 4326 172d 17       		.uleb128 0x17
 4327 172e 1C0E0000 		.4byte	.LASF350
 4328 1732 14       		.byte	0x14
 4329 1733 1901     		.2byte	0x119
 4330 1735 4E170000 		.4byte	0x174e
 4331 1739 04       		.byte	0x4
 4332 173a 17       		.uleb128 0x17
 4333 173b 7B130000 		.4byte	.LASF351
 4334 173f 14       		.byte	0x14
 4335 1740 1A01     		.2byte	0x11a
 4336 1742 54170000 		.4byte	0x1754
 4337 1746 08       		.byte	0x8
 4338 1747 00       		.byte	0
 4339 1748 11       		.uleb128 0x11
 4340 1749 04       		.byte	0x4
 4341 174a CF160000 		.4byte	0x16cf
 4342 174e 11       		.uleb128 0x11
 4343 174f 04       		.byte	0x4
 4344 1750 EF160000 		.4byte	0x16ef
 4345 1754 11       		.uleb128 0x11
ARM GAS  C:\Users\louis\AppData\Local\Temp\ccj8Y2ua.s 			page 114


 4346 1755 04       		.byte	0x4
 4347 1756 FB160000 		.4byte	0x16fb
 4348 175a 10       		.uleb128 0x10
 4349 175b 5D000000 		.4byte	.LASF352
 4350 175f 14       		.byte	0x14
 4351 1760 1B01     		.2byte	0x11b
 4352 1762 17170000 		.4byte	0x1717
 4353 1766 10       		.uleb128 0x10
 4354 1767 AF110000 		.4byte	.LASF353
 4355 176b 14       		.byte	0x14
 4356 176c 2401     		.2byte	0x124
 4357 176e 72170000 		.4byte	0x1772
 4358 1772 1A       		.uleb128 0x1a
 4359 1773 AF110000 		.4byte	.LASF353
 4360 1777 24       		.byte	0x24
 4361 1778 14       		.byte	0x14
 4362 1779 B101     		.2byte	0x1b1
 4363 177b 34180000 		.4byte	0x1834
 4364 177f 17       		.uleb128 0x17
 4365 1780 8B080000 		.4byte	.LASF354
 4366 1784 14       		.byte	0x14
 4367 1785 B201     		.2byte	0x1b2
 4368 1787 3F190000 		.4byte	0x193f
 4369 178b 00       		.byte	0
 4370 178c 17       		.uleb128 0x17
 4371 178d 2B010000 		.4byte	.LASF355
 4372 1791 14       		.byte	0x14
 4373 1792 B301     		.2byte	0x1b3
 4374 1794 45190000 		.4byte	0x1945
 4375 1798 04       		.byte	0x4
 4376 1799 17       		.uleb128 0x17
 4377 179a 680C0000 		.4byte	.LASF356
 4378 179e 14       		.byte	0x14
 4379 179f B401     		.2byte	0x1b4
 4380 17a1 4B190000 		.4byte	0x194b
 4381 17a5 08       		.byte	0x8
 4382 17a6 17       		.uleb128 0x17
 4383 17a7 12090000 		.4byte	.LASF357
 4384 17ab 14       		.byte	0x14
 4385 17ac B501     		.2byte	0x1b5
 4386 17ae 51190000 		.4byte	0x1951
 4387 17b2 0C       		.byte	0xc
 4388 17b3 17       		.uleb128 0x17
 4389 17b4 DE080000 		.4byte	.LASF358
 4390 17b8 14       		.byte	0x14
 4391 17b9 B601     		.2byte	0x1b6
 4392 17bb 57190000 		.4byte	0x1957
 4393 17bf 10       		.byte	0x10
 4394 17c0 17       		.uleb128 0x17
 4395 17c1 F80C0000 		.4byte	.LASF359
 4396 17c5 14       		.byte	0x14
 4397 17c6 B701     		.2byte	0x1b7
 4398 17c8 5D190000 		.4byte	0x195d
 4399 17cc 14       		.byte	0x14
 4400 17cd 17       		.uleb128 0x17
 4401 17ce 4D0E0000 		.4byte	.LASF315
 4402 17d2 14       		.byte	0x14
ARM GAS  C:\Users\louis\AppData\Local\Temp\ccj8Y2ua.s 			page 115


 4403 17d3 B801     		.2byte	0x1b8
 4404 17d5 4C000000 		.4byte	0x4c
 4405 17d9 18       		.byte	0x18
 4406 17da 17       		.uleb128 0x17
 4407 17db B5120000 		.4byte	.LASF360
 4408 17df 14       		.byte	0x14
 4409 17e0 B901     		.2byte	0x1b9
 4410 17e2 4C000000 		.4byte	0x4c
 4411 17e6 19       		.byte	0x19
 4412 17e7 17       		.uleb128 0x17
 4413 17e8 CD080000 		.4byte	.LASF361
 4414 17ec 14       		.byte	0x14
 4415 17ed BA01     		.2byte	0x1ba
 4416 17ef 4C000000 		.4byte	0x4c
 4417 17f3 1A       		.byte	0x1a
 4418 17f4 17       		.uleb128 0x17
 4419 17f5 47170000 		.4byte	.LASF362
 4420 17f9 14       		.byte	0x14
 4421 17fa BB01     		.2byte	0x1bb
 4422 17fc 4C000000 		.4byte	0x4c
 4423 1800 1B       		.byte	0x1b
 4424 1801 1F       		.uleb128 0x1f
 4425 1802 7000     		.ascii	"p\000"
 4426 1804 14       		.byte	0x14
 4427 1805 C101     		.2byte	0x1c1
 4428 1807 E4180000 		.4byte	0x18e4
 4429 180b 1C       		.byte	0x1c
 4430 180c 17       		.uleb128 0x17
 4431 180d BF040000 		.4byte	.LASF342
 4432 1811 14       		.byte	0x14
 4433 1812 C201     		.2byte	0x1c2
 4434 1814 4C000000 		.4byte	0x4c
 4435 1818 20       		.byte	0x20
 4436 1819 17       		.uleb128 0x17
 4437 181a 68100000 		.4byte	.LASF343
 4438 181e 14       		.byte	0x14
 4439 181f C301     		.2byte	0x1c3
 4440 1821 4C000000 		.4byte	0x4c
 4441 1825 21       		.byte	0x21
 4442 1826 17       		.uleb128 0x17
 4443 1827 970A0000 		.4byte	.LASF344
 4444 182b 14       		.byte	0x14
 4445 182c C401     		.2byte	0x1c4
 4446 182e 4C000000 		.4byte	0x4c
 4447 1832 22       		.byte	0x22
 4448 1833 00       		.byte	0
 4449 1834 10       		.uleb128 0x10
 4450 1835 AC090000 		.4byte	.LASF363
 4451 1839 14       		.byte	0x14
 4452 183a 2601     		.2byte	0x126
 4453 183c 40180000 		.4byte	0x1840
 4454 1840 18       		.uleb128 0x18
 4455 1841 4B180000 		.4byte	0x184b
 4456 1845 19       		.uleb128 0x19
 4457 1846 69000000 		.4byte	0x69
 4458 184a 00       		.byte	0
 4459 184b 10       		.uleb128 0x10
ARM GAS  C:\Users\louis\AppData\Local\Temp\ccj8Y2ua.s 			page 116


 4460 184c 990C0000 		.4byte	.LASF364
 4461 1850 14       		.byte	0x14
 4462 1851 2701     		.2byte	0x127
 4463 1853 57180000 		.4byte	0x1857
 4464 1857 1C       		.uleb128 0x1c
 4465 1858 A2000000 		.4byte	0xa2
 4466 185c 6B180000 		.4byte	0x186b
 4467 1860 19       		.uleb128 0x19
 4468 1861 69000000 		.4byte	0x69
 4469 1865 19       		.uleb128 0x19
 4470 1866 6B180000 		.4byte	0x186b
 4471 186a 00       		.byte	0
 4472 186b 11       		.uleb128 0x11
 4473 186c 04       		.byte	0x4
 4474 186d A2000000 		.4byte	0xa2
 4475 1871 10       		.uleb128 0x10
 4476 1872 7B080000 		.4byte	.LASF365
 4477 1876 14       		.byte	0x14
 4478 1877 2801     		.2byte	0x128
 4479 1879 7D180000 		.4byte	0x187d
 4480 187d 18       		.uleb128 0x18
 4481 187e 8D180000 		.4byte	0x188d
 4482 1882 19       		.uleb128 0x19
 4483 1883 8D180000 		.4byte	0x188d
 4484 1887 19       		.uleb128 0x19
 4485 1888 98180000 		.4byte	0x1898
 4486 188c 00       		.byte	0
 4487 188d 11       		.uleb128 0x11
 4488 188e 04       		.byte	0x4
 4489 188f 93180000 		.4byte	0x1893
 4490 1893 06       		.uleb128 0x6
 4491 1894 66170000 		.4byte	0x1766
 4492 1898 11       		.uleb128 0x11
 4493 1899 04       		.byte	0x4
 4494 189a C4160000 		.4byte	0x16c4
 4495 189e 10       		.uleb128 0x10
 4496 189f 29180000 		.4byte	.LASF366
 4497 18a3 14       		.byte	0x14
 4498 18a4 2901     		.2byte	0x129
 4499 18a6 AA180000 		.4byte	0x18aa
 4500 18aa 1C       		.uleb128 0x1c
 4501 18ab 130C0000 		.4byte	0xc13
 4502 18af BE180000 		.4byte	0x18be
 4503 18b3 19       		.uleb128 0x19
 4504 18b4 8D180000 		.4byte	0x188d
 4505 18b8 19       		.uleb128 0x19
 4506 18b9 69000000 		.4byte	0x69
 4507 18bd 00       		.byte	0
 4508 18be 10       		.uleb128 0x10
 4509 18bf 850E0000 		.4byte	.LASF367
 4510 18c3 14       		.byte	0x14
 4511 18c4 2A01     		.2byte	0x12a
 4512 18c6 CA180000 		.4byte	0x18ca
 4513 18ca 1C       		.uleb128 0x1c
 4514 18cb A2000000 		.4byte	0xa2
 4515 18cf DE180000 		.4byte	0x18de
 4516 18d3 19       		.uleb128 0x19
ARM GAS  C:\Users\louis\AppData\Local\Temp\ccj8Y2ua.s 			page 117


 4517 18d4 69000000 		.4byte	0x69
 4518 18d8 19       		.uleb128 0x19
 4519 18d9 DE180000 		.4byte	0x18de
 4520 18dd 00       		.byte	0
 4521 18de 11       		.uleb128 0x11
 4522 18df 04       		.byte	0x4
 4523 18e0 45150000 		.4byte	0x1545
 4524 18e4 20       		.uleb128 0x20
 4525 18e5 04       		.byte	0x4
 4526 18e6 14       		.byte	0x14
 4527 18e7 BC01     		.2byte	0x1bc
 4528 18e9 1E190000 		.4byte	0x191e
 4529 18ed 21       		.uleb128 0x21
 4530 18ee AF020000 		.4byte	.LASF368
 4531 18f2 14       		.byte	0x14
 4532 18f3 BD01     		.2byte	0x1bd
 4533 18f5 FA120000 		.4byte	0x12fa
 4534 18f9 21       		.uleb128 0x21
 4535 18fa 3A120000 		.4byte	.LASF369
 4536 18fe 14       		.byte	0x14
 4537 18ff BE01     		.2byte	0x1be
 4538 1901 1E190000 		.4byte	0x191e
 4539 1905 21       		.uleb128 0x21
 4540 1906 F2170000 		.4byte	.LASF370
 4541 190a 14       		.byte	0x14
 4542 190b BF01     		.2byte	0x1bf
 4543 190d 29190000 		.4byte	0x1929
 4544 1911 21       		.uleb128 0x21
 4545 1912 0D190000 		.4byte	.LASF371
 4546 1916 14       		.byte	0x14
 4547 1917 C001     		.2byte	0x1c0
 4548 1919 34190000 		.4byte	0x1934
 4549 191d 00       		.byte	0
 4550 191e 11       		.uleb128 0x11
 4551 191f 04       		.byte	0x4
 4552 1920 24190000 		.4byte	0x1924
 4553 1924 06       		.uleb128 0x6
 4554 1925 80160000 		.4byte	0x1680
 4555 1929 11       		.uleb128 0x11
 4556 192a 04       		.byte	0x4
 4557 192b 2F190000 		.4byte	0x192f
 4558 192f 06       		.uleb128 0x6
 4559 1930 A3150000 		.4byte	0x15a3
 4560 1934 11       		.uleb128 0x11
 4561 1935 04       		.byte	0x4
 4562 1936 3A190000 		.4byte	0x193a
 4563 193a 06       		.uleb128 0x6
 4564 193b 01160000 		.4byte	0x1601
 4565 193f 11       		.uleb128 0x11
 4566 1940 04       		.byte	0x4
 4567 1941 34180000 		.4byte	0x1834
 4568 1945 11       		.uleb128 0x11
 4569 1946 04       		.byte	0x4
 4570 1947 4B180000 		.4byte	0x184b
 4571 194b 11       		.uleb128 0x11
 4572 194c 04       		.byte	0x4
 4573 194d 71180000 		.4byte	0x1871
ARM GAS  C:\Users\louis\AppData\Local\Temp\ccj8Y2ua.s 			page 118


 4574 1951 11       		.uleb128 0x11
 4575 1952 04       		.byte	0x4
 4576 1953 9E180000 		.4byte	0x189e
 4577 1957 11       		.uleb128 0x11
 4578 1958 04       		.byte	0x4
 4579 1959 BE180000 		.4byte	0x18be
 4580 195d 11       		.uleb128 0x11
 4581 195e 04       		.byte	0x4
 4582 195f 63190000 		.4byte	0x1963
 4583 1963 06       		.uleb128 0x6
 4584 1964 5A170000 		.4byte	0x175a
 4585 1968 06       		.uleb128 0x6
 4586 1969 38140000 		.4byte	0x1438
 4587 196d 03       		.uleb128 0x3
 4588 196e A30E0000 		.4byte	.LASF372
 4589 1972 15       		.byte	0x15
 4590 1973 35       		.byte	0x35
 4591 1974 4C000000 		.4byte	0x4c
 4592 1978 03       		.uleb128 0x3
 4593 1979 56160000 		.4byte	.LASF373
 4594 197d 16       		.byte	0x16
 4595 197e 69       		.byte	0x69
 4596 197f 6D190000 		.4byte	0x196d
 4597 1983 22       		.uleb128 0x22
 4598 1984 01       		.byte	0x1
 4599 1985 4C000000 		.4byte	0x4c
 4600 1989 16       		.byte	0x16
 4601 198a 6E       		.byte	0x6e
 4602 198b A2190000 		.4byte	0x19a2
 4603 198f 15       		.uleb128 0x15
 4604 1990 B80E0000 		.4byte	.LASF374
 4605 1994 00       		.byte	0
 4606 1995 15       		.uleb128 0x15
 4607 1996 630B0000 		.4byte	.LASF375
 4608 199a 01       		.byte	0x1
 4609 199b 15       		.uleb128 0x15
 4610 199c 350C0000 		.4byte	.LASF376
 4611 19a0 02       		.byte	0x2
 4612 19a1 00       		.byte	0
 4613 19a2 03       		.uleb128 0x3
 4614 19a3 A0030000 		.4byte	.LASF377
 4615 19a7 16       		.byte	0x16
 4616 19a8 72       		.byte	0x72
 4617 19a9 83190000 		.4byte	0x1983
 4618 19ad 23       		.uleb128 0x23
 4619 19ae 020E0000 		.4byte	.LASF382
 4620 19b2 02       		.byte	0x2
 4621 19b3 B801     		.2byte	0x1b8
 4622 19b5 03       		.byte	0x3
 4623 19b6 D3190000 		.4byte	0x19d3
 4624 19ba 24       		.uleb128 0x24
 4625 19bb 20060000 		.4byte	.LASF378
 4626 19bf 02       		.byte	0x2
 4627 19c0 B801     		.2byte	0x1b8
 4628 19c2 D3190000 		.4byte	0x19d3
 4629 19c6 24       		.uleb128 0x24
 4630 19c7 54090000 		.4byte	.LASF379
ARM GAS  C:\Users\louis\AppData\Local\Temp\ccj8Y2ua.s 			page 119


 4631 19cb 02       		.byte	0x2
 4632 19cc B801     		.2byte	0x1b8
 4633 19ce DC000000 		.4byte	0xdc
 4634 19d2 00       		.byte	0
 4635 19d3 11       		.uleb128 0x11
 4636 19d4 04       		.byte	0x4
 4637 19d5 C5070000 		.4byte	0x7c5
 4638 19d9 25       		.uleb128 0x25
 4639 19da 93150000 		.4byte	.LASF380
 4640 19de 17       		.byte	0x17
 4641 19df 8F       		.byte	0x8f
 4642 19e0 03       		.byte	0x3
 4643 19e1 25       		.uleb128 0x25
 4644 19e2 C7170000 		.4byte	.LASF381
 4645 19e6 03       		.byte	0x3
 4646 19e7 81       		.byte	0x81
 4647 19e8 03       		.byte	0x3
 4648 19e9 23       		.uleb128 0x23
 4649 19ea D1060000 		.4byte	.LASF383
 4650 19ee 04       		.byte	0x4
 4651 19ef 2503     		.2byte	0x325
 4652 19f1 03       		.byte	0x3
 4653 19f2 1B1A0000 		.4byte	0x1a1b
 4654 19f6 24       		.uleb128 0x24
 4655 19f7 20060000 		.4byte	.LASF378
 4656 19fb 04       		.byte	0x4
 4657 19fc 2503     		.2byte	0x325
 4658 19fe 1B1A0000 		.4byte	0x1a1b
 4659 1a02 24       		.uleb128 0x24
 4660 1a03 BA160000 		.4byte	.LASF384
 4661 1a07 04       		.byte	0x4
 4662 1a08 2503     		.2byte	0x325
 4663 1a0a DC000000 		.4byte	0xdc
 4664 1a0e 24       		.uleb128 0x24
 4665 1a0f FB070000 		.4byte	.LASF385
 4666 1a13 04       		.byte	0x4
 4667 1a14 2503     		.2byte	0x325
 4668 1a16 DC000000 		.4byte	0xdc
 4669 1a1a 00       		.byte	0
 4670 1a1b 11       		.uleb128 0x11
 4671 1a1c 04       		.byte	0x4
 4672 1a1d AD070000 		.4byte	0x7ad
 4673 1a21 26       		.uleb128 0x26
 4674 1a22 A7120000 		.4byte	.LASF388
 4675 1a26 01       		.byte	0x1
 4676 1a27 65       		.byte	0x65
 4677 1a28 00000000 		.4byte	.LFB681
 4678 1a2c 2C000000 		.4byte	.LFE681-.LFB681
 4679 1a30 01       		.uleb128 0x1
 4680 1a31 9C       		.byte	0x9c
 4681 1a32 B01A0000 		.4byte	0x1ab0
 4682 1a36 27       		.uleb128 0x27
 4683 1a37 63130000 		.4byte	.LASF386
 4684 1a3b 01       		.byte	0x1
 4685 1a3c 65       		.byte	0x65
 4686 1a3d A2190000 		.4byte	0x19a2
 4687 1a41 00000000 		.4byte	.LLST0
ARM GAS  C:\Users\louis\AppData\Local\Temp\ccj8Y2ua.s 			page 120


 4688 1a45 27       		.uleb128 0x27
 4689 1a46 F4010000 		.4byte	.LASF387
 4690 1a4a 01       		.byte	0x1
 4691 1a4b 65       		.byte	0x65
 4692 1a4c 340C0000 		.4byte	0xc34
 4693 1a50 21000000 		.4byte	.LLST1
 4694 1a54 28       		.uleb128 0x28
 4695 1a55 FE120000 		.4byte	.LASF390
 4696 1a59 01       		.byte	0x1
 4697 1a5a 67       		.byte	0x67
 4698 1a5b B01A0000 		.4byte	0x1ab0
 4699 1a5f 42000000 		.4byte	.LLST2
 4700 1a63 29       		.uleb128 0x29
 4701 1a64 0A000000 		.4byte	.LVL1
 4702 1a68 822C0000 		.4byte	0x2c82
 4703 1a6c 2A       		.uleb128 0x2a
 4704 1a6d 1A000000 		.4byte	.LVL4
 4705 1a71 8D2C0000 		.4byte	0x2c8d
 4706 1a75 921A0000 		.4byte	0x1a92
 4707 1a79 2B       		.uleb128 0x2b
 4708 1a7a 01       		.uleb128 0x1
 4709 1a7b 50       		.byte	0x50
 4710 1a7c 02       		.uleb128 0x2
 4711 1a7d 74       		.byte	0x74
 4712 1a7e 00       		.sleb128 0
 4713 1a7f 2B       		.uleb128 0x2b
 4714 1a80 01       		.uleb128 0x1
 4715 1a81 51       		.byte	0x51
 4716 1a82 02       		.uleb128 0x2
 4717 1a83 75       		.byte	0x75
 4718 1a84 00       		.sleb128 0
 4719 1a85 2B       		.uleb128 0x2b
 4720 1a86 01       		.uleb128 0x1
 4721 1a87 52       		.byte	0x52
 4722 1a88 02       		.uleb128 0x2
 4723 1a89 76       		.byte	0x76
 4724 1a8a 00       		.sleb128 0
 4725 1a8b 2B       		.uleb128 0x2b
 4726 1a8c 01       		.uleb128 0x1
 4727 1a8d 53       		.byte	0x53
 4728 1a8e 02       		.uleb128 0x2
 4729 1a8f 77       		.byte	0x77
 4730 1a90 00       		.sleb128 0
 4731 1a91 00       		.byte	0
 4732 1a92 2C       		.uleb128 0x2c
 4733 1a93 26000000 		.4byte	.LVL5
 4734 1a97 982C0000 		.4byte	0x2c98
 4735 1a9b 2B       		.uleb128 0x2b
 4736 1a9c 01       		.uleb128 0x1
 4737 1a9d 50       		.byte	0x50
 4738 1a9e 02       		.uleb128 0x2
 4739 1a9f 74       		.byte	0x74
 4740 1aa0 00       		.sleb128 0
 4741 1aa1 2B       		.uleb128 0x2b
 4742 1aa2 01       		.uleb128 0x1
 4743 1aa3 51       		.byte	0x51
 4744 1aa4 02       		.uleb128 0x2
ARM GAS  C:\Users\louis\AppData\Local\Temp\ccj8Y2ua.s 			page 121


 4745 1aa5 75       		.byte	0x75
 4746 1aa6 00       		.sleb128 0
 4747 1aa7 2B       		.uleb128 0x2b
 4748 1aa8 01       		.uleb128 0x1
 4749 1aa9 52       		.byte	0x52
 4750 1aaa 03       		.uleb128 0x3
 4751 1aab 0A       		.byte	0xa
 4752 1aac B016     		.2byte	0x16b0
 4753 1aae 00       		.byte	0
 4754 1aaf 00       		.byte	0
 4755 1ab0 11       		.uleb128 0x11
 4756 1ab1 04       		.byte	0x4
 4757 1ab2 78190000 		.4byte	0x1978
 4758 1ab6 2D       		.uleb128 0x2d
 4759 1ab7 C1180000 		.4byte	.LASF389
 4760 1abb 01       		.byte	0x1
 4761 1abc F0       		.byte	0xf0
 4762 1abd 00000000 		.4byte	.LFB686
 4763 1ac1 74010000 		.4byte	.LFE686-.LFB686
 4764 1ac5 01       		.uleb128 0x1
 4765 1ac6 9C       		.byte	0x9c
 4766 1ac7 6C1D0000 		.4byte	0x1d6c
 4767 1acb 2E       		.uleb128 0x2e
 4768 1acc 763100   		.ascii	"v1\000"
 4769 1acf 01       		.byte	0x1
 4770 1ad0 F7       		.byte	0xf7
 4771 1ad1 25000000 		.4byte	0x25
 4772 1ad5 6B000000 		.4byte	.LLST3
 4773 1ad9 2E       		.uleb128 0x2e
 4774 1ada 763200   		.ascii	"v2\000"
 4775 1add 01       		.byte	0x1
 4776 1ade F7       		.byte	0xf7
 4777 1adf 25000000 		.4byte	0x25
 4778 1ae3 8A000000 		.4byte	.LLST4
 4779 1ae7 28       		.uleb128 0x28
 4780 1ae8 6C0F0000 		.4byte	.LASF391
 4781 1aec 01       		.byte	0x1
 4782 1aed F8       		.byte	0xf8
 4783 1aee BB000000 		.4byte	0xbb
 4784 1af2 A9000000 		.4byte	.LLST5
 4785 1af6 28       		.uleb128 0x28
 4786 1af7 F8150000 		.4byte	.LASF392
 4787 1afb 01       		.byte	0x1
 4788 1afc F8       		.byte	0xf8
 4789 1afd BB000000 		.4byte	0xbb
 4790 1b01 BC000000 		.4byte	.LLST6
 4791 1b05 2F       		.uleb128 0x2f
 4792 1b06 42170000 		.4byte	.LASF393
 4793 1b0a 01       		.byte	0x1
 4794 1b0b 0101     		.2byte	0x101
 4795 1b0d 260C0000 		.4byte	0xc26
 4796 1b11 CF000000 		.4byte	.LLST7
 4797 1b15 2F       		.uleb128 0x2f
 4798 1b16 00010000 		.4byte	.LASF394
 4799 1b1a 01       		.byte	0x1
 4800 1b1b 0201     		.2byte	0x102
 4801 1b1d 25000000 		.4byte	0x25
ARM GAS  C:\Users\louis\AppData\Local\Temp\ccj8Y2ua.s 			page 122


 4802 1b21 E2000000 		.4byte	.LLST8
 4803 1b25 30       		.uleb128 0x30
 4804 1b26 6300     		.ascii	"c\000"
 4805 1b28 01       		.byte	0x1
 4806 1b29 0601     		.2byte	0x106
 4807 1b2b 6C1D0000 		.4byte	0x1d6c
 4808 1b2f 03       		.uleb128 0x3
 4809 1b30 91       		.byte	0x91
 4810 1b31 9C7F     		.sleb128 -100
 4811 1b33 29       		.uleb128 0x29
 4812 1b34 0E000000 		.4byte	.LVL7
 4813 1b38 A12C0000 		.4byte	0x2ca1
 4814 1b3c 29       		.uleb128 0x29
 4815 1b3d 12000000 		.4byte	.LVL8
 4816 1b41 AC2C0000 		.4byte	0x2cac
 4817 1b45 2A       		.uleb128 0x2a
 4818 1b46 1C000000 		.4byte	.LVL9
 4819 1b4a B72C0000 		.4byte	0x2cb7
 4820 1b4e 5E1B0000 		.4byte	0x1b5e
 4821 1b52 2B       		.uleb128 0x2b
 4822 1b53 01       		.uleb128 0x1
 4823 1b54 50       		.byte	0x50
 4824 1b55 02       		.uleb128 0x2
 4825 1b56 74       		.byte	0x74
 4826 1b57 00       		.sleb128 0
 4827 1b58 2B       		.uleb128 0x2b
 4828 1b59 01       		.uleb128 0x1
 4829 1b5a 51       		.byte	0x51
 4830 1b5b 01       		.uleb128 0x1
 4831 1b5c 31       		.byte	0x31
 4832 1b5d 00       		.byte	0
 4833 1b5e 2A       		.uleb128 0x2a
 4834 1b5f 24000000 		.4byte	.LVL10
 4835 1b63 C32C0000 		.4byte	0x2cc3
 4836 1b67 771B0000 		.4byte	0x1b77
 4837 1b6b 2B       		.uleb128 0x2b
 4838 1b6c 01       		.uleb128 0x1
 4839 1b6d 50       		.byte	0x50
 4840 1b6e 02       		.uleb128 0x2
 4841 1b6f 74       		.byte	0x74
 4842 1b70 00       		.sleb128 0
 4843 1b71 2B       		.uleb128 0x2b
 4844 1b72 01       		.uleb128 0x1
 4845 1b73 51       		.byte	0x51
 4846 1b74 01       		.uleb128 0x1
 4847 1b75 30       		.byte	0x30
 4848 1b76 00       		.byte	0
 4849 1b77 2A       		.uleb128 0x2a
 4850 1b78 2E000000 		.4byte	.LVL12
 4851 1b7c C32C0000 		.4byte	0x2cc3
 4852 1b80 901B0000 		.4byte	0x1b90
 4853 1b84 2B       		.uleb128 0x2b
 4854 1b85 01       		.uleb128 0x1
 4855 1b86 50       		.byte	0x50
 4856 1b87 02       		.uleb128 0x2
 4857 1b88 74       		.byte	0x74
 4858 1b89 00       		.sleb128 0
ARM GAS  C:\Users\louis\AppData\Local\Temp\ccj8Y2ua.s 			page 123


 4859 1b8a 2B       		.uleb128 0x2b
 4860 1b8b 01       		.uleb128 0x1
 4861 1b8c 51       		.byte	0x51
 4862 1b8d 01       		.uleb128 0x1
 4863 1b8e 31       		.byte	0x31
 4864 1b8f 00       		.byte	0
 4865 1b90 2A       		.uleb128 0x2a
 4866 1b91 3A000000 		.4byte	.LVL14
 4867 1b95 CF2C0000 		.4byte	0x2ccf
 4868 1b99 AF1B0000 		.4byte	0x1baf
 4869 1b9d 2B       		.uleb128 0x2b
 4870 1b9e 01       		.uleb128 0x1
 4871 1b9f 50       		.byte	0x50
 4872 1ba0 02       		.uleb128 0x2
 4873 1ba1 74       		.byte	0x74
 4874 1ba2 00       		.sleb128 0
 4875 1ba3 2B       		.uleb128 0x2b
 4876 1ba4 01       		.uleb128 0x1
 4877 1ba5 51       		.byte	0x51
 4878 1ba6 01       		.uleb128 0x1
 4879 1ba7 30       		.byte	0x30
 4880 1ba8 2B       		.uleb128 0x2b
 4881 1ba9 01       		.uleb128 0x1
 4882 1baa 52       		.byte	0x52
 4883 1bab 02       		.uleb128 0x2
 4884 1bac 75       		.byte	0x75
 4885 1bad 00       		.sleb128 0
 4886 1bae 00       		.byte	0
 4887 1baf 2A       		.uleb128 0x2a
 4888 1bb0 48000000 		.4byte	.LVL17
 4889 1bb4 CF2C0000 		.4byte	0x2ccf
 4890 1bb8 CE1B0000 		.4byte	0x1bce
 4891 1bbc 2B       		.uleb128 0x2b
 4892 1bbd 01       		.uleb128 0x1
 4893 1bbe 50       		.byte	0x50
 4894 1bbf 02       		.uleb128 0x2
 4895 1bc0 74       		.byte	0x74
 4896 1bc1 00       		.sleb128 0
 4897 1bc2 2B       		.uleb128 0x2b
 4898 1bc3 01       		.uleb128 0x1
 4899 1bc4 51       		.byte	0x51
 4900 1bc5 01       		.uleb128 0x1
 4901 1bc6 31       		.byte	0x31
 4902 1bc7 2B       		.uleb128 0x2b
 4903 1bc8 01       		.uleb128 0x1
 4904 1bc9 52       		.byte	0x52
 4905 1bca 02       		.uleb128 0x2
 4906 1bcb 76       		.byte	0x76
 4907 1bcc 00       		.sleb128 0
 4908 1bcd 00       		.byte	0
 4909 1bce 2A       		.uleb128 0x2a
 4910 1bcf 54000000 		.4byte	.LVL20
 4911 1bd3 DB2C0000 		.4byte	0x2cdb
 4912 1bd7 E81B0000 		.4byte	0x1be8
 4913 1bdb 2B       		.uleb128 0x2b
 4914 1bdc 01       		.uleb128 0x1
 4915 1bdd 50       		.byte	0x50
ARM GAS  C:\Users\louis\AppData\Local\Temp\ccj8Y2ua.s 			page 124


 4916 1bde 02       		.uleb128 0x2
 4917 1bdf 75       		.byte	0x75
 4918 1be0 00       		.sleb128 0
 4919 1be1 2B       		.uleb128 0x2b
 4920 1be2 01       		.uleb128 0x1
 4921 1be3 51       		.byte	0x51
 4922 1be4 02       		.uleb128 0x2
 4923 1be5 76       		.byte	0x76
 4924 1be6 00       		.sleb128 0
 4925 1be7 00       		.byte	0
 4926 1be8 29       		.uleb128 0x29
 4927 1be9 58000000 		.4byte	.LVL21
 4928 1bed E62C0000 		.4byte	0x2ce6
 4929 1bf1 2A       		.uleb128 0x2a
 4930 1bf2 C8000000 		.4byte	.LVL32
 4931 1bf6 F12C0000 		.4byte	0x2cf1
 4932 1bfa 101C0000 		.4byte	0x1c10
 4933 1bfe 2B       		.uleb128 0x2b
 4934 1bff 01       		.uleb128 0x1
 4935 1c00 50       		.byte	0x50
 4936 1c01 05       		.uleb128 0x5
 4937 1c02 03       		.byte	0x3
 4938 1c03 00000000 		.4byte	.LC7
 4939 1c07 2B       		.uleb128 0x2b
 4940 1c08 02       		.uleb128 0x2
 4941 1c09 7D       		.byte	0x7d
 4942 1c0a 10       		.sleb128 16
 4943 1c0b 03       		.uleb128 0x3
 4944 1c0c F5       		.byte	0xf5
 4945 1c0d 04       		.uleb128 0x4
 4946 1c0e 2C       		.uleb128 0x2c
 4947 1c0f 00       		.byte	0
 4948 1c10 2A       		.uleb128 0x2a
 4949 1c11 D4000000 		.4byte	.LVL33
 4950 1c15 FC2C0000 		.4byte	0x2cfc
 4951 1c19 2E1C0000 		.4byte	0x1c2e
 4952 1c1d 2B       		.uleb128 0x2b
 4953 1c1e 01       		.uleb128 0x1
 4954 1c1f 50       		.byte	0x50
 4955 1c20 03       		.uleb128 0x3
 4956 1c21 91       		.byte	0x91
 4957 1c22 9C7F     		.sleb128 -100
 4958 1c24 2B       		.uleb128 0x2b
 4959 1c25 01       		.uleb128 0x1
 4960 1c26 51       		.byte	0x51
 4961 1c27 05       		.uleb128 0x5
 4962 1c28 03       		.byte	0x3
 4963 1c29 28000000 		.4byte	.LC8
 4964 1c2d 00       		.byte	0
 4965 1c2e 2A       		.uleb128 0x2a
 4966 1c2f DA000000 		.4byte	.LVL34
 4967 1c33 072D0000 		.4byte	0x2d07
 4968 1c37 411C0000 		.4byte	0x1c41
 4969 1c3b 2B       		.uleb128 0x2b
 4970 1c3c 01       		.uleb128 0x1
 4971 1c3d 50       		.byte	0x50
 4972 1c3e 01       		.uleb128 0x1
ARM GAS  C:\Users\louis\AppData\Local\Temp\ccj8Y2ua.s 			page 125


 4973 1c3f 30       		.byte	0x30
 4974 1c40 00       		.byte	0
 4975 1c41 2A       		.uleb128 0x2a
 4976 1c42 E2000000 		.4byte	.LVL35
 4977 1c46 132D0000 		.4byte	0x2d13
 4978 1c4a 581C0000 		.4byte	0x1c58
 4979 1c4e 2B       		.uleb128 0x2b
 4980 1c4f 01       		.uleb128 0x1
 4981 1c50 50       		.byte	0x50
 4982 1c51 05       		.uleb128 0x5
 4983 1c52 0C       		.byte	0xc
 4984 1c53 FFFFFF00 		.4byte	0xffffff
 4985 1c57 00       		.byte	0
 4986 1c58 2A       		.uleb128 0x2a
 4987 1c59 E8000000 		.4byte	.LVL36
 4988 1c5d 1F2D0000 		.4byte	0x2d1f
 4989 1c61 6B1C0000 		.4byte	0x1c6b
 4990 1c65 2B       		.uleb128 0x2b
 4991 1c66 01       		.uleb128 0x1
 4992 1c67 50       		.byte	0x50
 4993 1c68 01       		.uleb128 0x1
 4994 1c69 30       		.byte	0x30
 4995 1c6a 00       		.byte	0
 4996 1c6b 2A       		.uleb128 0x2a
 4997 1c6c EE000000 		.4byte	.LVL37
 4998 1c70 2B2D0000 		.4byte	0x2d2b
 4999 1c74 7E1C0000 		.4byte	0x1c7e
 5000 1c78 2B       		.uleb128 0x2b
 5001 1c79 01       		.uleb128 0x1
 5002 1c7a 50       		.byte	0x50
 5003 1c7b 01       		.uleb128 0x1
 5004 1c7c 30       		.byte	0x30
 5005 1c7d 00       		.byte	0
 5006 1c7e 29       		.uleb128 0x29
 5007 1c7f F2000000 		.4byte	.LVL38
 5008 1c83 372D0000 		.4byte	0x2d37
 5009 1c87 2A       		.uleb128 0x2a
 5010 1c88 FA000000 		.4byte	.LVL39
 5011 1c8c 432D0000 		.4byte	0x2d43
 5012 1c90 9B1C0000 		.4byte	0x1c9b
 5013 1c94 2B       		.uleb128 0x2b
 5014 1c95 01       		.uleb128 0x1
 5015 1c96 50       		.byte	0x50
 5016 1c97 02       		.uleb128 0x2
 5017 1c98 74       		.byte	0x74
 5018 1c99 00       		.sleb128 0
 5019 1c9a 00       		.byte	0
 5020 1c9b 2A       		.uleb128 0x2a
 5021 1c9c 00010000 		.4byte	.LVL40
 5022 1ca0 4F2D0000 		.4byte	0x2d4f
 5023 1ca4 AE1C0000 		.4byte	0x1cae
 5024 1ca8 2B       		.uleb128 0x2b
 5025 1ca9 01       		.uleb128 0x1
 5026 1caa 50       		.byte	0x50
 5027 1cab 01       		.uleb128 0x1
 5028 1cac 32       		.byte	0x32
 5029 1cad 00       		.byte	0
ARM GAS  C:\Users\louis\AppData\Local\Temp\ccj8Y2ua.s 			page 126


 5030 1cae 2A       		.uleb128 0x2a
 5031 1caf 0A010000 		.4byte	.LVL41
 5032 1cb3 5B2D0000 		.4byte	0x2d5b
 5033 1cb7 D01C0000 		.4byte	0x1cd0
 5034 1cbb 2B       		.uleb128 0x2b
 5035 1cbc 01       		.uleb128 0x1
 5036 1cbd 50       		.byte	0x50
 5037 1cbe 05       		.uleb128 0x5
 5038 1cbf 03       		.byte	0x3
 5039 1cc0 2C000000 		.4byte	.LC9
 5040 1cc4 2B       		.uleb128 0x2b
 5041 1cc5 01       		.uleb128 0x1
 5042 1cc6 51       		.byte	0x51
 5043 1cc7 02       		.uleb128 0x2
 5044 1cc8 08       		.byte	0x8
 5045 1cc9 84       		.byte	0x84
 5046 1cca 2B       		.uleb128 0x2b
 5047 1ccb 01       		.uleb128 0x1
 5048 1ccc 52       		.byte	0x52
 5049 1ccd 01       		.uleb128 0x1
 5050 1cce 35       		.byte	0x35
 5051 1ccf 00       		.byte	0
 5052 1cd0 29       		.uleb128 0x29
 5053 1cd1 10010000 		.4byte	.LVL42
 5054 1cd5 432D0000 		.4byte	0x2d43
 5055 1cd9 2A       		.uleb128 0x2a
 5056 1cda 16010000 		.4byte	.LVL43
 5057 1cde 4F2D0000 		.4byte	0x2d4f
 5058 1ce2 EC1C0000 		.4byte	0x1cec
 5059 1ce6 2B       		.uleb128 0x2b
 5060 1ce7 01       		.uleb128 0x1
 5061 1ce8 50       		.byte	0x50
 5062 1ce9 01       		.uleb128 0x1
 5063 1cea 32       		.byte	0x32
 5064 1ceb 00       		.byte	0
 5065 1cec 2A       		.uleb128 0x2a
 5066 1ced 20010000 		.4byte	.LVL44
 5067 1cf1 5B2D0000 		.4byte	0x2d5b
 5068 1cf5 0D1D0000 		.4byte	0x1d0d
 5069 1cf9 2B       		.uleb128 0x2b
 5070 1cfa 01       		.uleb128 0x1
 5071 1cfb 50       		.byte	0x50
 5072 1cfc 03       		.uleb128 0x3
 5073 1cfd 91       		.byte	0x91
 5074 1cfe 9C7F     		.sleb128 -100
 5075 1d00 2B       		.uleb128 0x2b
 5076 1d01 01       		.uleb128 0x1
 5077 1d02 51       		.byte	0x51
 5078 1d03 02       		.uleb128 0x2
 5079 1d04 08       		.byte	0x8
 5080 1d05 84       		.byte	0x84
 5081 1d06 2B       		.uleb128 0x2b
 5082 1d07 01       		.uleb128 0x1
 5083 1d08 52       		.byte	0x52
 5084 1d09 02       		.uleb128 0x2
 5085 1d0a 08       		.byte	0x8
 5086 1d0b 35       		.byte	0x35
ARM GAS  C:\Users\louis\AppData\Local\Temp\ccj8Y2ua.s 			page 127


 5087 1d0c 00       		.byte	0
 5088 1d0d 2A       		.uleb128 0x2a
 5089 1d0e 26010000 		.4byte	.LVL45
 5090 1d12 432D0000 		.4byte	0x2d43
 5091 1d16 211D0000 		.4byte	0x1d21
 5092 1d1a 2B       		.uleb128 0x2b
 5093 1d1b 01       		.uleb128 0x1
 5094 1d1c 50       		.byte	0x50
 5095 1d1d 02       		.uleb128 0x2
 5096 1d1e 74       		.byte	0x74
 5097 1d1f 00       		.sleb128 0
 5098 1d20 00       		.byte	0
 5099 1d21 2A       		.uleb128 0x2a
 5100 1d22 2C010000 		.4byte	.LVL46
 5101 1d26 4F2D0000 		.4byte	0x2d4f
 5102 1d2a 341D0000 		.4byte	0x1d34
 5103 1d2e 2B       		.uleb128 0x2b
 5104 1d2f 01       		.uleb128 0x1
 5105 1d30 50       		.byte	0x50
 5106 1d31 01       		.uleb128 0x1
 5107 1d32 32       		.byte	0x32
 5108 1d33 00       		.byte	0
 5109 1d34 2A       		.uleb128 0x2a
 5110 1d35 36010000 		.4byte	.LVL47
 5111 1d39 5B2D0000 		.4byte	0x2d5b
 5112 1d3d 571D0000 		.4byte	0x1d57
 5113 1d41 2B       		.uleb128 0x2b
 5114 1d42 01       		.uleb128 0x1
 5115 1d43 50       		.byte	0x50
 5116 1d44 05       		.uleb128 0x5
 5117 1d45 03       		.byte	0x3
 5118 1d46 40000000 		.4byte	.LC10
 5119 1d4a 2B       		.uleb128 0x2b
 5120 1d4b 01       		.uleb128 0x1
 5121 1d4c 51       		.byte	0x51
 5122 1d4d 02       		.uleb128 0x2
 5123 1d4e 08       		.byte	0x8
 5124 1d4f 84       		.byte	0x84
 5125 1d50 2B       		.uleb128 0x2b
 5126 1d51 01       		.uleb128 0x1
 5127 1d52 52       		.byte	0x52
 5128 1d53 02       		.uleb128 0x2
 5129 1d54 08       		.byte	0x8
 5130 1d55 96       		.byte	0x96
 5131 1d56 00       		.byte	0
 5132 1d57 2C       		.uleb128 0x2c
 5133 1d58 3E010000 		.4byte	.LVL48
 5134 1d5c 211A0000 		.4byte	0x1a21
 5135 1d60 2B       		.uleb128 0x2b
 5136 1d61 01       		.uleb128 0x1
 5137 1d62 50       		.byte	0x50
 5138 1d63 01       		.uleb128 0x1
 5139 1d64 31       		.byte	0x31
 5140 1d65 2B       		.uleb128 0x2b
 5141 1d66 01       		.uleb128 0x1
 5142 1d67 51       		.byte	0x51
 5143 1d68 01       		.uleb128 0x1
ARM GAS  C:\Users\louis\AppData\Local\Temp\ccj8Y2ua.s 			page 128


 5144 1d69 31       		.byte	0x31
 5145 1d6a 00       		.byte	0
 5146 1d6b 00       		.byte	0
 5147 1d6c 07       		.uleb128 0x7
 5148 1d6d 130C0000 		.4byte	0xc13
 5149 1d71 7C1D0000 		.4byte	0x1d7c
 5150 1d75 08       		.uleb128 0x8
 5151 1d76 E7000000 		.4byte	0xe7
 5152 1d7a 31       		.byte	0x31
 5153 1d7b 00       		.byte	0
 5154 1d7c 31       		.uleb128 0x31
 5155 1d7d 28080000 		.4byte	.LASF453
 5156 1d81 01       		.byte	0x1
 5157 1d82 2C01     		.2byte	0x12c
 5158 1d84 00000000 		.4byte	.LFB687
 5159 1d88 40010000 		.4byte	.LFE687-.LFB687
 5160 1d8c 01       		.uleb128 0x1
 5161 1d8d 9C       		.byte	0x9c
 5162 1d8e B0200000 		.4byte	0x20b0
 5163 1d92 32       		.uleb128 0x32
 5164 1d93 FB070000 		.4byte	.LASF385
 5165 1d97 01       		.byte	0x1
 5166 1d98 3201     		.2byte	0x132
 5167 1d9a 25000000 		.4byte	0x25
 5168 1d9e 02       		.uleb128 0x2
 5169 1d9f 90       		.byte	0x90
 5170 1da0 50       		.uleb128 0x50
 5171 1da1 2F       		.uleb128 0x2f
 5172 1da2 B6000000 		.4byte	.LASF395
 5173 1da6 01       		.byte	0x1
 5174 1da7 3C01     		.2byte	0x13c
 5175 1da9 25000000 		.4byte	0x25
 5176 1dad 0C010000 		.4byte	.LLST9
 5177 1db1 2F       		.uleb128 0x2f
 5178 1db2 BE080000 		.4byte	.LASF396
 5179 1db6 01       		.byte	0x1
 5180 1db7 3C01     		.2byte	0x13c
 5181 1db9 25000000 		.4byte	0x25
 5182 1dbd 25010000 		.4byte	.LLST10
 5183 1dc1 33       		.uleb128 0x33
 5184 1dc2 18000000 		.4byte	.LBB28
 5185 1dc6 F6000000 		.4byte	.LBE28-.LBB28
 5186 1dca 85200000 		.4byte	0x2085
 5187 1dce 30       		.uleb128 0x30
 5188 1dcf 6300     		.ascii	"c\000"
 5189 1dd1 01       		.byte	0x1
 5190 1dd2 4301     		.2byte	0x143
 5191 1dd4 6C1D0000 		.4byte	0x1d6c
 5192 1dd8 03       		.uleb128 0x3
 5193 1dd9 91       		.byte	0x91
 5194 1dda B47F     		.sleb128 -76
 5195 1ddc 30       		.uleb128 0x30
 5196 1ddd 73747200 		.ascii	"str\000"
 5197 1de1 01       		.byte	0x1
 5198 1de2 4501     		.2byte	0x145
 5199 1de4 B0200000 		.4byte	0x20b0
 5200 1de8 03       		.uleb128 0x3
ARM GAS  C:\Users\louis\AppData\Local\Temp\ccj8Y2ua.s 			page 129


 5201 1de9 91       		.byte	0x91
 5202 1dea A07F     		.sleb128 -96
 5203 1dec 34       		.uleb128 0x34
 5204 1ded D9190000 		.4byte	0x19d9
 5205 1df1 F8000000 		.4byte	.LBB29
 5206 1df5 08000000 		.4byte	.LBE29-.LBB29
 5207 1df9 01       		.byte	0x1
 5208 1dfa 6B01     		.2byte	0x16b
 5209 1dfc 231E0000 		.4byte	0x1e23
 5210 1e00 35       		.uleb128 0x35
 5211 1e01 AD190000 		.4byte	0x19ad
 5212 1e05 F8000000 		.4byte	.LBB30
 5213 1e09 08000000 		.4byte	.LBE30-.LBB30
 5214 1e0d 17       		.byte	0x17
 5215 1e0e 91       		.byte	0x91
 5216 1e0f 36       		.uleb128 0x36
 5217 1e10 C6190000 		.4byte	0x19c6
 5218 1e14 38010000 		.4byte	.LLST11
 5219 1e18 36       		.uleb128 0x36
 5220 1e19 BA190000 		.4byte	0x19ba
 5221 1e1d 4D010000 		.4byte	.LLST12
 5222 1e21 00       		.byte	0
 5223 1e22 00       		.byte	0
 5224 1e23 34       		.uleb128 0x34
 5225 1e24 D9190000 		.4byte	0x19d9
 5226 1e28 00010000 		.4byte	.LBB32
 5227 1e2c 06000000 		.4byte	.LBE32-.LBB32
 5228 1e30 01       		.byte	0x1
 5229 1e31 6E01     		.2byte	0x16e
 5230 1e33 5A1E0000 		.4byte	0x1e5a
 5231 1e37 35       		.uleb128 0x35
 5232 1e38 AD190000 		.4byte	0x19ad
 5233 1e3c 00010000 		.4byte	.LBB33
 5234 1e40 06000000 		.4byte	.LBE33-.LBB33
 5235 1e44 17       		.byte	0x17
 5236 1e45 91       		.byte	0x91
 5237 1e46 36       		.uleb128 0x36
 5238 1e47 C6190000 		.4byte	0x19c6
 5239 1e4b 65010000 		.4byte	.LLST13
 5240 1e4f 36       		.uleb128 0x36
 5241 1e50 BA190000 		.4byte	0x19ba
 5242 1e54 7A010000 		.4byte	.LLST14
 5243 1e58 00       		.byte	0
 5244 1e59 00       		.byte	0
 5245 1e5a 2A       		.uleb128 0x2a
 5246 1e5b 22000000 		.4byte	.LVL53
 5247 1e5f C32C0000 		.4byte	0x2cc3
 5248 1e63 731E0000 		.4byte	0x1e73
 5249 1e67 2B       		.uleb128 0x2b
 5250 1e68 01       		.uleb128 0x1
 5251 1e69 50       		.byte	0x50
 5252 1e6a 02       		.uleb128 0x2
 5253 1e6b 74       		.byte	0x74
 5254 1e6c 00       		.sleb128 0
 5255 1e6d 2B       		.uleb128 0x2b
 5256 1e6e 01       		.uleb128 0x1
 5257 1e6f 51       		.byte	0x51
ARM GAS  C:\Users\louis\AppData\Local\Temp\ccj8Y2ua.s 			page 130


 5258 1e70 01       		.uleb128 0x1
 5259 1e71 32       		.byte	0x32
 5260 1e72 00       		.byte	0
 5261 1e73 2A       		.uleb128 0x2a
 5262 1e74 32000000 		.4byte	.LVL55
 5263 1e78 C32C0000 		.4byte	0x2cc3
 5264 1e7c 8C1E0000 		.4byte	0x1e8c
 5265 1e80 2B       		.uleb128 0x2b
 5266 1e81 01       		.uleb128 0x1
 5267 1e82 50       		.byte	0x50
 5268 1e83 02       		.uleb128 0x2
 5269 1e84 74       		.byte	0x74
 5270 1e85 00       		.sleb128 0
 5271 1e86 2B       		.uleb128 0x2b
 5272 1e87 01       		.uleb128 0x1
 5273 1e88 51       		.byte	0x51
 5274 1e89 01       		.uleb128 0x1
 5275 1e8a 32       		.byte	0x32
 5276 1e8b 00       		.byte	0
 5277 1e8c 2A       		.uleb128 0x2a
 5278 1e8d 3C000000 		.4byte	.LVL57
 5279 1e91 CF2C0000 		.4byte	0x2ccf
 5280 1e95 A51E0000 		.4byte	0x1ea5
 5281 1e99 2B       		.uleb128 0x2b
 5282 1e9a 01       		.uleb128 0x1
 5283 1e9b 50       		.byte	0x50
 5284 1e9c 02       		.uleb128 0x2
 5285 1e9d 74       		.byte	0x74
 5286 1e9e 00       		.sleb128 0
 5287 1e9f 2B       		.uleb128 0x2b
 5288 1ea0 01       		.uleb128 0x1
 5289 1ea1 51       		.byte	0x51
 5290 1ea2 01       		.uleb128 0x1
 5291 1ea3 32       		.byte	0x32
 5292 1ea4 00       		.byte	0
 5293 1ea5 2A       		.uleb128 0x2a
 5294 1ea6 50000000 		.4byte	.LVL59
 5295 1eaa FC2C0000 		.4byte	0x2cfc
 5296 1eae C31E0000 		.4byte	0x1ec3
 5297 1eb2 2B       		.uleb128 0x2b
 5298 1eb3 01       		.uleb128 0x1
 5299 1eb4 50       		.byte	0x50
 5300 1eb5 03       		.uleb128 0x3
 5301 1eb6 91       		.byte	0x91
 5302 1eb7 B47F     		.sleb128 -76
 5303 1eb9 2B       		.uleb128 0x2b
 5304 1eba 01       		.uleb128 0x1
 5305 1ebb 51       		.byte	0x51
 5306 1ebc 05       		.uleb128 0x5
 5307 1ebd 03       		.byte	0x3
 5308 1ebe 28000000 		.4byte	.LC8
 5309 1ec2 00       		.byte	0
 5310 1ec3 2A       		.uleb128 0x2a
 5311 1ec4 64000000 		.4byte	.LVL61
 5312 1ec8 FC2C0000 		.4byte	0x2cfc
 5313 1ecc E01E0000 		.4byte	0x1ee0
 5314 1ed0 2B       		.uleb128 0x2b
ARM GAS  C:\Users\louis\AppData\Local\Temp\ccj8Y2ua.s 			page 131


 5315 1ed1 01       		.uleb128 0x1
 5316 1ed2 50       		.byte	0x50
 5317 1ed3 02       		.uleb128 0x2
 5318 1ed4 7D       		.byte	0x7d
 5319 1ed5 00       		.sleb128 0
 5320 1ed6 2B       		.uleb128 0x2b
 5321 1ed7 01       		.uleb128 0x1
 5322 1ed8 51       		.byte	0x51
 5323 1ed9 05       		.uleb128 0x5
 5324 1eda 03       		.byte	0x3
 5325 1edb 48000000 		.4byte	.LC11
 5326 1edf 00       		.byte	0
 5327 1ee0 2A       		.uleb128 0x2a
 5328 1ee1 6C000000 		.4byte	.LVL62
 5329 1ee5 F12C0000 		.4byte	0x2cf1
 5330 1ee9 FD1E0000 		.4byte	0x1efd
 5331 1eed 2B       		.uleb128 0x2b
 5332 1eee 01       		.uleb128 0x1
 5333 1eef 50       		.byte	0x50
 5334 1ef0 05       		.uleb128 0x5
 5335 1ef1 03       		.byte	0x3
 5336 1ef2 4C000000 		.4byte	.LC12
 5337 1ef6 2B       		.uleb128 0x2b
 5338 1ef7 01       		.uleb128 0x1
 5339 1ef8 51       		.byte	0x51
 5340 1ef9 02       		.uleb128 0x2
 5341 1efa 7D       		.byte	0x7d
 5342 1efb 00       		.sleb128 0
 5343 1efc 00       		.byte	0
 5344 1efd 2A       		.uleb128 0x2a
 5345 1efe 72000000 		.4byte	.LVL63
 5346 1f02 072D0000 		.4byte	0x2d07
 5347 1f06 101F0000 		.4byte	0x1f10
 5348 1f0a 2B       		.uleb128 0x2b
 5349 1f0b 01       		.uleb128 0x1
 5350 1f0c 50       		.byte	0x50
 5351 1f0d 01       		.uleb128 0x1
 5352 1f0e 30       		.byte	0x30
 5353 1f0f 00       		.byte	0
 5354 1f10 2A       		.uleb128 0x2a
 5355 1f11 7A000000 		.4byte	.LVL64
 5356 1f15 132D0000 		.4byte	0x2d13
 5357 1f19 271F0000 		.4byte	0x1f27
 5358 1f1d 2B       		.uleb128 0x2b
 5359 1f1e 01       		.uleb128 0x1
 5360 1f1f 50       		.byte	0x50
 5361 1f20 05       		.uleb128 0x5
 5362 1f21 0C       		.byte	0xc
 5363 1f22 FFFFFF00 		.4byte	0xffffff
 5364 1f26 00       		.byte	0
 5365 1f27 2A       		.uleb128 0x2a
 5366 1f28 80000000 		.4byte	.LVL65
 5367 1f2c 1F2D0000 		.4byte	0x2d1f
 5368 1f30 3A1F0000 		.4byte	0x1f3a
 5369 1f34 2B       		.uleb128 0x2b
 5370 1f35 01       		.uleb128 0x1
 5371 1f36 50       		.byte	0x50
ARM GAS  C:\Users\louis\AppData\Local\Temp\ccj8Y2ua.s 			page 132


 5372 1f37 01       		.uleb128 0x1
 5373 1f38 30       		.byte	0x30
 5374 1f39 00       		.byte	0
 5375 1f3a 2A       		.uleb128 0x2a
 5376 1f3b 86000000 		.4byte	.LVL66
 5377 1f3f 2B2D0000 		.4byte	0x2d2b
 5378 1f43 4D1F0000 		.4byte	0x1f4d
 5379 1f47 2B       		.uleb128 0x2b
 5380 1f48 01       		.uleb128 0x1
 5381 1f49 50       		.byte	0x50
 5382 1f4a 01       		.uleb128 0x1
 5383 1f4b 30       		.byte	0x30
 5384 1f4c 00       		.byte	0
 5385 1f4d 29       		.uleb128 0x29
 5386 1f4e 8A000000 		.4byte	.LVL67
 5387 1f52 372D0000 		.4byte	0x2d37
 5388 1f56 2A       		.uleb128 0x2a
 5389 1f57 92000000 		.4byte	.LVL68
 5390 1f5b 432D0000 		.4byte	0x2d43
 5391 1f5f 6A1F0000 		.4byte	0x1f6a
 5392 1f63 2B       		.uleb128 0x2b
 5393 1f64 01       		.uleb128 0x1
 5394 1f65 50       		.byte	0x50
 5395 1f66 02       		.uleb128 0x2
 5396 1f67 76       		.byte	0x76
 5397 1f68 00       		.sleb128 0
 5398 1f69 00       		.byte	0
 5399 1f6a 2A       		.uleb128 0x2a
 5400 1f6b 98000000 		.4byte	.LVL69
 5401 1f6f 4F2D0000 		.4byte	0x2d4f
 5402 1f73 7D1F0000 		.4byte	0x1f7d
 5403 1f77 2B       		.uleb128 0x2b
 5404 1f78 01       		.uleb128 0x1
 5405 1f79 50       		.byte	0x50
 5406 1f7a 01       		.uleb128 0x1
 5407 1f7b 32       		.byte	0x32
 5408 1f7c 00       		.byte	0
 5409 1f7d 2A       		.uleb128 0x2a
 5410 1f7e A2000000 		.4byte	.LVL70
 5411 1f82 5B2D0000 		.4byte	0x2d5b
 5412 1f86 9F1F0000 		.4byte	0x1f9f
 5413 1f8a 2B       		.uleb128 0x2b
 5414 1f8b 01       		.uleb128 0x1
 5415 1f8c 50       		.byte	0x50
 5416 1f8d 05       		.uleb128 0x5
 5417 1f8e 03       		.byte	0x3
 5418 1f8f 64000000 		.4byte	.LC13
 5419 1f93 2B       		.uleb128 0x2b
 5420 1f94 01       		.uleb128 0x1
 5421 1f95 51       		.byte	0x51
 5422 1f96 02       		.uleb128 0x2
 5423 1f97 08       		.byte	0x8
 5424 1f98 84       		.byte	0x84
 5425 1f99 2B       		.uleb128 0x2b
 5426 1f9a 01       		.uleb128 0x1
 5427 1f9b 52       		.byte	0x52
 5428 1f9c 01       		.uleb128 0x1
ARM GAS  C:\Users\louis\AppData\Local\Temp\ccj8Y2ua.s 			page 133


 5429 1f9d 35       		.byte	0x35
 5430 1f9e 00       		.byte	0
 5431 1f9f 29       		.uleb128 0x29
 5432 1fa0 A8000000 		.4byte	.LVL71
 5433 1fa4 432D0000 		.4byte	0x2d43
 5434 1fa8 2A       		.uleb128 0x2a
 5435 1fa9 AE000000 		.4byte	.LVL72
 5436 1fad 4F2D0000 		.4byte	0x2d4f
 5437 1fb1 BB1F0000 		.4byte	0x1fbb
 5438 1fb5 2B       		.uleb128 0x2b
 5439 1fb6 01       		.uleb128 0x1
 5440 1fb7 50       		.byte	0x50
 5441 1fb8 01       		.uleb128 0x1
 5442 1fb9 32       		.byte	0x32
 5443 1fba 00       		.byte	0
 5444 1fbb 2A       		.uleb128 0x2a
 5445 1fbc B8000000 		.4byte	.LVL73
 5446 1fc0 5B2D0000 		.4byte	0x2d5b
 5447 1fc4 DC1F0000 		.4byte	0x1fdc
 5448 1fc8 2B       		.uleb128 0x2b
 5449 1fc9 01       		.uleb128 0x1
 5450 1fca 50       		.byte	0x50
 5451 1fcb 03       		.uleb128 0x3
 5452 1fcc 91       		.byte	0x91
 5453 1fcd B47F     		.sleb128 -76
 5454 1fcf 2B       		.uleb128 0x2b
 5455 1fd0 01       		.uleb128 0x1
 5456 1fd1 51       		.byte	0x51
 5457 1fd2 02       		.uleb128 0x2
 5458 1fd3 08       		.byte	0x8
 5459 1fd4 84       		.byte	0x84
 5460 1fd5 2B       		.uleb128 0x2b
 5461 1fd6 01       		.uleb128 0x1
 5462 1fd7 52       		.byte	0x52
 5463 1fd8 02       		.uleb128 0x2
 5464 1fd9 08       		.byte	0x8
 5465 1fda 35       		.byte	0x35
 5466 1fdb 00       		.byte	0
 5467 1fdc 2A       		.uleb128 0x2a
 5468 1fdd BE000000 		.4byte	.LVL74
 5469 1fe1 432D0000 		.4byte	0x2d43
 5470 1fe5 F01F0000 		.4byte	0x1ff0
 5471 1fe9 2B       		.uleb128 0x2b
 5472 1fea 01       		.uleb128 0x1
 5473 1feb 50       		.byte	0x50
 5474 1fec 02       		.uleb128 0x2
 5475 1fed 76       		.byte	0x76
 5476 1fee 00       		.sleb128 0
 5477 1fef 00       		.byte	0
 5478 1ff0 2A       		.uleb128 0x2a
 5479 1ff1 C4000000 		.4byte	.LVL75
 5480 1ff5 4F2D0000 		.4byte	0x2d4f
 5481 1ff9 03200000 		.4byte	0x2003
 5482 1ffd 2B       		.uleb128 0x2b
 5483 1ffe 01       		.uleb128 0x1
 5484 1fff 50       		.byte	0x50
 5485 2000 01       		.uleb128 0x1
ARM GAS  C:\Users\louis\AppData\Local\Temp\ccj8Y2ua.s 			page 134


 5486 2001 32       		.byte	0x32
 5487 2002 00       		.byte	0
 5488 2003 2A       		.uleb128 0x2a
 5489 2004 CE000000 		.4byte	.LVL76
 5490 2008 5B2D0000 		.4byte	0x2d5b
 5491 200c 26200000 		.4byte	0x2026
 5492 2010 2B       		.uleb128 0x2b
 5493 2011 01       		.uleb128 0x1
 5494 2012 50       		.byte	0x50
 5495 2013 05       		.uleb128 0x5
 5496 2014 03       		.byte	0x3
 5497 2015 70000000 		.4byte	.LC14
 5498 2019 2B       		.uleb128 0x2b
 5499 201a 01       		.uleb128 0x1
 5500 201b 51       		.byte	0x51
 5501 201c 02       		.uleb128 0x2
 5502 201d 08       		.byte	0x8
 5503 201e 84       		.byte	0x84
 5504 201f 2B       		.uleb128 0x2b
 5505 2020 01       		.uleb128 0x1
 5506 2021 52       		.byte	0x52
 5507 2022 02       		.uleb128 0x2
 5508 2023 08       		.byte	0x8
 5509 2024 96       		.byte	0x96
 5510 2025 00       		.byte	0
 5511 2026 2A       		.uleb128 0x2a
 5512 2027 D4000000 		.4byte	.LVL77
 5513 202b F12C0000 		.4byte	0x2cf1
 5514 202f 3D200000 		.4byte	0x203d
 5515 2033 2B       		.uleb128 0x2b
 5516 2034 01       		.uleb128 0x1
 5517 2035 50       		.byte	0x50
 5518 2036 05       		.uleb128 0x5
 5519 2037 03       		.byte	0x3
 5520 2038 74000000 		.4byte	.LC15
 5521 203c 00       		.byte	0
 5522 203d 2A       		.uleb128 0x2a
 5523 203e DC000000 		.4byte	.LVL78
 5524 2042 211A0000 		.4byte	0x1a21
 5525 2046 55200000 		.4byte	0x2055
 5526 204a 2B       		.uleb128 0x2b
 5527 204b 01       		.uleb128 0x1
 5528 204c 50       		.byte	0x50
 5529 204d 01       		.uleb128 0x1
 5530 204e 31       		.byte	0x31
 5531 204f 2B       		.uleb128 0x2b
 5532 2050 01       		.uleb128 0x1
 5533 2051 51       		.byte	0x51
 5534 2052 01       		.uleb128 0x1
 5535 2053 31       		.byte	0x31
 5536 2054 00       		.byte	0
 5537 2055 29       		.uleb128 0x29
 5538 2056 F0000000 		.4byte	.LVL80
 5539 205a 672D0000 		.4byte	0x2d67
 5540 205e 2A       		.uleb128 0x2a
 5541 205f F8000000 		.4byte	.LVL81
 5542 2063 722D0000 		.4byte	0x2d72
ARM GAS  C:\Users\louis\AppData\Local\Temp\ccj8Y2ua.s 			page 135


 5543 2067 73200000 		.4byte	0x2073
 5544 206b 2B       		.uleb128 0x2b
 5545 206c 01       		.uleb128 0x1
 5546 206d 50       		.byte	0x50
 5547 206e 03       		.uleb128 0x3
 5548 206f 0A       		.byte	0xa
 5549 2070 1027     		.2byte	0x2710
 5550 2072 00       		.byte	0
 5551 2073 2C       		.uleb128 0x2c
 5552 2074 0E010000 		.4byte	.LVL85
 5553 2078 722D0000 		.4byte	0x2d72
 5554 207c 2B       		.uleb128 0x2b
 5555 207d 01       		.uleb128 0x1
 5556 207e 50       		.byte	0x50
 5557 207f 03       		.uleb128 0x3
 5558 2080 0A       		.byte	0xa
 5559 2081 D007     		.2byte	0x7d0
 5560 2083 00       		.byte	0
 5561 2084 00       		.byte	0
 5562 2085 29       		.uleb128 0x29
 5563 2086 0C000000 		.4byte	.LVL50
 5564 208a A12C0000 		.4byte	0x2ca1
 5565 208e 29       		.uleb128 0x29
 5566 208f 10000000 		.4byte	.LVL51
 5567 2093 AC2C0000 		.4byte	0x2cac
 5568 2097 2C       		.uleb128 0x2c
 5569 2098 18000000 		.4byte	.LVL52
 5570 209c B72C0000 		.4byte	0x2cb7
 5571 20a0 2B       		.uleb128 0x2b
 5572 20a1 01       		.uleb128 0x1
 5573 20a2 50       		.byte	0x50
 5574 20a3 05       		.uleb128 0x5
 5575 20a4 0C       		.byte	0xc
 5576 20a5 00001D41 		.4byte	0x411d0000
 5577 20a9 2B       		.uleb128 0x2b
 5578 20aa 01       		.uleb128 0x1
 5579 20ab 51       		.byte	0x51
 5580 20ac 01       		.uleb128 0x1
 5581 20ad 31       		.byte	0x31
 5582 20ae 00       		.byte	0
 5583 20af 00       		.byte	0
 5584 20b0 07       		.uleb128 0x7
 5585 20b1 130C0000 		.4byte	0xc13
 5586 20b5 C0200000 		.4byte	0x20c0
 5587 20b9 08       		.uleb128 0x8
 5588 20ba E7000000 		.4byte	0xe7
 5589 20be 13       		.byte	0x13
 5590 20bf 00       		.byte	0
 5591 20c0 37       		.uleb128 0x37
 5592 20c1 5F100000 		.4byte	.LASF397
 5593 20c5 01       		.byte	0x1
 5594 20c6 7901     		.2byte	0x179
 5595 20c8 00000000 		.4byte	.LFB688
 5596 20cc 74010000 		.4byte	.LFE688-.LFB688
 5597 20d0 01       		.uleb128 0x1
 5598 20d1 9C       		.byte	0x9c
 5599 20d2 E2240000 		.4byte	0x24e2
ARM GAS  C:\Users\louis\AppData\Local\Temp\ccj8Y2ua.s 			page 136


 5600 20d6 38       		.uleb128 0x38
 5601 20d7 6900     		.ascii	"i\000"
 5602 20d9 01       		.byte	0x1
 5603 20da 8A01     		.2byte	0x18a
 5604 20dc A2000000 		.4byte	0xa2
 5605 20e0 2F       		.uleb128 0x2f
 5606 20e1 080C0000 		.4byte	.LASF398
 5607 20e5 01       		.byte	0x1
 5608 20e6 8B01     		.2byte	0x18b
 5609 20e8 A2000000 		.4byte	0xa2
 5610 20ec 92010000 		.4byte	.LLST15
 5611 20f0 39       		.uleb128 0x39
 5612 20f1 7800     		.ascii	"x\000"
 5613 20f3 01       		.byte	0x1
 5614 20f4 D001     		.2byte	0x1d0
 5615 20f6 A2000000 		.4byte	0xa2
 5616 20fa B2010000 		.4byte	.LLST16
 5617 20fe 33       		.uleb128 0x33
 5618 20ff 46000000 		.4byte	.LBB35
 5619 2103 8C000000 		.4byte	.LBE35-.LBB35
 5620 2107 AF220000 		.4byte	0x22af
 5621 210b 30       		.uleb128 0x30
 5622 210c 6300     		.ascii	"c\000"
 5623 210e 01       		.byte	0x1
 5624 210f A401     		.2byte	0x1a4
 5625 2111 B0200000 		.4byte	0x20b0
 5626 2115 02       		.uleb128 0x2
 5627 2116 91       		.byte	0x91
 5628 2117 5C       		.sleb128 -36
 5629 2118 2A       		.uleb128 0x2a
 5630 2119 52000000 		.4byte	.LVL97
 5631 211d 072D0000 		.4byte	0x2d07
 5632 2121 2B210000 		.4byte	0x212b
 5633 2125 2B       		.uleb128 0x2b
 5634 2126 01       		.uleb128 0x1
 5635 2127 50       		.byte	0x50
 5636 2128 01       		.uleb128 0x1
 5637 2129 30       		.byte	0x30
 5638 212a 00       		.byte	0
 5639 212b 2A       		.uleb128 0x2a
 5640 212c 5A000000 		.4byte	.LVL98
 5641 2130 132D0000 		.4byte	0x2d13
 5642 2134 42210000 		.4byte	0x2142
 5643 2138 2B       		.uleb128 0x2b
 5644 2139 01       		.uleb128 0x1
 5645 213a 50       		.byte	0x50
 5646 213b 05       		.uleb128 0x5
 5647 213c 0C       		.byte	0xc
 5648 213d FFFFFF00 		.4byte	0xffffff
 5649 2141 00       		.byte	0
 5650 2142 2A       		.uleb128 0x2a
 5651 2143 60000000 		.4byte	.LVL99
 5652 2147 1F2D0000 		.4byte	0x2d1f
 5653 214b 55210000 		.4byte	0x2155
 5654 214f 2B       		.uleb128 0x2b
 5655 2150 01       		.uleb128 0x1
 5656 2151 50       		.byte	0x50
ARM GAS  C:\Users\louis\AppData\Local\Temp\ccj8Y2ua.s 			page 137


 5657 2152 01       		.uleb128 0x1
 5658 2153 30       		.byte	0x30
 5659 2154 00       		.byte	0
 5660 2155 2A       		.uleb128 0x2a
 5661 2156 66000000 		.4byte	.LVL100
 5662 215a 2B2D0000 		.4byte	0x2d2b
 5663 215e 68210000 		.4byte	0x2168
 5664 2162 2B       		.uleb128 0x2b
 5665 2163 01       		.uleb128 0x1
 5666 2164 50       		.byte	0x50
 5667 2165 01       		.uleb128 0x1
 5668 2166 30       		.byte	0x30
 5669 2167 00       		.byte	0
 5670 2168 29       		.uleb128 0x29
 5671 2169 6A000000 		.4byte	.LVL101
 5672 216d 372D0000 		.4byte	0x2d37
 5673 2171 2A       		.uleb128 0x2a
 5674 2172 72000000 		.4byte	.LVL102
 5675 2176 432D0000 		.4byte	0x2d43
 5676 217a 85210000 		.4byte	0x2185
 5677 217e 2B       		.uleb128 0x2b
 5678 217f 01       		.uleb128 0x1
 5679 2180 50       		.byte	0x50
 5680 2181 02       		.uleb128 0x2
 5681 2182 75       		.byte	0x75
 5682 2183 00       		.sleb128 0
 5683 2184 00       		.byte	0
 5684 2185 2A       		.uleb128 0x2a
 5685 2186 78000000 		.4byte	.LVL103
 5686 218a 4F2D0000 		.4byte	0x2d4f
 5687 218e 98210000 		.4byte	0x2198
 5688 2192 2B       		.uleb128 0x2b
 5689 2193 01       		.uleb128 0x1
 5690 2194 50       		.byte	0x50
 5691 2195 01       		.uleb128 0x1
 5692 2196 32       		.byte	0x32
 5693 2197 00       		.byte	0
 5694 2198 2A       		.uleb128 0x2a
 5695 2199 82000000 		.4byte	.LVL104
 5696 219d 5B2D0000 		.4byte	0x2d5b
 5697 21a1 BA210000 		.4byte	0x21ba
 5698 21a5 2B       		.uleb128 0x2b
 5699 21a6 01       		.uleb128 0x1
 5700 21a7 50       		.byte	0x50
 5701 21a8 05       		.uleb128 0x5
 5702 21a9 03       		.byte	0x3
 5703 21aa 7C000000 		.4byte	.LC16
 5704 21ae 2B       		.uleb128 0x2b
 5705 21af 01       		.uleb128 0x1
 5706 21b0 51       		.byte	0x51
 5707 21b1 02       		.uleb128 0x2
 5708 21b2 08       		.byte	0x8
 5709 21b3 82       		.byte	0x82
 5710 21b4 2B       		.uleb128 0x2b
 5711 21b5 01       		.uleb128 0x1
 5712 21b6 52       		.byte	0x52
 5713 21b7 01       		.uleb128 0x1
ARM GAS  C:\Users\louis\AppData\Local\Temp\ccj8Y2ua.s 			page 138


 5714 21b8 35       		.byte	0x35
 5715 21b9 00       		.byte	0
 5716 21ba 2A       		.uleb128 0x2a
 5717 21bb 8C000000 		.4byte	.LVL105
 5718 21bf 5B2D0000 		.4byte	0x2d5b
 5719 21c3 DC210000 		.4byte	0x21dc
 5720 21c7 2B       		.uleb128 0x2b
 5721 21c8 01       		.uleb128 0x1
 5722 21c9 50       		.byte	0x50
 5723 21ca 05       		.uleb128 0x5
 5724 21cb 03       		.byte	0x3
 5725 21cc 88000000 		.4byte	.LC17
 5726 21d0 2B       		.uleb128 0x2b
 5727 21d1 01       		.uleb128 0x1
 5728 21d2 51       		.byte	0x51
 5729 21d3 02       		.uleb128 0x2
 5730 21d4 08       		.byte	0x8
 5731 21d5 3C       		.byte	0x3c
 5732 21d6 2B       		.uleb128 0x2b
 5733 21d7 01       		.uleb128 0x1
 5734 21d8 52       		.byte	0x52
 5735 21d9 01       		.uleb128 0x1
 5736 21da 49       		.byte	0x49
 5737 21db 00       		.byte	0
 5738 21dc 2A       		.uleb128 0x2a
 5739 21dd 96000000 		.4byte	.LVL106
 5740 21e1 FC2C0000 		.4byte	0x2cfc
 5741 21e5 FF210000 		.4byte	0x21ff
 5742 21e9 2B       		.uleb128 0x2b
 5743 21ea 01       		.uleb128 0x1
 5744 21eb 50       		.byte	0x50
 5745 21ec 02       		.uleb128 0x2
 5746 21ed 91       		.byte	0x91
 5747 21ee 5C       		.sleb128 -36
 5748 21ef 2B       		.uleb128 0x2b
 5749 21f0 01       		.uleb128 0x1
 5750 21f1 51       		.byte	0x51
 5751 21f2 05       		.uleb128 0x5
 5752 21f3 03       		.byte	0x3
 5753 21f4 9C000000 		.4byte	.LC18
 5754 21f8 2B       		.uleb128 0x2b
 5755 21f9 01       		.uleb128 0x1
 5756 21fa 52       		.byte	0x52
 5757 21fb 02       		.uleb128 0x2
 5758 21fc 74       		.byte	0x74
 5759 21fd 00       		.sleb128 0
 5760 21fe 00       		.byte	0
 5761 21ff 29       		.uleb128 0x29
 5762 2200 9C000000 		.4byte	.LVL107
 5763 2204 432D0000 		.4byte	0x2d43
 5764 2208 2A       		.uleb128 0x2a
 5765 2209 A2000000 		.4byte	.LVL108
 5766 220d 4F2D0000 		.4byte	0x2d4f
 5767 2211 1B220000 		.4byte	0x221b
 5768 2215 2B       		.uleb128 0x2b
 5769 2216 01       		.uleb128 0x1
 5770 2217 50       		.byte	0x50
ARM GAS  C:\Users\louis\AppData\Local\Temp\ccj8Y2ua.s 			page 139


 5771 2218 01       		.uleb128 0x1
 5772 2219 32       		.byte	0x32
 5773 221a 00       		.byte	0
 5774 221b 2A       		.uleb128 0x2a
 5775 221c AC000000 		.4byte	.LVL109
 5776 2220 5B2D0000 		.4byte	0x2d5b
 5777 2224 3B220000 		.4byte	0x223b
 5778 2228 2B       		.uleb128 0x2b
 5779 2229 01       		.uleb128 0x1
 5780 222a 50       		.byte	0x50
 5781 222b 02       		.uleb128 0x2
 5782 222c 91       		.byte	0x91
 5783 222d 5C       		.sleb128 -36
 5784 222e 2B       		.uleb128 0x2b
 5785 222f 01       		.uleb128 0x1
 5786 2230 51       		.byte	0x51
 5787 2231 02       		.uleb128 0x2
 5788 2232 08       		.byte	0x8
 5789 2233 84       		.byte	0x84
 5790 2234 2B       		.uleb128 0x2b
 5791 2235 01       		.uleb128 0x1
 5792 2236 52       		.byte	0x52
 5793 2237 02       		.uleb128 0x2
 5794 2238 08       		.byte	0x8
 5795 2239 46       		.byte	0x46
 5796 223a 00       		.byte	0
 5797 223b 2A       		.uleb128 0x2a
 5798 223c B2000000 		.4byte	.LVL110
 5799 2240 432D0000 		.4byte	0x2d43
 5800 2244 4F220000 		.4byte	0x224f
 5801 2248 2B       		.uleb128 0x2b
 5802 2249 01       		.uleb128 0x1
 5803 224a 50       		.byte	0x50
 5804 224b 02       		.uleb128 0x2
 5805 224c 75       		.byte	0x75
 5806 224d 00       		.sleb128 0
 5807 224e 00       		.byte	0
 5808 224f 2A       		.uleb128 0x2a
 5809 2250 B8000000 		.4byte	.LVL111
 5810 2254 4F2D0000 		.4byte	0x2d4f
 5811 2258 62220000 		.4byte	0x2262
 5812 225c 2B       		.uleb128 0x2b
 5813 225d 01       		.uleb128 0x1
 5814 225e 50       		.byte	0x50
 5815 225f 01       		.uleb128 0x1
 5816 2260 32       		.byte	0x32
 5817 2261 00       		.byte	0
 5818 2262 2A       		.uleb128 0x2a
 5819 2263 C2000000 		.4byte	.LVL112
 5820 2267 5B2D0000 		.4byte	0x2d5b
 5821 226b 85220000 		.4byte	0x2285
 5822 226f 2B       		.uleb128 0x2b
 5823 2270 01       		.uleb128 0x1
 5824 2271 50       		.byte	0x50
 5825 2272 05       		.uleb128 0x5
 5826 2273 03       		.byte	0x3
 5827 2274 A0000000 		.4byte	.LC19
ARM GAS  C:\Users\louis\AppData\Local\Temp\ccj8Y2ua.s 			page 140


 5828 2278 2B       		.uleb128 0x2b
 5829 2279 01       		.uleb128 0x1
 5830 227a 51       		.byte	0x51
 5831 227b 02       		.uleb128 0x2
 5832 227c 08       		.byte	0x8
 5833 227d 87       		.byte	0x87
 5834 227e 2B       		.uleb128 0x2b
 5835 227f 01       		.uleb128 0x1
 5836 2280 52       		.byte	0x52
 5837 2281 02       		.uleb128 0x2
 5838 2282 08       		.byte	0x8
 5839 2283 96       		.byte	0x96
 5840 2284 00       		.byte	0
 5841 2285 2A       		.uleb128 0x2a
 5842 2286 CA000000 		.4byte	.LVL113
 5843 228a 211A0000 		.4byte	0x1a21
 5844 228e 9D220000 		.4byte	0x229d
 5845 2292 2B       		.uleb128 0x2b
 5846 2293 01       		.uleb128 0x1
 5847 2294 50       		.byte	0x50
 5848 2295 01       		.uleb128 0x1
 5849 2296 31       		.byte	0x31
 5850 2297 2B       		.uleb128 0x2b
 5851 2298 01       		.uleb128 0x1
 5852 2299 51       		.byte	0x51
 5853 229a 01       		.uleb128 0x1
 5854 229b 31       		.byte	0x31
 5855 229c 00       		.byte	0
 5856 229d 2C       		.uleb128 0x2c
 5857 229e D2000000 		.4byte	.LVL114
 5858 22a2 722D0000 		.4byte	0x2d72
 5859 22a6 2B       		.uleb128 0x2b
 5860 22a7 01       		.uleb128 0x1
 5861 22a8 50       		.byte	0x50
 5862 22a9 03       		.uleb128 0x3
 5863 22aa 0A       		.byte	0xa
 5864 22ab D007     		.2byte	0x7d0
 5865 22ad 00       		.byte	0
 5866 22ae 00       		.byte	0
 5867 22af 34       		.uleb128 0x34
 5868 22b0 D9190000 		.4byte	0x19d9
 5869 22b4 3E010000 		.4byte	.LBB36
 5870 22b8 06000000 		.4byte	.LBE36-.LBB36
 5871 22bc 01       		.byte	0x1
 5872 22bd D401     		.2byte	0x1d4
 5873 22bf E6220000 		.4byte	0x22e6
 5874 22c3 35       		.uleb128 0x35
 5875 22c4 AD190000 		.4byte	0x19ad
 5876 22c8 3E010000 		.4byte	.LBB37
 5877 22cc 06000000 		.4byte	.LBE37-.LBB37
 5878 22d0 17       		.byte	0x17
 5879 22d1 91       		.byte	0x91
 5880 22d2 36       		.uleb128 0x36
 5881 22d3 C6190000 		.4byte	0x19c6
 5882 22d7 D1010000 		.4byte	.LLST17
 5883 22db 36       		.uleb128 0x36
 5884 22dc BA190000 		.4byte	0x19ba
ARM GAS  C:\Users\louis\AppData\Local\Temp\ccj8Y2ua.s 			page 141


 5885 22e0 E6010000 		.4byte	.LLST18
 5886 22e4 00       		.byte	0
 5887 22e5 00       		.byte	0
 5888 22e6 2A       		.uleb128 0x2a
 5889 22e7 0A000000 		.4byte	.LVL86
 5890 22eb 072D0000 		.4byte	0x2d07
 5891 22ef F9220000 		.4byte	0x22f9
 5892 22f3 2B       		.uleb128 0x2b
 5893 22f4 01       		.uleb128 0x1
 5894 22f5 50       		.byte	0x50
 5895 22f6 01       		.uleb128 0x1
 5896 22f7 30       		.byte	0x30
 5897 22f8 00       		.byte	0
 5898 22f9 2A       		.uleb128 0x2a
 5899 22fa 12000000 		.4byte	.LVL87
 5900 22fe 132D0000 		.4byte	0x2d13
 5901 2302 10230000 		.4byte	0x2310
 5902 2306 2B       		.uleb128 0x2b
 5903 2307 01       		.uleb128 0x1
 5904 2308 50       		.byte	0x50
 5905 2309 05       		.uleb128 0x5
 5906 230a 0C       		.byte	0xc
 5907 230b FFFFFF00 		.4byte	0xffffff
 5908 230f 00       		.byte	0
 5909 2310 2A       		.uleb128 0x2a
 5910 2311 18000000 		.4byte	.LVL88
 5911 2315 1F2D0000 		.4byte	0x2d1f
 5912 2319 23230000 		.4byte	0x2323
 5913 231d 2B       		.uleb128 0x2b
 5914 231e 01       		.uleb128 0x1
 5915 231f 50       		.byte	0x50
 5916 2320 01       		.uleb128 0x1
 5917 2321 30       		.byte	0x30
 5918 2322 00       		.byte	0
 5919 2323 2A       		.uleb128 0x2a
 5920 2324 1E000000 		.4byte	.LVL89
 5921 2328 2B2D0000 		.4byte	0x2d2b
 5922 232c 36230000 		.4byte	0x2336
 5923 2330 2B       		.uleb128 0x2b
 5924 2331 01       		.uleb128 0x1
 5925 2332 50       		.byte	0x50
 5926 2333 01       		.uleb128 0x1
 5927 2334 30       		.byte	0x30
 5928 2335 00       		.byte	0
 5929 2336 29       		.uleb128 0x29
 5930 2337 22000000 		.4byte	.LVL90
 5931 233b 372D0000 		.4byte	0x2d37
 5932 233f 29       		.uleb128 0x29
 5933 2340 28000000 		.4byte	.LVL91
 5934 2344 432D0000 		.4byte	0x2d43
 5935 2348 2A       		.uleb128 0x2a
 5936 2349 2E000000 		.4byte	.LVL92
 5937 234d 4F2D0000 		.4byte	0x2d4f
 5938 2351 5B230000 		.4byte	0x235b
 5939 2355 2B       		.uleb128 0x2b
 5940 2356 01       		.uleb128 0x1
 5941 2357 50       		.byte	0x50
ARM GAS  C:\Users\louis\AppData\Local\Temp\ccj8Y2ua.s 			page 142


 5942 2358 01       		.uleb128 0x1
 5943 2359 32       		.byte	0x32
 5944 235a 00       		.byte	0
 5945 235b 2A       		.uleb128 0x2a
 5946 235c 38000000 		.4byte	.LVL93
 5947 2360 5B2D0000 		.4byte	0x2d5b
 5948 2364 7D230000 		.4byte	0x237d
 5949 2368 2B       		.uleb128 0x2b
 5950 2369 01       		.uleb128 0x1
 5951 236a 50       		.byte	0x50
 5952 236b 05       		.uleb128 0x5
 5953 236c 03       		.byte	0x3
 5954 236d 7C000000 		.4byte	.LC16
 5955 2371 2B       		.uleb128 0x2b
 5956 2372 01       		.uleb128 0x1
 5957 2373 51       		.byte	0x51
 5958 2374 02       		.uleb128 0x2
 5959 2375 08       		.byte	0x8
 5960 2376 84       		.byte	0x84
 5961 2377 2B       		.uleb128 0x2b
 5962 2378 01       		.uleb128 0x1
 5963 2379 52       		.byte	0x52
 5964 237a 01       		.uleb128 0x1
 5965 237b 35       		.byte	0x35
 5966 237c 00       		.byte	0
 5967 237d 2A       		.uleb128 0x2a
 5968 237e 42000000 		.4byte	.LVL94
 5969 2382 5B2D0000 		.4byte	0x2d5b
 5970 2386 9F230000 		.4byte	0x239f
 5971 238a 2B       		.uleb128 0x2b
 5972 238b 01       		.uleb128 0x1
 5973 238c 50       		.byte	0x50
 5974 238d 05       		.uleb128 0x5
 5975 238e 03       		.byte	0x3
 5976 238f 88000000 		.4byte	.LC17
 5977 2393 2B       		.uleb128 0x2b
 5978 2394 01       		.uleb128 0x1
 5979 2395 51       		.byte	0x51
 5980 2396 02       		.uleb128 0x2
 5981 2397 08       		.byte	0x8
 5982 2398 84       		.byte	0x84
 5983 2399 2B       		.uleb128 0x2b
 5984 239a 01       		.uleb128 0x1
 5985 239b 52       		.byte	0x52
 5986 239c 01       		.uleb128 0x1
 5987 239d 49       		.byte	0x49
 5988 239e 00       		.byte	0
 5989 239f 29       		.uleb128 0x29
 5990 23a0 DA000000 		.4byte	.LVL115
 5991 23a4 372D0000 		.4byte	0x2d37
 5992 23a8 2A       		.uleb128 0x2a
 5993 23a9 E2000000 		.4byte	.LVL117
 5994 23ad 432D0000 		.4byte	0x2d43
 5995 23b1 BC230000 		.4byte	0x23bc
 5996 23b5 2B       		.uleb128 0x2b
 5997 23b6 01       		.uleb128 0x1
 5998 23b7 50       		.byte	0x50
ARM GAS  C:\Users\louis\AppData\Local\Temp\ccj8Y2ua.s 			page 143


 5999 23b8 02       		.uleb128 0x2
 6000 23b9 74       		.byte	0x74
 6001 23ba 00       		.sleb128 0
 6002 23bb 00       		.byte	0
 6003 23bc 2A       		.uleb128 0x2a
 6004 23bd E8000000 		.4byte	.LVL118
 6005 23c1 4F2D0000 		.4byte	0x2d4f
 6006 23c5 CF230000 		.4byte	0x23cf
 6007 23c9 2B       		.uleb128 0x2b
 6008 23ca 01       		.uleb128 0x1
 6009 23cb 50       		.byte	0x50
 6010 23cc 01       		.uleb128 0x1
 6011 23cd 32       		.byte	0x32
 6012 23ce 00       		.byte	0
 6013 23cf 2A       		.uleb128 0x2a
 6014 23d0 F2000000 		.4byte	.LVL119
 6015 23d4 5B2D0000 		.4byte	0x2d5b
 6016 23d8 F1230000 		.4byte	0x23f1
 6017 23dc 2B       		.uleb128 0x2b
 6018 23dd 01       		.uleb128 0x1
 6019 23de 50       		.byte	0x50
 6020 23df 05       		.uleb128 0x5
 6021 23e0 03       		.byte	0x3
 6022 23e1 7C000000 		.4byte	.LC16
 6023 23e5 2B       		.uleb128 0x2b
 6024 23e6 01       		.uleb128 0x1
 6025 23e7 51       		.byte	0x51
 6026 23e8 02       		.uleb128 0x2
 6027 23e9 08       		.byte	0x8
 6028 23ea 82       		.byte	0x82
 6029 23eb 2B       		.uleb128 0x2b
 6030 23ec 01       		.uleb128 0x1
 6031 23ed 52       		.byte	0x52
 6032 23ee 01       		.uleb128 0x1
 6033 23ef 35       		.byte	0x35
 6034 23f0 00       		.byte	0
 6035 23f1 2A       		.uleb128 0x2a
 6036 23f2 FC000000 		.4byte	.LVL120
 6037 23f6 5B2D0000 		.4byte	0x2d5b
 6038 23fa 13240000 		.4byte	0x2413
 6039 23fe 2B       		.uleb128 0x2b
 6040 23ff 01       		.uleb128 0x1
 6041 2400 50       		.byte	0x50
 6042 2401 05       		.uleb128 0x5
 6043 2402 03       		.byte	0x3
 6044 2403 88000000 		.4byte	.LC17
 6045 2407 2B       		.uleb128 0x2b
 6046 2408 01       		.uleb128 0x1
 6047 2409 51       		.byte	0x51
 6048 240a 02       		.uleb128 0x2
 6049 240b 08       		.byte	0x8
 6050 240c 3C       		.byte	0x3c
 6051 240d 2B       		.uleb128 0x2b
 6052 240e 01       		.uleb128 0x1
 6053 240f 52       		.byte	0x52
 6054 2410 01       		.uleb128 0x1
 6055 2411 49       		.byte	0x49
ARM GAS  C:\Users\louis\AppData\Local\Temp\ccj8Y2ua.s 			page 144


 6056 2412 00       		.byte	0
 6057 2413 29       		.uleb128 0x29
 6058 2414 02010000 		.4byte	.LVL121
 6059 2418 432D0000 		.4byte	0x2d43
 6060 241c 2A       		.uleb128 0x2a
 6061 241d 08010000 		.4byte	.LVL122
 6062 2421 4F2D0000 		.4byte	0x2d4f
 6063 2425 2F240000 		.4byte	0x242f
 6064 2429 2B       		.uleb128 0x2b
 6065 242a 01       		.uleb128 0x1
 6066 242b 50       		.byte	0x50
 6067 242c 01       		.uleb128 0x1
 6068 242d 32       		.byte	0x32
 6069 242e 00       		.byte	0
 6070 242f 2A       		.uleb128 0x2a
 6071 2430 12010000 		.4byte	.LVL123
 6072 2434 5B2D0000 		.4byte	0x2d5b
 6073 2438 52240000 		.4byte	0x2452
 6074 243c 2B       		.uleb128 0x2b
 6075 243d 01       		.uleb128 0x1
 6076 243e 50       		.byte	0x50
 6077 243f 05       		.uleb128 0x5
 6078 2440 03       		.byte	0x3
 6079 2441 B0000000 		.4byte	.LC20
 6080 2445 2B       		.uleb128 0x2b
 6081 2446 01       		.uleb128 0x1
 6082 2447 51       		.byte	0x51
 6083 2448 02       		.uleb128 0x2
 6084 2449 08       		.byte	0x8
 6085 244a 84       		.byte	0x84
 6086 244b 2B       		.uleb128 0x2b
 6087 244c 01       		.uleb128 0x1
 6088 244d 52       		.byte	0x52
 6089 244e 02       		.uleb128 0x2
 6090 244f 08       		.byte	0x8
 6091 2450 46       		.byte	0x46
 6092 2451 00       		.byte	0
 6093 2452 2A       		.uleb128 0x2a
 6094 2453 18010000 		.4byte	.LVL124
 6095 2457 432D0000 		.4byte	0x2d43
 6096 245b 66240000 		.4byte	0x2466
 6097 245f 2B       		.uleb128 0x2b
 6098 2460 01       		.uleb128 0x1
 6099 2461 50       		.byte	0x50
 6100 2462 02       		.uleb128 0x2
 6101 2463 74       		.byte	0x74
 6102 2464 00       		.sleb128 0
 6103 2465 00       		.byte	0
 6104 2466 2A       		.uleb128 0x2a
 6105 2467 1E010000 		.4byte	.LVL125
 6106 246b 4F2D0000 		.4byte	0x2d4f
 6107 246f 79240000 		.4byte	0x2479
 6108 2473 2B       		.uleb128 0x2b
 6109 2474 01       		.uleb128 0x1
 6110 2475 50       		.byte	0x50
 6111 2476 01       		.uleb128 0x1
 6112 2477 32       		.byte	0x32
ARM GAS  C:\Users\louis\AppData\Local\Temp\ccj8Y2ua.s 			page 145


 6113 2478 00       		.byte	0
 6114 2479 2A       		.uleb128 0x2a
 6115 247a 28010000 		.4byte	.LVL126
 6116 247e 5B2D0000 		.4byte	0x2d5b
 6117 2482 9C240000 		.4byte	0x249c
 6118 2486 2B       		.uleb128 0x2b
 6119 2487 01       		.uleb128 0x1
 6120 2488 50       		.byte	0x50
 6121 2489 05       		.uleb128 0x5
 6122 248a 03       		.byte	0x3
 6123 248b A0000000 		.4byte	.LC19
 6124 248f 2B       		.uleb128 0x2b
 6125 2490 01       		.uleb128 0x1
 6126 2491 51       		.byte	0x51
 6127 2492 02       		.uleb128 0x2
 6128 2493 08       		.byte	0x8
 6129 2494 87       		.byte	0x87
 6130 2495 2B       		.uleb128 0x2b
 6131 2496 01       		.uleb128 0x1
 6132 2497 52       		.byte	0x52
 6133 2498 02       		.uleb128 0x2
 6134 2499 08       		.byte	0x8
 6135 249a 96       		.byte	0x96
 6136 249b 00       		.byte	0
 6137 249c 2A       		.uleb128 0x2a
 6138 249d 30010000 		.4byte	.LVL127
 6139 24a1 211A0000 		.4byte	0x1a21
 6140 24a5 B4240000 		.4byte	0x24b4
 6141 24a9 2B       		.uleb128 0x2b
 6142 24aa 01       		.uleb128 0x1
 6143 24ab 50       		.byte	0x50
 6144 24ac 01       		.uleb128 0x1
 6145 24ad 31       		.byte	0x31
 6146 24ae 2B       		.uleb128 0x2b
 6147 24af 01       		.uleb128 0x1
 6148 24b0 51       		.byte	0x51
 6149 24b1 01       		.uleb128 0x1
 6150 24b2 31       		.byte	0x31
 6151 24b3 00       		.byte	0
 6152 24b4 29       		.uleb128 0x29
 6153 24b5 38010000 		.4byte	.LVL129
 6154 24b9 672D0000 		.4byte	0x2d67
 6155 24bd 2A       		.uleb128 0x2a
 6156 24be 3E010000 		.4byte	.LVL130
 6157 24c2 722D0000 		.4byte	0x2d72
 6158 24c6 D1240000 		.4byte	0x24d1
 6159 24ca 2B       		.uleb128 0x2b
 6160 24cb 01       		.uleb128 0x1
 6161 24cc 50       		.byte	0x50
 6162 24cd 02       		.uleb128 0x2
 6163 24ce 08       		.byte	0x8
 6164 24cf 64       		.byte	0x64
 6165 24d0 00       		.byte	0
 6166 24d1 2C       		.uleb128 0x2c
 6167 24d2 4A010000 		.4byte	.LVL132
 6168 24d6 722D0000 		.4byte	0x2d72
 6169 24da 2B       		.uleb128 0x2b
ARM GAS  C:\Users\louis\AppData\Local\Temp\ccj8Y2ua.s 			page 146


 6170 24db 01       		.uleb128 0x1
 6171 24dc 50       		.byte	0x50
 6172 24dd 02       		.uleb128 0x2
 6173 24de 08       		.byte	0x8
 6174 24df 64       		.byte	0x64
 6175 24e0 00       		.byte	0
 6176 24e1 00       		.byte	0
 6177 24e2 37       		.uleb128 0x37
 6178 24e3 C8040000 		.4byte	.LASF399
 6179 24e7 01       		.byte	0x1
 6180 24e8 DC01     		.2byte	0x1dc
 6181 24ea 00000000 		.4byte	.LFB689
 6182 24ee C8000000 		.4byte	.LFE689-.LFB689
 6183 24f2 01       		.uleb128 0x1
 6184 24f3 9C       		.byte	0x9c
 6185 24f4 9E260000 		.4byte	0x269e
 6186 24f8 32       		.uleb128 0x32
 6187 24f9 8E0C0000 		.4byte	.LASF400
 6188 24fd 01       		.byte	0x1
 6189 24fe E501     		.2byte	0x1e5
 6190 2500 9E260000 		.4byte	0x269e
 6191 2504 02       		.uleb128 0x2
 6192 2505 91       		.byte	0x91
 6193 2506 58       		.sleb128 -40
 6194 2507 2F       		.uleb128 0x2f
 6195 2508 7C0B0000 		.4byte	.LASF401
 6196 250c 01       		.byte	0x1
 6197 250d E701     		.2byte	0x1e7
 6198 250f A2000000 		.4byte	0xa2
 6199 2513 FE010000 		.4byte	.LLST19
 6200 2517 30       		.uleb128 0x30
 6201 2518 6300     		.ascii	"c\000"
 6202 251a 01       		.byte	0x1
 6203 251b F201     		.2byte	0x1f2
 6204 251d B0200000 		.4byte	0x20b0
 6205 2521 02       		.uleb128 0x2
 6206 2522 91       		.byte	0x91
 6207 2523 44       		.sleb128 -60
 6208 2524 3A       		.uleb128 0x3a
 6209 2525 E1190000 		.4byte	0x19e1
 6210 2529 08000000 		.4byte	.LBB39
 6211 252d 02000000 		.4byte	.LBE39-.LBB39
 6212 2531 01       		.byte	0x1
 6213 2532 DE01     		.2byte	0x1de
 6214 2534 29       		.uleb128 0x29
 6215 2535 08000000 		.4byte	.LVL135
 6216 2539 A12C0000 		.4byte	0x2ca1
 6217 253d 2A       		.uleb128 0x2a
 6218 253e 10000000 		.4byte	.LVL136
 6219 2542 072D0000 		.4byte	0x2d07
 6220 2546 50250000 		.4byte	0x2550
 6221 254a 2B       		.uleb128 0x2b
 6222 254b 01       		.uleb128 0x1
 6223 254c 50       		.byte	0x50
 6224 254d 01       		.uleb128 0x1
 6225 254e 30       		.byte	0x30
 6226 254f 00       		.byte	0
ARM GAS  C:\Users\louis\AppData\Local\Temp\ccj8Y2ua.s 			page 147


 6227 2550 2A       		.uleb128 0x2a
 6228 2551 18000000 		.4byte	.LVL137
 6229 2555 132D0000 		.4byte	0x2d13
 6230 2559 67250000 		.4byte	0x2567
 6231 255d 2B       		.uleb128 0x2b
 6232 255e 01       		.uleb128 0x1
 6233 255f 50       		.byte	0x50
 6234 2560 05       		.uleb128 0x5
 6235 2561 0C       		.byte	0xc
 6236 2562 FFFFFF00 		.4byte	0xffffff
 6237 2566 00       		.byte	0
 6238 2567 2A       		.uleb128 0x2a
 6239 2568 1E000000 		.4byte	.LVL138
 6240 256c 1F2D0000 		.4byte	0x2d1f
 6241 2570 7A250000 		.4byte	0x257a
 6242 2574 2B       		.uleb128 0x2b
 6243 2575 01       		.uleb128 0x1
 6244 2576 50       		.byte	0x50
 6245 2577 01       		.uleb128 0x1
 6246 2578 30       		.byte	0x30
 6247 2579 00       		.byte	0
 6248 257a 2A       		.uleb128 0x2a
 6249 257b 24000000 		.4byte	.LVL139
 6250 257f 2B2D0000 		.4byte	0x2d2b
 6251 2583 8D250000 		.4byte	0x258d
 6252 2587 2B       		.uleb128 0x2b
 6253 2588 01       		.uleb128 0x1
 6254 2589 50       		.byte	0x50
 6255 258a 01       		.uleb128 0x1
 6256 258b 30       		.byte	0x30
 6257 258c 00       		.byte	0
 6258 258d 29       		.uleb128 0x29
 6259 258e 38000000 		.4byte	.LVL140
 6260 2592 7E2D0000 		.4byte	0x2d7e
 6261 2596 29       		.uleb128 0x29
 6262 2597 50000000 		.4byte	.LVL142
 6263 259b 372D0000 		.4byte	0x2d37
 6264 259f 2A       		.uleb128 0x2a
 6265 25a0 58000000 		.4byte	.LVL143
 6266 25a4 432D0000 		.4byte	0x2d43
 6267 25a8 B3250000 		.4byte	0x25b3
 6268 25ac 2B       		.uleb128 0x2b
 6269 25ad 01       		.uleb128 0x1
 6270 25ae 50       		.byte	0x50
 6271 25af 02       		.uleb128 0x2
 6272 25b0 75       		.byte	0x75
 6273 25b1 00       		.sleb128 0
 6274 25b2 00       		.byte	0
 6275 25b3 2A       		.uleb128 0x2a
 6276 25b4 5E000000 		.4byte	.LVL144
 6277 25b8 4F2D0000 		.4byte	0x2d4f
 6278 25bc C6250000 		.4byte	0x25c6
 6279 25c0 2B       		.uleb128 0x2b
 6280 25c1 01       		.uleb128 0x1
 6281 25c2 50       		.byte	0x50
 6282 25c3 01       		.uleb128 0x1
 6283 25c4 32       		.byte	0x32
ARM GAS  C:\Users\louis\AppData\Local\Temp\ccj8Y2ua.s 			page 148


 6284 25c5 00       		.byte	0
 6285 25c6 2A       		.uleb128 0x2a
 6286 25c7 68000000 		.4byte	.LVL145
 6287 25cb 5B2D0000 		.4byte	0x2d5b
 6288 25cf E8250000 		.4byte	0x25e8
 6289 25d3 2B       		.uleb128 0x2b
 6290 25d4 01       		.uleb128 0x1
 6291 25d5 50       		.byte	0x50
 6292 25d6 05       		.uleb128 0x5
 6293 25d7 03       		.byte	0x3
 6294 25d8 B4000000 		.4byte	.LC22
 6295 25dc 2B       		.uleb128 0x2b
 6296 25dd 01       		.uleb128 0x1
 6297 25de 51       		.byte	0x51
 6298 25df 02       		.uleb128 0x2
 6299 25e0 08       		.byte	0x8
 6300 25e1 84       		.byte	0x84
 6301 25e2 2B       		.uleb128 0x2b
 6302 25e3 01       		.uleb128 0x1
 6303 25e4 52       		.byte	0x52
 6304 25e5 01       		.uleb128 0x1
 6305 25e6 35       		.byte	0x35
 6306 25e7 00       		.byte	0
 6307 25e8 2A       		.uleb128 0x2a
 6308 25e9 78000000 		.4byte	.LVL147
 6309 25ed 892D0000 		.4byte	0x2d89
 6310 25f1 03260000 		.4byte	0x2603
 6311 25f5 2B       		.uleb128 0x2b
 6312 25f6 01       		.uleb128 0x1
 6313 25f7 50       		.byte	0x50
 6314 25f8 02       		.uleb128 0x2
 6315 25f9 91       		.byte	0x91
 6316 25fa 44       		.sleb128 -60
 6317 25fb 2B       		.uleb128 0x2b
 6318 25fc 01       		.uleb128 0x1
 6319 25fd 51       		.byte	0x51
 6320 25fe 03       		.uleb128 0x3
 6321 25ff 74       		.byte	0x74
 6322 2600 68       		.sleb128 -24
 6323 2601 06       		.byte	0x6
 6324 2602 00       		.byte	0
 6325 2603 29       		.uleb128 0x29
 6326 2604 7E000000 		.4byte	.LVL148
 6327 2608 432D0000 		.4byte	0x2d43
 6328 260c 2A       		.uleb128 0x2a
 6329 260d 84000000 		.4byte	.LVL149
 6330 2611 4F2D0000 		.4byte	0x2d4f
 6331 2615 1F260000 		.4byte	0x261f
 6332 2619 2B       		.uleb128 0x2b
 6333 261a 01       		.uleb128 0x1
 6334 261b 50       		.byte	0x50
 6335 261c 01       		.uleb128 0x1
 6336 261d 32       		.byte	0x32
 6337 261e 00       		.byte	0
 6338 261f 2A       		.uleb128 0x2a
 6339 2620 8E000000 		.4byte	.LVL150
 6340 2624 5B2D0000 		.4byte	0x2d5b
ARM GAS  C:\Users\louis\AppData\Local\Temp\ccj8Y2ua.s 			page 149


 6341 2628 3F260000 		.4byte	0x263f
 6342 262c 2B       		.uleb128 0x2b
 6343 262d 01       		.uleb128 0x1
 6344 262e 50       		.byte	0x50
 6345 262f 02       		.uleb128 0x2
 6346 2630 91       		.byte	0x91
 6347 2631 44       		.sleb128 -60
 6348 2632 2B       		.uleb128 0x2b
 6349 2633 01       		.uleb128 0x1
 6350 2634 51       		.byte	0x51
 6351 2635 02       		.uleb128 0x2
 6352 2636 08       		.byte	0x8
 6353 2637 84       		.byte	0x84
 6354 2638 2B       		.uleb128 0x2b
 6355 2639 01       		.uleb128 0x1
 6356 263a 52       		.byte	0x52
 6357 263b 02       		.uleb128 0x2
 6358 263c 08       		.byte	0x8
 6359 263d 53       		.byte	0x53
 6360 263e 00       		.byte	0
 6361 263f 2A       		.uleb128 0x2a
 6362 2640 94000000 		.4byte	.LVL151
 6363 2644 432D0000 		.4byte	0x2d43
 6364 2648 53260000 		.4byte	0x2653
 6365 264c 2B       		.uleb128 0x2b
 6366 264d 01       		.uleb128 0x1
 6367 264e 50       		.byte	0x50
 6368 264f 02       		.uleb128 0x2
 6369 2650 75       		.byte	0x75
 6370 2651 00       		.sleb128 0
 6371 2652 00       		.byte	0
 6372 2653 2A       		.uleb128 0x2a
 6373 2654 9A000000 		.4byte	.LVL152
 6374 2658 4F2D0000 		.4byte	0x2d4f
 6375 265c 66260000 		.4byte	0x2666
 6376 2660 2B       		.uleb128 0x2b
 6377 2661 01       		.uleb128 0x1
 6378 2662 50       		.byte	0x50
 6379 2663 01       		.uleb128 0x1
 6380 2664 32       		.byte	0x32
 6381 2665 00       		.byte	0
 6382 2666 2A       		.uleb128 0x2a
 6383 2667 A4000000 		.4byte	.LVL153
 6384 266b 5B2D0000 		.4byte	0x2d5b
 6385 266f 89260000 		.4byte	0x2689
 6386 2673 2B       		.uleb128 0x2b
 6387 2674 01       		.uleb128 0x1
 6388 2675 50       		.byte	0x50
 6389 2676 05       		.uleb128 0x5
 6390 2677 03       		.byte	0x3
 6391 2678 CC000000 		.4byte	.LC23
 6392 267c 2B       		.uleb128 0x2b
 6393 267d 01       		.uleb128 0x1
 6394 267e 51       		.byte	0x51
 6395 267f 02       		.uleb128 0x2
 6396 2680 08       		.byte	0x8
 6397 2681 84       		.byte	0x84
ARM GAS  C:\Users\louis\AppData\Local\Temp\ccj8Y2ua.s 			page 150


 6398 2682 2B       		.uleb128 0x2b
 6399 2683 01       		.uleb128 0x1
 6400 2684 52       		.byte	0x52
 6401 2685 02       		.uleb128 0x2
 6402 2686 08       		.byte	0x8
 6403 2687 96       		.byte	0x96
 6404 2688 00       		.byte	0
 6405 2689 2C       		.uleb128 0x2c
 6406 268a AC000000 		.4byte	.LVL154
 6407 268e 211A0000 		.4byte	0x1a21
 6408 2692 2B       		.uleb128 0x2b
 6409 2693 01       		.uleb128 0x1
 6410 2694 50       		.byte	0x50
 6411 2695 01       		.uleb128 0x1
 6412 2696 31       		.byte	0x31
 6413 2697 2B       		.uleb128 0x2b
 6414 2698 01       		.uleb128 0x1
 6415 2699 51       		.byte	0x51
 6416 269a 01       		.uleb128 0x1
 6417 269b 31       		.byte	0x31
 6418 269c 00       		.byte	0
 6419 269d 00       		.byte	0
 6420 269e 07       		.uleb128 0x7
 6421 269f 01130000 		.4byte	0x1301
 6422 26a3 AE260000 		.4byte	0x26ae
 6423 26a7 08       		.uleb128 0x8
 6424 26a8 E7000000 		.4byte	0xe7
 6425 26ac 05       		.byte	0x5
 6426 26ad 00       		.byte	0
 6427 26ae 26       		.uleb128 0x26
 6428 26af 8A050000 		.4byte	.LASF402
 6429 26b3 01       		.byte	0x1
 6430 26b4 81       		.byte	0x81
 6431 26b5 00000000 		.4byte	.LFB682
 6432 26b9 60000000 		.4byte	.LFE682-.LFB682
 6433 26bd 01       		.uleb128 0x1
 6434 26be 9C       		.byte	0x9c
 6435 26bf 98270000 		.4byte	0x2798
 6436 26c3 29       		.uleb128 0x29
 6437 26c4 08000000 		.4byte	.LVL155
 6438 26c8 432D0000 		.4byte	0x2d43
 6439 26cc 2A       		.uleb128 0x2a
 6440 26cd 0E000000 		.4byte	.LVL156
 6441 26d1 072D0000 		.4byte	0x2d07
 6442 26d5 DF260000 		.4byte	0x26df
 6443 26d9 2B       		.uleb128 0x2b
 6444 26da 01       		.uleb128 0x1
 6445 26db 50       		.byte	0x50
 6446 26dc 01       		.uleb128 0x1
 6447 26dd 30       		.byte	0x30
 6448 26de 00       		.byte	0
 6449 26df 2A       		.uleb128 0x2a
 6450 26e0 16000000 		.4byte	.LVL157
 6451 26e4 132D0000 		.4byte	0x2d13
 6452 26e8 F6260000 		.4byte	0x26f6
 6453 26ec 2B       		.uleb128 0x2b
 6454 26ed 01       		.uleb128 0x1
ARM GAS  C:\Users\louis\AppData\Local\Temp\ccj8Y2ua.s 			page 151


 6455 26ee 50       		.byte	0x50
 6456 26ef 05       		.uleb128 0x5
 6457 26f0 0C       		.byte	0xc
 6458 26f1 FFFFFF00 		.4byte	0xffffff
 6459 26f5 00       		.byte	0
 6460 26f6 29       		.uleb128 0x29
 6461 26f7 1A000000 		.4byte	.LVL158
 6462 26fb 372D0000 		.4byte	0x2d37
 6463 26ff 2A       		.uleb128 0x2a
 6464 2700 24000000 		.4byte	.LVL159
 6465 2704 982D0000 		.4byte	0x2d98
 6466 2708 17270000 		.4byte	0x2717
 6467 270c 2B       		.uleb128 0x2b
 6468 270d 01       		.uleb128 0x1
 6469 270e 51       		.byte	0x51
 6470 270f 01       		.uleb128 0x1
 6471 2710 32       		.byte	0x32
 6472 2711 2B       		.uleb128 0x2b
 6473 2712 01       		.uleb128 0x1
 6474 2713 52       		.byte	0x52
 6475 2714 01       		.uleb128 0x1
 6476 2715 32       		.byte	0x32
 6477 2716 00       		.byte	0
 6478 2717 2A       		.uleb128 0x2a
 6479 2718 2A000000 		.4byte	.LVL160
 6480 271c 4F2D0000 		.4byte	0x2d4f
 6481 2720 2A270000 		.4byte	0x272a
 6482 2724 2B       		.uleb128 0x2b
 6483 2725 01       		.uleb128 0x1
 6484 2726 50       		.byte	0x50
 6485 2727 01       		.uleb128 0x1
 6486 2728 32       		.byte	0x32
 6487 2729 00       		.byte	0
 6488 272a 2A       		.uleb128 0x2a
 6489 272b 34000000 		.4byte	.LVL161
 6490 272f 5B2D0000 		.4byte	0x2d5b
 6491 2733 4D270000 		.4byte	0x274d
 6492 2737 2B       		.uleb128 0x2b
 6493 2738 01       		.uleb128 0x1
 6494 2739 50       		.byte	0x50
 6495 273a 05       		.uleb128 0x5
 6496 273b 03       		.byte	0x3
 6497 273c D8000000 		.4byte	.LC24
 6498 2740 2B       		.uleb128 0x2b
 6499 2741 01       		.uleb128 0x1
 6500 2742 51       		.byte	0x51
 6501 2743 02       		.uleb128 0x2
 6502 2744 08       		.byte	0x8
 6503 2745 84       		.byte	0x84
 6504 2746 2B       		.uleb128 0x2b
 6505 2747 01       		.uleb128 0x1
 6506 2748 52       		.byte	0x52
 6507 2749 02       		.uleb128 0x2
 6508 274a 08       		.byte	0x8
 6509 274b 69       		.byte	0x69
 6510 274c 00       		.byte	0
 6511 274d 2A       		.uleb128 0x2a
ARM GAS  C:\Users\louis\AppData\Local\Temp\ccj8Y2ua.s 			page 152


 6512 274e 3A000000 		.4byte	.LVL162
 6513 2752 4F2D0000 		.4byte	0x2d4f
 6514 2756 60270000 		.4byte	0x2760
 6515 275a 2B       		.uleb128 0x2b
 6516 275b 01       		.uleb128 0x1
 6517 275c 50       		.byte	0x50
 6518 275d 01       		.uleb128 0x1
 6519 275e 32       		.byte	0x32
 6520 275f 00       		.byte	0
 6521 2760 2A       		.uleb128 0x2a
 6522 2761 44000000 		.4byte	.LVL163
 6523 2765 5B2D0000 		.4byte	0x2d5b
 6524 2769 83270000 		.4byte	0x2783
 6525 276d 2B       		.uleb128 0x2b
 6526 276e 01       		.uleb128 0x1
 6527 276f 50       		.byte	0x50
 6528 2770 05       		.uleb128 0x5
 6529 2771 03       		.byte	0x3
 6530 2772 E4000000 		.4byte	.LC25
 6531 2776 2B       		.uleb128 0x2b
 6532 2777 01       		.uleb128 0x1
 6533 2778 51       		.byte	0x51
 6534 2779 02       		.uleb128 0x2
 6535 277a 08       		.byte	0x8
 6536 277b 84       		.byte	0x84
 6537 277c 2B       		.uleb128 0x2b
 6538 277d 01       		.uleb128 0x1
 6539 277e 52       		.byte	0x52
 6540 277f 02       		.uleb128 0x2
 6541 2780 08       		.byte	0x8
 6542 2781 7D       		.byte	0x7d
 6543 2782 00       		.byte	0
 6544 2783 2C       		.uleb128 0x2c
 6545 2784 4C000000 		.4byte	.LVL164
 6546 2788 211A0000 		.4byte	0x1a21
 6547 278c 2B       		.uleb128 0x2b
 6548 278d 01       		.uleb128 0x1
 6549 278e 50       		.byte	0x50
 6550 278f 01       		.uleb128 0x1
 6551 2790 31       		.byte	0x31
 6552 2791 2B       		.uleb128 0x2b
 6553 2792 01       		.uleb128 0x1
 6554 2793 51       		.byte	0x51
 6555 2794 01       		.uleb128 0x1
 6556 2795 31       		.byte	0x31
 6557 2796 00       		.byte	0
 6558 2797 00       		.byte	0
 6559 2798 26       		.uleb128 0x26
 6560 2799 24050000 		.4byte	.LASF403
 6561 279d 01       		.byte	0x1
 6562 279e A4       		.byte	0xa4
 6563 279f 00000000 		.4byte	.LFB683
 6564 27a3 6C000000 		.4byte	.LFE683-.LFB683
 6565 27a7 01       		.uleb128 0x1
 6566 27a8 9C       		.byte	0x9c
 6567 27a9 B3280000 		.4byte	0x28b3
 6568 27ad 29       		.uleb128 0x29
ARM GAS  C:\Users\louis\AppData\Local\Temp\ccj8Y2ua.s 			page 153


 6569 27ae 08000000 		.4byte	.LVL165
 6570 27b2 432D0000 		.4byte	0x2d43
 6571 27b6 2A       		.uleb128 0x2a
 6572 27b7 10000000 		.4byte	.LVL166
 6573 27bb 132D0000 		.4byte	0x2d13
 6574 27bf CD270000 		.4byte	0x27cd
 6575 27c3 2B       		.uleb128 0x2b
 6576 27c4 01       		.uleb128 0x1
 6577 27c5 50       		.byte	0x50
 6578 27c6 05       		.uleb128 0x5
 6579 27c7 0C       		.byte	0xc
 6580 27c8 FFFFFF00 		.4byte	0xffffff
 6581 27cc 00       		.byte	0
 6582 27cd 2A       		.uleb128 0x2a
 6583 27ce 16000000 		.4byte	.LVL167
 6584 27d2 072D0000 		.4byte	0x2d07
 6585 27d6 E0270000 		.4byte	0x27e0
 6586 27da 2B       		.uleb128 0x2b
 6587 27db 01       		.uleb128 0x1
 6588 27dc 50       		.byte	0x50
 6589 27dd 01       		.uleb128 0x1
 6590 27de 30       		.byte	0x30
 6591 27df 00       		.byte	0
 6592 27e0 2A       		.uleb128 0x2a
 6593 27e1 1C000000 		.4byte	.LVL168
 6594 27e5 1F2D0000 		.4byte	0x2d1f
 6595 27e9 F3270000 		.4byte	0x27f3
 6596 27ed 2B       		.uleb128 0x2b
 6597 27ee 01       		.uleb128 0x1
 6598 27ef 50       		.byte	0x50
 6599 27f0 01       		.uleb128 0x1
 6600 27f1 30       		.byte	0x30
 6601 27f2 00       		.byte	0
 6602 27f3 29       		.uleb128 0x29
 6603 27f4 20000000 		.4byte	.LVL169
 6604 27f8 372D0000 		.4byte	0x2d37
 6605 27fc 2A       		.uleb128 0x2a
 6606 27fd 26000000 		.4byte	.LVL170
 6607 2801 4F2D0000 		.4byte	0x2d4f
 6608 2805 0F280000 		.4byte	0x280f
 6609 2809 2B       		.uleb128 0x2b
 6610 280a 01       		.uleb128 0x1
 6611 280b 50       		.byte	0x50
 6612 280c 01       		.uleb128 0x1
 6613 280d 32       		.byte	0x32
 6614 280e 00       		.byte	0
 6615 280f 2A       		.uleb128 0x2a
 6616 2810 30000000 		.4byte	.LVL171
 6617 2814 5B2D0000 		.4byte	0x2d5b
 6618 2818 32280000 		.4byte	0x2832
 6619 281c 2B       		.uleb128 0x2b
 6620 281d 01       		.uleb128 0x1
 6621 281e 50       		.byte	0x50
 6622 281f 05       		.uleb128 0x5
 6623 2820 03       		.byte	0x3
 6624 2821 F8000000 		.4byte	.LC26
 6625 2825 2B       		.uleb128 0x2b
ARM GAS  C:\Users\louis\AppData\Local\Temp\ccj8Y2ua.s 			page 154


 6626 2826 01       		.uleb128 0x1
 6627 2827 51       		.byte	0x51
 6628 2828 02       		.uleb128 0x2
 6629 2829 08       		.byte	0x8
 6630 282a 84       		.byte	0x84
 6631 282b 2B       		.uleb128 0x2b
 6632 282c 01       		.uleb128 0x1
 6633 282d 52       		.byte	0x52
 6634 282e 02       		.uleb128 0x2
 6635 282f 08       		.byte	0x8
 6636 2830 3A       		.byte	0x3a
 6637 2831 00       		.byte	0
 6638 2832 2A       		.uleb128 0x2a
 6639 2833 36000000 		.4byte	.LVL172
 6640 2837 4F2D0000 		.4byte	0x2d4f
 6641 283b 45280000 		.4byte	0x2845
 6642 283f 2B       		.uleb128 0x2b
 6643 2840 01       		.uleb128 0x1
 6644 2841 50       		.byte	0x50
 6645 2842 01       		.uleb128 0x1
 6646 2843 32       		.byte	0x32
 6647 2844 00       		.byte	0
 6648 2845 2A       		.uleb128 0x2a
 6649 2846 40000000 		.4byte	.LVL173
 6650 284a 5B2D0000 		.4byte	0x2d5b
 6651 284e 68280000 		.4byte	0x2868
 6652 2852 2B       		.uleb128 0x2b
 6653 2853 01       		.uleb128 0x1
 6654 2854 50       		.byte	0x50
 6655 2855 05       		.uleb128 0x5
 6656 2856 03       		.byte	0x3
 6657 2857 10010000 		.4byte	.LC27
 6658 285b 2B       		.uleb128 0x2b
 6659 285c 01       		.uleb128 0x1
 6660 285d 51       		.byte	0x51
 6661 285e 02       		.uleb128 0x2
 6662 285f 08       		.byte	0x8
 6663 2860 84       		.byte	0x84
 6664 2861 2B       		.uleb128 0x2b
 6665 2862 01       		.uleb128 0x1
 6666 2863 52       		.byte	0x52
 6667 2864 02       		.uleb128 0x2
 6668 2865 08       		.byte	0x8
 6669 2866 4E       		.byte	0x4e
 6670 2867 00       		.byte	0
 6671 2868 2A       		.uleb128 0x2a
 6672 2869 46000000 		.4byte	.LVL174
 6673 286d 4F2D0000 		.4byte	0x2d4f
 6674 2871 7B280000 		.4byte	0x287b
 6675 2875 2B       		.uleb128 0x2b
 6676 2876 01       		.uleb128 0x1
 6677 2877 50       		.byte	0x50
 6678 2878 01       		.uleb128 0x1
 6679 2879 32       		.byte	0x32
 6680 287a 00       		.byte	0
 6681 287b 2A       		.uleb128 0x2a
 6682 287c 50000000 		.4byte	.LVL175
ARM GAS  C:\Users\louis\AppData\Local\Temp\ccj8Y2ua.s 			page 155


 6683 2880 5B2D0000 		.4byte	0x2d5b
 6684 2884 9E280000 		.4byte	0x289e
 6685 2888 2B       		.uleb128 0x2b
 6686 2889 01       		.uleb128 0x1
 6687 288a 50       		.byte	0x50
 6688 288b 05       		.uleb128 0x5
 6689 288c 03       		.byte	0x3
 6690 288d 24010000 		.4byte	.LC28
 6691 2891 2B       		.uleb128 0x2b
 6692 2892 01       		.uleb128 0x1
 6693 2893 51       		.byte	0x51
 6694 2894 02       		.uleb128 0x2
 6695 2895 08       		.byte	0x8
 6696 2896 84       		.byte	0x84
 6697 2897 2B       		.uleb128 0x2b
 6698 2898 01       		.uleb128 0x1
 6699 2899 52       		.byte	0x52
 6700 289a 02       		.uleb128 0x2
 6701 289b 08       		.byte	0x8
 6702 289c 62       		.byte	0x62
 6703 289d 00       		.byte	0
 6704 289e 2C       		.uleb128 0x2c
 6705 289f 58000000 		.4byte	.LVL176
 6706 28a3 211A0000 		.4byte	0x1a21
 6707 28a7 2B       		.uleb128 0x2b
 6708 28a8 01       		.uleb128 0x1
 6709 28a9 50       		.byte	0x50
 6710 28aa 01       		.uleb128 0x1
 6711 28ab 31       		.byte	0x31
 6712 28ac 2B       		.uleb128 0x2b
 6713 28ad 01       		.uleb128 0x1
 6714 28ae 51       		.byte	0x51
 6715 28af 01       		.uleb128 0x1
 6716 28b0 31       		.byte	0x31
 6717 28b1 00       		.byte	0
 6718 28b2 00       		.byte	0
 6719 28b3 26       		.uleb128 0x26
 6720 28b4 B5180000 		.4byte	.LASF404
 6721 28b8 01       		.byte	0x1
 6722 28b9 C9       		.byte	0xc9
 6723 28ba 00000000 		.4byte	.LFB684
 6724 28be 1E000000 		.4byte	.LFE684-.LFB684
 6725 28c2 01       		.uleb128 0x1
 6726 28c3 9C       		.byte	0x9c
 6727 28c4 10290000 		.4byte	0x2910
 6728 28c8 2A       		.uleb128 0x2a
 6729 28c9 08000000 		.4byte	.LVL177
 6730 28cd 072D0000 		.4byte	0x2d07
 6731 28d1 DB280000 		.4byte	0x28db
 6732 28d5 2B       		.uleb128 0x2b
 6733 28d6 01       		.uleb128 0x1
 6734 28d7 50       		.byte	0x50
 6735 28d8 01       		.uleb128 0x1
 6736 28d9 30       		.byte	0x30
 6737 28da 00       		.byte	0
 6738 28db 2A       		.uleb128 0x2a
 6739 28dc 10000000 		.4byte	.LVL178
ARM GAS  C:\Users\louis\AppData\Local\Temp\ccj8Y2ua.s 			page 156


 6740 28e0 132D0000 		.4byte	0x2d13
 6741 28e4 F2280000 		.4byte	0x28f2
 6742 28e8 2B       		.uleb128 0x2b
 6743 28e9 01       		.uleb128 0x1
 6744 28ea 50       		.byte	0x50
 6745 28eb 05       		.uleb128 0x5
 6746 28ec 0C       		.byte	0xc
 6747 28ed FFFFFF00 		.4byte	0xffffff
 6748 28f1 00       		.byte	0
 6749 28f2 29       		.uleb128 0x29
 6750 28f3 14000000 		.4byte	.LVL179
 6751 28f7 372D0000 		.4byte	0x2d37
 6752 28fb 2C       		.uleb128 0x2c
 6753 28fc 1C000000 		.4byte	.LVL180
 6754 2900 211A0000 		.4byte	0x1a21
 6755 2904 2B       		.uleb128 0x2b
 6756 2905 01       		.uleb128 0x1
 6757 2906 50       		.byte	0x50
 6758 2907 01       		.uleb128 0x1
 6759 2908 31       		.byte	0x31
 6760 2909 2B       		.uleb128 0x2b
 6761 290a 01       		.uleb128 0x1
 6762 290b 51       		.byte	0x51
 6763 290c 01       		.uleb128 0x1
 6764 290d 31       		.byte	0x31
 6765 290e 00       		.byte	0
 6766 290f 00       		.byte	0
 6767 2910 26       		.uleb128 0x26
 6768 2911 3A010000 		.4byte	.LASF405
 6769 2915 01       		.byte	0x1
 6770 2916 E4       		.byte	0xe4
 6771 2917 00000000 		.4byte	.LFB685
 6772 291b 14000000 		.4byte	.LFE685-.LFB685
 6773 291f 01       		.uleb128 0x1
 6774 2920 9C       		.byte	0x9c
 6775 2921 38290000 		.4byte	0x2938
 6776 2925 29       		.uleb128 0x29
 6777 2926 06000000 		.4byte	.LVL181
 6778 292a A42D0000 		.4byte	0x2da4
 6779 292e 29       		.uleb128 0x29
 6780 292f 0E000000 		.4byte	.LVL182
 6781 2933 A42D0000 		.4byte	0x2da4
 6782 2937 00       		.byte	0
 6783 2938 3B       		.uleb128 0x3b
 6784 2939 59170000 		.4byte	.LASF454
 6785 293d 01       		.byte	0x1
 6786 293e 1602     		.2byte	0x216
 6787 2940 A2000000 		.4byte	0xa2
 6788 2944 00000000 		.4byte	.LFB690
 6789 2948 A4000000 		.4byte	.LFE690-.LFB690
 6790 294c 01       		.uleb128 0x1
 6791 294d 9C       		.byte	0x9c
 6792 294e 692B0000 		.4byte	0x2b69
 6793 2952 2F       		.uleb128 0x2f
 6794 2953 B2060000 		.4byte	.LASF406
 6795 2957 01       		.byte	0x1
 6796 2958 1902     		.2byte	0x219
ARM GAS  C:\Users\louis\AppData\Local\Temp\ccj8Y2ua.s 			page 157


 6797 295a 1A0C0000 		.4byte	0xc1a
 6798 295e 11020000 		.4byte	.LLST20
 6799 2962 38       		.uleb128 0x38
 6800 2963 763100   		.ascii	"v1\000"
 6801 2966 01       		.byte	0x1
 6802 2967 2B02     		.2byte	0x22b
 6803 2969 25000000 		.4byte	0x25
 6804 296d 38       		.uleb128 0x38
 6805 296e 763200   		.ascii	"v2\000"
 6806 2971 01       		.byte	0x1
 6807 2972 2B02     		.2byte	0x22b
 6808 2974 25000000 		.4byte	0x25
 6809 2978 2F       		.uleb128 0x2f
 6810 2979 6C0F0000 		.4byte	.LASF391
 6811 297d 01       		.byte	0x1
 6812 297e 2C02     		.2byte	0x22c
 6813 2980 BB000000 		.4byte	0xbb
 6814 2984 3B020000 		.4byte	.LLST21
 6815 2988 2F       		.uleb128 0x2f
 6816 2989 F8150000 		.4byte	.LASF392
 6817 298d 01       		.byte	0x1
 6818 298e 2C02     		.2byte	0x22c
 6819 2990 BB000000 		.4byte	0xbb
 6820 2994 4E020000 		.4byte	.LLST22
 6821 2998 2F       		.uleb128 0x2f
 6822 2999 42170000 		.4byte	.LASF393
 6823 299d 01       		.byte	0x1
 6824 299e 3502     		.2byte	0x235
 6825 29a0 260C0000 		.4byte	0xc26
 6826 29a4 61020000 		.4byte	.LLST23
 6827 29a8 3C       		.uleb128 0x3c
 6828 29a9 00010000 		.4byte	.LASF394
 6829 29ad 01       		.byte	0x1
 6830 29ae 3602     		.2byte	0x236
 6831 29b0 25000000 		.4byte	0x25
 6832 29b4 3A       		.uleb128 0x3a
 6833 29b5 E1190000 		.4byte	0x19e1
 6834 29b9 02000000 		.4byte	.LBB41
 6835 29bd 02000000 		.4byte	.LBE41-.LBB41
 6836 29c1 01       		.byte	0x1
 6837 29c2 1B02     		.2byte	0x21b
 6838 29c4 34       		.uleb128 0x34
 6839 29c5 E9190000 		.4byte	0x19e9
 6840 29c9 7C000000 		.4byte	.LBB43
 6841 29cd 06000000 		.4byte	.LBE43-.LBB43
 6842 29d1 01       		.byte	0x1
 6843 29d2 4502     		.2byte	0x245
 6844 29d4 F4290000 		.4byte	0x29f4
 6845 29d8 36       		.uleb128 0x36
 6846 29d9 0E1A0000 		.4byte	0x1a0e
 6847 29dd 74020000 		.4byte	.LLST24
 6848 29e1 36       		.uleb128 0x36
 6849 29e2 021A0000 		.4byte	0x1a02
 6850 29e6 88020000 		.4byte	.LLST25
 6851 29ea 36       		.uleb128 0x36
 6852 29eb F6190000 		.4byte	0x19f6
 6853 29ef 9C020000 		.4byte	.LLST26
ARM GAS  C:\Users\louis\AppData\Local\Temp\ccj8Y2ua.s 			page 158


 6854 29f3 00       		.byte	0
 6855 29f4 34       		.uleb128 0x34
 6856 29f5 E9190000 		.4byte	0x19e9
 6857 29f9 8A000000 		.4byte	.LBB45
 6858 29fd 02000000 		.4byte	.LBE45-.LBB45
 6859 2a01 01       		.byte	0x1
 6860 2a02 5302     		.2byte	0x253
 6861 2a04 242A0000 		.4byte	0x2a24
 6862 2a08 36       		.uleb128 0x36
 6863 2a09 0E1A0000 		.4byte	0x1a0e
 6864 2a0d B4020000 		.4byte	.LLST27
 6865 2a11 36       		.uleb128 0x36
 6866 2a12 021A0000 		.4byte	0x1a02
 6867 2a16 B4020000 		.4byte	.LLST27
 6868 2a1a 36       		.uleb128 0x36
 6869 2a1b F6190000 		.4byte	0x19f6
 6870 2a1f C8020000 		.4byte	.LLST29
 6871 2a23 00       		.byte	0
 6872 2a24 29       		.uleb128 0x29
 6873 2a25 08000000 		.4byte	.LVL184
 6874 2a29 AF2D0000 		.4byte	0x2daf
 6875 2a2d 2A       		.uleb128 0x2a
 6876 2a2e 0E000000 		.4byte	.LVL185
 6877 2a32 BB2D0000 		.4byte	0x2dbb
 6878 2a36 402A0000 		.4byte	0x2a40
 6879 2a3a 2B       		.uleb128 0x2b
 6880 2a3b 01       		.uleb128 0x1
 6881 2a3c 50       		.byte	0x50
 6882 2a3d 01       		.uleb128 0x1
 6883 2a3e 44       		.byte	0x44
 6884 2a3f 00       		.byte	0
 6885 2a40 2A       		.uleb128 0x2a
 6886 2a41 14000000 		.4byte	.LVL186
 6887 2a45 C62D0000 		.4byte	0x2dc6
 6888 2a49 532A0000 		.4byte	0x2a53
 6889 2a4d 2B       		.uleb128 0x2b
 6890 2a4e 01       		.uleb128 0x1
 6891 2a4f 50       		.byte	0x50
 6892 2a50 01       		.uleb128 0x1
 6893 2a51 31       		.byte	0x31
 6894 2a52 00       		.byte	0
 6895 2a53 29       		.uleb128 0x29
 6896 2a54 18000000 		.4byte	.LVL187
 6897 2a58 A12C0000 		.4byte	0x2ca1
 6898 2a5c 29       		.uleb128 0x29
 6899 2a5d 1C000000 		.4byte	.LVL188
 6900 2a61 AC2C0000 		.4byte	0x2cac
 6901 2a65 2A       		.uleb128 0x2a
 6902 2a66 26000000 		.4byte	.LVL189
 6903 2a6a B72C0000 		.4byte	0x2cb7
 6904 2a6e 7E2A0000 		.4byte	0x2a7e
 6905 2a72 2B       		.uleb128 0x2b
 6906 2a73 01       		.uleb128 0x1
 6907 2a74 50       		.byte	0x50
 6908 2a75 02       		.uleb128 0x2
 6909 2a76 74       		.byte	0x74
 6910 2a77 00       		.sleb128 0
ARM GAS  C:\Users\louis\AppData\Local\Temp\ccj8Y2ua.s 			page 159


 6911 2a78 2B       		.uleb128 0x2b
 6912 2a79 01       		.uleb128 0x1
 6913 2a7a 51       		.byte	0x51
 6914 2a7b 01       		.uleb128 0x1
 6915 2a7c 31       		.byte	0x31
 6916 2a7d 00       		.byte	0
 6917 2a7e 2A       		.uleb128 0x2a
 6918 2a7f 2E000000 		.4byte	.LVL190
 6919 2a83 C32C0000 		.4byte	0x2cc3
 6920 2a87 972A0000 		.4byte	0x2a97
 6921 2a8b 2B       		.uleb128 0x2b
 6922 2a8c 01       		.uleb128 0x1
 6923 2a8d 50       		.byte	0x50
 6924 2a8e 02       		.uleb128 0x2
 6925 2a8f 74       		.byte	0x74
 6926 2a90 00       		.sleb128 0
 6927 2a91 2B       		.uleb128 0x2b
 6928 2a92 01       		.uleb128 0x1
 6929 2a93 51       		.byte	0x51
 6930 2a94 01       		.uleb128 0x1
 6931 2a95 30       		.byte	0x30
 6932 2a96 00       		.byte	0
 6933 2a97 2A       		.uleb128 0x2a
 6934 2a98 38000000 		.4byte	.LVL192
 6935 2a9c C32C0000 		.4byte	0x2cc3
 6936 2aa0 B02A0000 		.4byte	0x2ab0
 6937 2aa4 2B       		.uleb128 0x2b
 6938 2aa5 01       		.uleb128 0x1
 6939 2aa6 50       		.byte	0x50
 6940 2aa7 02       		.uleb128 0x2
 6941 2aa8 74       		.byte	0x74
 6942 2aa9 00       		.sleb128 0
 6943 2aaa 2B       		.uleb128 0x2b
 6944 2aab 01       		.uleb128 0x1
 6945 2aac 51       		.byte	0x51
 6946 2aad 01       		.uleb128 0x1
 6947 2aae 31       		.byte	0x31
 6948 2aaf 00       		.byte	0
 6949 2ab0 2A       		.uleb128 0x2a
 6950 2ab1 44000000 		.4byte	.LVL194
 6951 2ab5 CF2C0000 		.4byte	0x2ccf
 6952 2ab9 CF2A0000 		.4byte	0x2acf
 6953 2abd 2B       		.uleb128 0x2b
 6954 2abe 01       		.uleb128 0x1
 6955 2abf 50       		.byte	0x50
 6956 2ac0 02       		.uleb128 0x2
 6957 2ac1 74       		.byte	0x74
 6958 2ac2 00       		.sleb128 0
 6959 2ac3 2B       		.uleb128 0x2b
 6960 2ac4 01       		.uleb128 0x1
 6961 2ac5 51       		.byte	0x51
 6962 2ac6 01       		.uleb128 0x1
 6963 2ac7 30       		.byte	0x30
 6964 2ac8 2B       		.uleb128 0x2b
 6965 2ac9 01       		.uleb128 0x1
 6966 2aca 52       		.byte	0x52
 6967 2acb 02       		.uleb128 0x2
ARM GAS  C:\Users\louis\AppData\Local\Temp\ccj8Y2ua.s 			page 160


 6968 2acc 75       		.byte	0x75
 6969 2acd 00       		.sleb128 0
 6970 2ace 00       		.byte	0
 6971 2acf 2A       		.uleb128 0x2a
 6972 2ad0 4E000000 		.4byte	.LVL195
 6973 2ad4 CF2C0000 		.4byte	0x2ccf
 6974 2ad8 EE2A0000 		.4byte	0x2aee
 6975 2adc 2B       		.uleb128 0x2b
 6976 2add 01       		.uleb128 0x1
 6977 2ade 50       		.byte	0x50
 6978 2adf 02       		.uleb128 0x2
 6979 2ae0 74       		.byte	0x74
 6980 2ae1 00       		.sleb128 0
 6981 2ae2 2B       		.uleb128 0x2b
 6982 2ae3 01       		.uleb128 0x1
 6983 2ae4 51       		.byte	0x51
 6984 2ae5 01       		.uleb128 0x1
 6985 2ae6 31       		.byte	0x31
 6986 2ae7 2B       		.uleb128 0x2b
 6987 2ae8 01       		.uleb128 0x1
 6988 2ae9 52       		.byte	0x52
 6989 2aea 02       		.uleb128 0x2
 6990 2aeb 76       		.byte	0x76
 6991 2aec 00       		.sleb128 0
 6992 2aed 00       		.byte	0
 6993 2aee 2A       		.uleb128 0x2a
 6994 2aef 56000000 		.4byte	.LVL196
 6995 2af3 DB2C0000 		.4byte	0x2cdb
 6996 2af7 082B0000 		.4byte	0x2b08
 6997 2afb 2B       		.uleb128 0x2b
 6998 2afc 01       		.uleb128 0x1
 6999 2afd 50       		.byte	0x50
 7000 2afe 02       		.uleb128 0x2
 7001 2aff 75       		.byte	0x75
 7002 2b00 00       		.sleb128 0
 7003 2b01 2B       		.uleb128 0x2b
 7004 2b02 01       		.uleb128 0x1
 7005 2b03 51       		.byte	0x51
 7006 2b04 02       		.uleb128 0x2
 7007 2b05 76       		.byte	0x76
 7008 2b06 00       		.sleb128 0
 7009 2b07 00       		.byte	0
 7010 2b08 29       		.uleb128 0x29
 7011 2b09 5A000000 		.4byte	.LVL197
 7012 2b0d E62C0000 		.4byte	0x2ce6
 7013 2b11 29       		.uleb128 0x29
 7014 2b12 5E000000 		.4byte	.LVL198
 7015 2b16 AE260000 		.4byte	0x26ae
 7016 2b1a 2A       		.uleb128 0x2a
 7017 2b1b 66000000 		.4byte	.LVL199
 7018 2b1f 722D0000 		.4byte	0x2d72
 7019 2b23 2F2B0000 		.4byte	0x2b2f
 7020 2b27 2B       		.uleb128 0x2b
 7021 2b28 01       		.uleb128 0x1
 7022 2b29 50       		.byte	0x50
 7023 2b2a 03       		.uleb128 0x3
 7024 2b2b 0A       		.byte	0xa
ARM GAS  C:\Users\louis\AppData\Local\Temp\ccj8Y2ua.s 			page 161


 7025 2b2c D007     		.2byte	0x7d0
 7026 2b2e 00       		.byte	0
 7027 2b2f 29       		.uleb128 0x29
 7028 2b30 6A000000 		.4byte	.LVL200
 7029 2b34 98270000 		.4byte	0x2798
 7030 2b38 2A       		.uleb128 0x2a
 7031 2b39 72000000 		.4byte	.LVL201
 7032 2b3d 722D0000 		.4byte	0x2d72
 7033 2b41 4D2B0000 		.4byte	0x2b4d
 7034 2b45 2B       		.uleb128 0x2b
 7035 2b46 01       		.uleb128 0x1
 7036 2b47 50       		.byte	0x50
 7037 2b48 03       		.uleb128 0x3
 7038 2b49 0A       		.byte	0xa
 7039 2b4a A00F     		.2byte	0xfa0
 7040 2b4c 00       		.byte	0
 7041 2b4d 29       		.uleb128 0x29
 7042 2b4e 76000000 		.4byte	.LVL202
 7043 2b52 AE260000 		.4byte	0x26ae
 7044 2b56 29       		.uleb128 0x29
 7045 2b57 7A000000 		.4byte	.LVL203
 7046 2b5b 10290000 		.4byte	0x2910
 7047 2b5f 29       		.uleb128 0x29
 7048 2b60 90000000 		.4byte	.LVL208
 7049 2b64 10290000 		.4byte	0x2910
 7050 2b68 00       		.byte	0
 7051 2b69 3D       		.uleb128 0x3d
 7052 2b6a 12120000 		.4byte	.LASF407
 7053 2b6e 18       		.byte	0x18
 7054 2b6f F907     		.2byte	0x7f9
 7055 2b71 752B0000 		.4byte	0x2b75
 7056 2b75 05       		.uleb128 0x5
 7057 2b76 D1000000 		.4byte	0xd1
 7058 2b7a 3E       		.uleb128 0x3e
 7059 2b7b AC000000 		.4byte	.LASF408
 7060 2b7f 0B       		.byte	0xb
 7061 2b80 A7       		.byte	0xa7
 7062 2b81 852B0000 		.4byte	0x2b85
 7063 2b85 11       		.uleb128 0x11
 7064 2b86 04       		.byte	0x4
 7065 2b87 8B2B0000 		.4byte	0x2b8b
 7066 2b8b 06       		.uleb128 0x6
 7067 2b8c F50B0000 		.4byte	0xbf5
 7068 2b90 3E       		.uleb128 0x3e
 7069 2b91 EB000000 		.4byte	.LASF409
 7070 2b95 19       		.byte	0x19
 7071 2b96 5E       		.byte	0x5e
 7072 2b97 100E0000 		.4byte	0xe10
 7073 2b9b 3E       		.uleb128 0x3e
 7074 2b9c 120C0000 		.4byte	.LASF410
 7075 2ba0 1A       		.byte	0x1a
 7076 2ba1 1F       		.byte	0x1f
 7077 2ba2 A62B0000 		.4byte	0x2ba6
 7078 2ba6 06       		.uleb128 0x6
 7079 2ba7 E90F0000 		.4byte	0xfe9
 7080 2bab 3E       		.uleb128 0x3e
 7081 2bac F4090000 		.4byte	.LASF411
ARM GAS  C:\Users\louis\AppData\Local\Temp\ccj8Y2ua.s 			page 162


 7082 2bb0 1B       		.byte	0x1b
 7083 2bb1 87       		.byte	0x87
 7084 2bb2 EC0E0000 		.4byte	0xeec
 7085 2bb6 3D       		.uleb128 0x3d
 7086 2bb7 87120000 		.4byte	.LASF412
 7087 2bbb 12       		.byte	0x12
 7088 2bbc 6001     		.2byte	0x160
 7089 2bbe DC000000 		.4byte	0xdc
 7090 2bc2 07       		.uleb128 0x7
 7091 2bc3 D22B0000 		.4byte	0x2bd2
 7092 2bc7 D22B0000 		.4byte	0x2bd2
 7093 2bcb 08       		.uleb128 0x8
 7094 2bcc E7000000 		.4byte	0xe7
 7095 2bd0 00       		.byte	0
 7096 2bd1 00       		.byte	0
 7097 2bd2 06       		.uleb128 0x6
 7098 2bd3 88110000 		.4byte	0x1188
 7099 2bd7 3D       		.uleb128 0x3d
 7100 2bd8 540F0000 		.4byte	.LASF413
 7101 2bdc 12       		.byte	0x12
 7102 2bdd 6401     		.2byte	0x164
 7103 2bdf E32B0000 		.4byte	0x2be3
 7104 2be3 06       		.uleb128 0x6
 7105 2be4 C22B0000 		.4byte	0x2bc2
 7106 2be8 3E       		.uleb128 0x3e
 7107 2be9 F7060000 		.4byte	.LASF414
 7108 2bed 17       		.byte	0x17
 7109 2bee 1F       		.byte	0x1f
 7110 2bef F32B0000 		.4byte	0x2bf3
 7111 2bf3 06       		.uleb128 0x6
 7112 2bf4 2D110000 		.4byte	0x112d
 7113 2bf8 3D       		.uleb128 0x3d
 7114 2bf9 F0120000 		.4byte	.LASF415
 7115 2bfd 1C       		.byte	0x1c
 7116 2bfe 0808     		.2byte	0x808
 7117 2c00 93180000 		.4byte	0x1893
 7118 2c04 3D       		.uleb128 0x3d
 7119 2c05 E20E0000 		.4byte	.LASF416
 7120 2c09 1C       		.byte	0x1c
 7121 2c0a 0908     		.2byte	0x809
 7122 2c0c 93180000 		.4byte	0x1893
 7123 2c10 3D       		.uleb128 0x3d
 7124 2c11 C2120000 		.4byte	.LASF417
 7125 2c15 1C       		.byte	0x1c
 7126 2c16 0E08     		.2byte	0x80e
 7127 2c18 93180000 		.4byte	0x1893
 7128 2c1c 3D       		.uleb128 0x3d
 7129 2c1d E8090000 		.4byte	.LASF418
 7130 2c21 1C       		.byte	0x1c
 7131 2c22 2908     		.2byte	0x829
 7132 2c24 93180000 		.4byte	0x1893
 7133 2c28 3D       		.uleb128 0x3d
 7134 2c29 C80E0000 		.4byte	.LASF419
 7135 2c2d 1C       		.byte	0x1c
 7136 2c2e 2D08     		.2byte	0x82d
 7137 2c30 93180000 		.4byte	0x1893
 7138 2c34 07       		.uleb128 0x7
ARM GAS  C:\Users\louis\AppData\Local\Temp\ccj8Y2ua.s 			page 163


 7139 2c35 1A0C0000 		.4byte	0xc1a
 7140 2c39 452C0000 		.4byte	0x2c45
 7141 2c3d 0F       		.uleb128 0xf
 7142 2c3e E7000000 		.4byte	0xe7
 7143 2c42 AF16     		.2byte	0x16af
 7144 2c44 00       		.byte	0
 7145 2c45 3F       		.uleb128 0x3f
 7146 2c46 C5010000 		.4byte	.LASF420
 7147 2c4a 01       		.byte	0x1
 7148 2c4b 3A       		.byte	0x3a
 7149 2c4c 342C0000 		.4byte	0x2c34
 7150 2c50 05       		.uleb128 0x5
 7151 2c51 03       		.byte	0x3
 7152 2c52 00000000 		.4byte	imageBufferCache
 7153 2c56 3E       		.uleb128 0x3e
 7154 2c57 D0120000 		.4byte	.LASF421
 7155 2c5b 01       		.byte	0x1
 7156 2c5c 3D       		.byte	0x3d
 7157 2c5d 68190000 		.4byte	0x1968
 7158 2c61 07       		.uleb128 0x7
 7159 2c62 000C0000 		.4byte	0xc00
 7160 2c66 712C0000 		.4byte	0x2c71
 7161 2c6a 08       		.uleb128 0x8
 7162 2c6b E7000000 		.4byte	0xe7
 7163 2c6f 03       		.byte	0x3
 7164 2c70 00       		.byte	0
 7165 2c71 3F       		.uleb128 0x3f
 7166 2c72 F8050000 		.4byte	.LASF422
 7167 2c76 01       		.byte	0x1
 7168 2c77 46       		.byte	0x46
 7169 2c78 612C0000 		.4byte	0x2c61
 7170 2c7c 05       		.uleb128 0x5
 7171 2c7d 03       		.byte	0x3
 7172 2c7e 00000000 		.4byte	demoPageArray
 7173 2c82 40       		.uleb128 0x40
 7174 2c83 0B130000 		.4byte	.LASF423
 7175 2c87 0B130000 		.4byte	.LASF423
 7176 2c8b 1D       		.byte	0x1d
 7177 2c8c 34       		.byte	0x34
 7178 2c8d 40       		.uleb128 0x40
 7179 2c8e 86130000 		.4byte	.LASF424
 7180 2c92 86130000 		.4byte	.LASF424
 7181 2c96 16       		.byte	0x16
 7182 2c97 7E       		.byte	0x7e
 7183 2c98 41       		.uleb128 0x41
 7184 2c99 52170000 		.4byte	.LASF455
 7185 2c9d 52170000 		.4byte	.LASF455
 7186 2ca1 40       		.uleb128 0x40
 7187 2ca2 98130000 		.4byte	.LASF425
 7188 2ca6 98130000 		.4byte	.LASF425
 7189 2caa 1B       		.byte	0x1b
 7190 2cab 31       		.byte	0x31
 7191 2cac 40       		.uleb128 0x40
 7192 2cad AC080000 		.4byte	.LASF426
 7193 2cb1 AC080000 		.4byte	.LASF426
 7194 2cb5 12       		.byte	0x12
 7195 2cb6 57       		.byte	0x57
ARM GAS  C:\Users\louis\AppData\Local\Temp\ccj8Y2ua.s 			page 164


 7196 2cb7 42       		.uleb128 0x42
 7197 2cb8 610D0000 		.4byte	.LASF427
 7198 2cbc 610D0000 		.4byte	.LASF427
 7199 2cc0 0D       		.byte	0xd
 7200 2cc1 3305     		.2byte	0x533
 7201 2cc3 42       		.uleb128 0x42
 7202 2cc4 6B140000 		.4byte	.LASF428
 7203 2cc8 6B140000 		.4byte	.LASF428
 7204 2ccc 0D       		.byte	0xd
 7205 2ccd 3605     		.2byte	0x536
 7206 2ccf 42       		.uleb128 0x42
 7207 2cd0 73150000 		.4byte	.LASF429
 7208 2cd4 73150000 		.4byte	.LASF429
 7209 2cd8 0D       		.byte	0xd
 7210 2cd9 5505     		.2byte	0x555
 7211 2cdb 40       		.uleb128 0x40
 7212 2cdc 07160000 		.4byte	.LASF430
 7213 2ce0 07160000 		.4byte	.LASF430
 7214 2ce4 1E       		.byte	0x1e
 7215 2ce5 2F       		.byte	0x2f
 7216 2ce6 40       		.uleb128 0x40
 7217 2ce7 1A0A0000 		.4byte	.LASF431
 7218 2ceb 1A0A0000 		.4byte	.LASF431
 7219 2cef 1E       		.byte	0x1e
 7220 2cf0 31       		.byte	0x31
 7221 2cf1 40       		.uleb128 0x40
 7222 2cf2 870C0000 		.4byte	.LASF432
 7223 2cf6 870C0000 		.4byte	.LASF432
 7224 2cfa 1F       		.byte	0x1f
 7225 2cfb BB       		.byte	0xbb
 7226 2cfc 40       		.uleb128 0x40
 7227 2cfd B70F0000 		.4byte	.LASF433
 7228 2d01 B70F0000 		.4byte	.LASF433
 7229 2d05 1F       		.byte	0x1f
 7230 2d06 E7       		.byte	0xe7
 7231 2d07 42       		.uleb128 0x42
 7232 2d08 26100000 		.4byte	.LASF434
 7233 2d0c 26100000 		.4byte	.LASF434
 7234 2d10 1C       		.byte	0x1c
 7235 2d11 C101     		.2byte	0x1c1
 7236 2d13 42       		.uleb128 0x42
 7237 2d14 9D010000 		.4byte	.LASF435
 7238 2d18 9D010000 		.4byte	.LASF435
 7239 2d1c 1C       		.byte	0x1c
 7240 2d1d C001     		.2byte	0x1c0
 7241 2d1f 42       		.uleb128 0x42
 7242 2d20 0D110000 		.4byte	.LASF436
 7243 2d24 0D110000 		.4byte	.LASF436
 7244 2d28 1C       		.byte	0x1c
 7245 2d29 2703     		.2byte	0x327
 7246 2d2b 42       		.uleb128 0x42
 7247 2d2c E70C0000 		.4byte	.LASF437
 7248 2d30 E70C0000 		.4byte	.LASF437
 7249 2d34 1C       		.byte	0x1c
 7250 2d35 2803     		.2byte	0x328
 7251 2d37 42       		.uleb128 0x42
 7252 2d38 3A190000 		.4byte	.LASF438
ARM GAS  C:\Users\louis\AppData\Local\Temp\ccj8Y2ua.s 			page 165


 7253 2d3c 3A190000 		.4byte	.LASF438
 7254 2d40 1C       		.byte	0x1c
 7255 2d41 F601     		.2byte	0x1f6
 7256 2d43 42       		.uleb128 0x42
 7257 2d44 01170000 		.4byte	.LASF439
 7258 2d48 01170000 		.4byte	.LASF439
 7259 2d4c 1C       		.byte	0x1c
 7260 2d4d 2B03     		.2byte	0x32b
 7261 2d4f 42       		.uleb128 0x42
 7262 2d50 87160000 		.4byte	.LASF440
 7263 2d54 87160000 		.4byte	.LASF440
 7264 2d58 1C       		.byte	0x1c
 7265 2d59 2603     		.2byte	0x326
 7266 2d5b 42       		.uleb128 0x42
 7267 2d5c F7080000 		.4byte	.LASF441
 7268 2d60 F7080000 		.4byte	.LASF441
 7269 2d64 1C       		.byte	0x1c
 7270 2d65 0503     		.2byte	0x305
 7271 2d67 40       		.uleb128 0x40
 7272 2d68 F6030000 		.4byte	.LASF442
 7273 2d6c F6030000 		.4byte	.LASF442
 7274 2d70 17       		.byte	0x17
 7275 2d71 2A       		.byte	0x2a
 7276 2d72 42       		.uleb128 0x42
 7277 2d73 25060000 		.4byte	.LASF443
 7278 2d77 25060000 		.4byte	.LASF443
 7279 2d7b 0C       		.byte	0xc
 7280 2d7c 8903     		.2byte	0x389
 7281 2d7e 40       		.uleb128 0x40
 7282 2d7f CC0B0000 		.4byte	.LASF444
 7283 2d83 CC0B0000 		.4byte	.LASF444
 7284 2d87 20       		.byte	0x20
 7285 2d88 88       		.byte	0x88
 7286 2d89 43       		.uleb128 0x43
 7287 2d8a 76050000 		.4byte	.LASF456
 7288 2d8e B40A0000 		.4byte	.LASF457
 7289 2d92 22       		.byte	0x22
 7290 2d93 00       		.byte	0
 7291 2d94 76050000 		.4byte	.LASF456
 7292 2d98 42       		.uleb128 0x42
 7293 2d99 F6110000 		.4byte	.LASF445
 7294 2d9d F6110000 		.4byte	.LASF445
 7295 2da1 1C       		.byte	0x1c
 7296 2da2 FB01     		.2byte	0x1fb
 7297 2da4 40       		.uleb128 0x40
 7298 2da5 650E0000 		.4byte	.LASF446
 7299 2da9 650E0000 		.4byte	.LASF446
 7300 2dad 21       		.byte	0x21
 7301 2dae 30       		.byte	0x30
 7302 2daf 42       		.uleb128 0x42
 7303 2db0 C50C0000 		.4byte	.LASF447
 7304 2db4 C50C0000 		.4byte	.LASF447
 7305 2db8 1C       		.byte	0x1c
 7306 2db9 6D01     		.2byte	0x16d
 7307 2dbb 40       		.uleb128 0x40
 7308 2dbc FF100000 		.4byte	.LASF448
 7309 2dc0 FF100000 		.4byte	.LASF448
ARM GAS  C:\Users\louis\AppData\Local\Temp\ccj8Y2ua.s 			page 166


 7310 2dc4 16       		.byte	0x16
 7311 2dc5 79       		.byte	0x79
 7312 2dc6 40       		.uleb128 0x40
 7313 2dc7 D40E0000 		.4byte	.LASF449
 7314 2dcb D40E0000 		.4byte	.LASF449
 7315 2dcf 16       		.byte	0x16
 7316 2dd0 7A       		.byte	0x7a
 7317 2dd1 00       		.byte	0
 7318              		.section	.debug_abbrev,"",%progbits
 7319              	.Ldebug_abbrev0:
 7320 0000 01       		.uleb128 0x1
 7321 0001 11       		.uleb128 0x11
 7322 0002 01       		.byte	0x1
 7323 0003 25       		.uleb128 0x25
 7324 0004 0E       		.uleb128 0xe
 7325 0005 13       		.uleb128 0x13
 7326 0006 0B       		.uleb128 0xb
 7327 0007 03       		.uleb128 0x3
 7328 0008 0E       		.uleb128 0xe
 7329 0009 1B       		.uleb128 0x1b
 7330 000a 0E       		.uleb128 0xe
 7331 000b 55       		.uleb128 0x55
 7332 000c 17       		.uleb128 0x17
 7333 000d 11       		.uleb128 0x11
 7334 000e 01       		.uleb128 0x1
 7335 000f 10       		.uleb128 0x10
 7336 0010 17       		.uleb128 0x17
 7337 0011 00       		.byte	0
 7338 0012 00       		.byte	0
 7339 0013 02       		.uleb128 0x2
 7340 0014 24       		.uleb128 0x24
 7341 0015 00       		.byte	0
 7342 0016 0B       		.uleb128 0xb
 7343 0017 0B       		.uleb128 0xb
 7344 0018 3E       		.uleb128 0x3e
 7345 0019 0B       		.uleb128 0xb
 7346 001a 03       		.uleb128 0x3
 7347 001b 0E       		.uleb128 0xe
 7348 001c 00       		.byte	0
 7349 001d 00       		.byte	0
 7350 001e 03       		.uleb128 0x3
 7351 001f 16       		.uleb128 0x16
 7352 0020 00       		.byte	0
 7353 0021 03       		.uleb128 0x3
 7354 0022 0E       		.uleb128 0xe
 7355 0023 3A       		.uleb128 0x3a
 7356 0024 0B       		.uleb128 0xb
 7357 0025 3B       		.uleb128 0x3b
 7358 0026 0B       		.uleb128 0xb
 7359 0027 49       		.uleb128 0x49
 7360 0028 13       		.uleb128 0x13
 7361 0029 00       		.byte	0
 7362 002a 00       		.byte	0
 7363 002b 04       		.uleb128 0x4
 7364 002c 24       		.uleb128 0x24
 7365 002d 00       		.byte	0
 7366 002e 0B       		.uleb128 0xb
ARM GAS  C:\Users\louis\AppData\Local\Temp\ccj8Y2ua.s 			page 167


 7367 002f 0B       		.uleb128 0xb
 7368 0030 3E       		.uleb128 0x3e
 7369 0031 0B       		.uleb128 0xb
 7370 0032 03       		.uleb128 0x3
 7371 0033 08       		.uleb128 0x8
 7372 0034 00       		.byte	0
 7373 0035 00       		.byte	0
 7374 0036 05       		.uleb128 0x5
 7375 0037 35       		.uleb128 0x35
 7376 0038 00       		.byte	0
 7377 0039 49       		.uleb128 0x49
 7378 003a 13       		.uleb128 0x13
 7379 003b 00       		.byte	0
 7380 003c 00       		.byte	0
 7381 003d 06       		.uleb128 0x6
 7382 003e 26       		.uleb128 0x26
 7383 003f 00       		.byte	0
 7384 0040 49       		.uleb128 0x49
 7385 0041 13       		.uleb128 0x13
 7386 0042 00       		.byte	0
 7387 0043 00       		.byte	0
 7388 0044 07       		.uleb128 0x7
 7389 0045 01       		.uleb128 0x1
 7390 0046 01       		.byte	0x1
 7391 0047 49       		.uleb128 0x49
 7392 0048 13       		.uleb128 0x13
 7393 0049 01       		.uleb128 0x1
 7394 004a 13       		.uleb128 0x13
 7395 004b 00       		.byte	0
 7396 004c 00       		.byte	0
 7397 004d 08       		.uleb128 0x8
 7398 004e 21       		.uleb128 0x21
 7399 004f 00       		.byte	0
 7400 0050 49       		.uleb128 0x49
 7401 0051 13       		.uleb128 0x13
 7402 0052 2F       		.uleb128 0x2f
 7403 0053 0B       		.uleb128 0xb
 7404 0054 00       		.byte	0
 7405 0055 00       		.byte	0
 7406 0056 09       		.uleb128 0x9
 7407 0057 13       		.uleb128 0x13
 7408 0058 01       		.byte	0x1
 7409 0059 0B       		.uleb128 0xb
 7410 005a 0B       		.uleb128 0xb
 7411 005b 3A       		.uleb128 0x3a
 7412 005c 0B       		.uleb128 0xb
 7413 005d 3B       		.uleb128 0x3b
 7414 005e 0B       		.uleb128 0xb
 7415 005f 01       		.uleb128 0x1
 7416 0060 13       		.uleb128 0x13
 7417 0061 00       		.byte	0
 7418 0062 00       		.byte	0
 7419 0063 0A       		.uleb128 0xa
 7420 0064 0D       		.uleb128 0xd
 7421 0065 00       		.byte	0
 7422 0066 03       		.uleb128 0x3
 7423 0067 08       		.uleb128 0x8
ARM GAS  C:\Users\louis\AppData\Local\Temp\ccj8Y2ua.s 			page 168


 7424 0068 3A       		.uleb128 0x3a
 7425 0069 0B       		.uleb128 0xb
 7426 006a 3B       		.uleb128 0x3b
 7427 006b 0B       		.uleb128 0xb
 7428 006c 49       		.uleb128 0x49
 7429 006d 13       		.uleb128 0x13
 7430 006e 38       		.uleb128 0x38
 7431 006f 0B       		.uleb128 0xb
 7432 0070 00       		.byte	0
 7433 0071 00       		.byte	0
 7434 0072 0B       		.uleb128 0xb
 7435 0073 0D       		.uleb128 0xd
 7436 0074 00       		.byte	0
 7437 0075 03       		.uleb128 0x3
 7438 0076 0E       		.uleb128 0xe
 7439 0077 3A       		.uleb128 0x3a
 7440 0078 0B       		.uleb128 0xb
 7441 0079 3B       		.uleb128 0x3b
 7442 007a 0B       		.uleb128 0xb
 7443 007b 49       		.uleb128 0x49
 7444 007c 13       		.uleb128 0x13
 7445 007d 38       		.uleb128 0x38
 7446 007e 0B       		.uleb128 0xb
 7447 007f 00       		.byte	0
 7448 0080 00       		.byte	0
 7449 0081 0C       		.uleb128 0xc
 7450 0082 13       		.uleb128 0x13
 7451 0083 01       		.byte	0x1
 7452 0084 0B       		.uleb128 0xb
 7453 0085 05       		.uleb128 0x5
 7454 0086 3A       		.uleb128 0x3a
 7455 0087 0B       		.uleb128 0xb
 7456 0088 3B       		.uleb128 0x3b
 7457 0089 0B       		.uleb128 0xb
 7458 008a 01       		.uleb128 0x1
 7459 008b 13       		.uleb128 0x13
 7460 008c 00       		.byte	0
 7461 008d 00       		.byte	0
 7462 008e 0D       		.uleb128 0xd
 7463 008f 0D       		.uleb128 0xd
 7464 0090 00       		.byte	0
 7465 0091 03       		.uleb128 0x3
 7466 0092 0E       		.uleb128 0xe
 7467 0093 3A       		.uleb128 0x3a
 7468 0094 0B       		.uleb128 0xb
 7469 0095 3B       		.uleb128 0x3b
 7470 0096 0B       		.uleb128 0xb
 7471 0097 49       		.uleb128 0x49
 7472 0098 13       		.uleb128 0x13
 7473 0099 38       		.uleb128 0x38
 7474 009a 05       		.uleb128 0x5
 7475 009b 00       		.byte	0
 7476 009c 00       		.byte	0
 7477 009d 0E       		.uleb128 0xe
 7478 009e 0D       		.uleb128 0xd
 7479 009f 00       		.byte	0
 7480 00a0 03       		.uleb128 0x3
ARM GAS  C:\Users\louis\AppData\Local\Temp\ccj8Y2ua.s 			page 169


 7481 00a1 08       		.uleb128 0x8
 7482 00a2 3A       		.uleb128 0x3a
 7483 00a3 0B       		.uleb128 0xb
 7484 00a4 3B       		.uleb128 0x3b
 7485 00a5 0B       		.uleb128 0xb
 7486 00a6 49       		.uleb128 0x49
 7487 00a7 13       		.uleb128 0x13
 7488 00a8 38       		.uleb128 0x38
 7489 00a9 05       		.uleb128 0x5
 7490 00aa 00       		.byte	0
 7491 00ab 00       		.byte	0
 7492 00ac 0F       		.uleb128 0xf
 7493 00ad 21       		.uleb128 0x21
 7494 00ae 00       		.byte	0
 7495 00af 49       		.uleb128 0x49
 7496 00b0 13       		.uleb128 0x13
 7497 00b1 2F       		.uleb128 0x2f
 7498 00b2 05       		.uleb128 0x5
 7499 00b3 00       		.byte	0
 7500 00b4 00       		.byte	0
 7501 00b5 10       		.uleb128 0x10
 7502 00b6 16       		.uleb128 0x16
 7503 00b7 00       		.byte	0
 7504 00b8 03       		.uleb128 0x3
 7505 00b9 0E       		.uleb128 0xe
 7506 00ba 3A       		.uleb128 0x3a
 7507 00bb 0B       		.uleb128 0xb
 7508 00bc 3B       		.uleb128 0x3b
 7509 00bd 05       		.uleb128 0x5
 7510 00be 49       		.uleb128 0x49
 7511 00bf 13       		.uleb128 0x13
 7512 00c0 00       		.byte	0
 7513 00c1 00       		.byte	0
 7514 00c2 11       		.uleb128 0x11
 7515 00c3 0F       		.uleb128 0xf
 7516 00c4 00       		.byte	0
 7517 00c5 0B       		.uleb128 0xb
 7518 00c6 0B       		.uleb128 0xb
 7519 00c7 49       		.uleb128 0x49
 7520 00c8 13       		.uleb128 0x13
 7521 00c9 00       		.byte	0
 7522 00ca 00       		.byte	0
 7523 00cb 12       		.uleb128 0x12
 7524 00cc 15       		.uleb128 0x15
 7525 00cd 00       		.byte	0
 7526 00ce 27       		.uleb128 0x27
 7527 00cf 19       		.uleb128 0x19
 7528 00d0 00       		.byte	0
 7529 00d1 00       		.byte	0
 7530 00d2 13       		.uleb128 0x13
 7531 00d3 0F       		.uleb128 0xf
 7532 00d4 00       		.byte	0
 7533 00d5 0B       		.uleb128 0xb
 7534 00d6 0B       		.uleb128 0xb
 7535 00d7 00       		.byte	0
 7536 00d8 00       		.byte	0
 7537 00d9 14       		.uleb128 0x14
ARM GAS  C:\Users\louis\AppData\Local\Temp\ccj8Y2ua.s 			page 170


 7538 00da 04       		.uleb128 0x4
 7539 00db 01       		.byte	0x1
 7540 00dc 0B       		.uleb128 0xb
 7541 00dd 0B       		.uleb128 0xb
 7542 00de 49       		.uleb128 0x49
 7543 00df 13       		.uleb128 0x13
 7544 00e0 3A       		.uleb128 0x3a
 7545 00e1 0B       		.uleb128 0xb
 7546 00e2 3B       		.uleb128 0x3b
 7547 00e3 05       		.uleb128 0x5
 7548 00e4 01       		.uleb128 0x1
 7549 00e5 13       		.uleb128 0x13
 7550 00e6 00       		.byte	0
 7551 00e7 00       		.byte	0
 7552 00e8 15       		.uleb128 0x15
 7553 00e9 28       		.uleb128 0x28
 7554 00ea 00       		.byte	0
 7555 00eb 03       		.uleb128 0x3
 7556 00ec 0E       		.uleb128 0xe
 7557 00ed 1C       		.uleb128 0x1c
 7558 00ee 0B       		.uleb128 0xb
 7559 00ef 00       		.byte	0
 7560 00f0 00       		.byte	0
 7561 00f1 16       		.uleb128 0x16
 7562 00f2 13       		.uleb128 0x13
 7563 00f3 01       		.byte	0x1
 7564 00f4 0B       		.uleb128 0xb
 7565 00f5 0B       		.uleb128 0xb
 7566 00f6 3A       		.uleb128 0x3a
 7567 00f7 0B       		.uleb128 0xb
 7568 00f8 3B       		.uleb128 0x3b
 7569 00f9 05       		.uleb128 0x5
 7570 00fa 01       		.uleb128 0x1
 7571 00fb 13       		.uleb128 0x13
 7572 00fc 00       		.byte	0
 7573 00fd 00       		.byte	0
 7574 00fe 17       		.uleb128 0x17
 7575 00ff 0D       		.uleb128 0xd
 7576 0100 00       		.byte	0
 7577 0101 03       		.uleb128 0x3
 7578 0102 0E       		.uleb128 0xe
 7579 0103 3A       		.uleb128 0x3a
 7580 0104 0B       		.uleb128 0xb
 7581 0105 3B       		.uleb128 0x3b
 7582 0106 05       		.uleb128 0x5
 7583 0107 49       		.uleb128 0x49
 7584 0108 13       		.uleb128 0x13
 7585 0109 38       		.uleb128 0x38
 7586 010a 0B       		.uleb128 0xb
 7587 010b 00       		.byte	0
 7588 010c 00       		.byte	0
 7589 010d 18       		.uleb128 0x18
 7590 010e 15       		.uleb128 0x15
 7591 010f 01       		.byte	0x1
 7592 0110 27       		.uleb128 0x27
 7593 0111 19       		.uleb128 0x19
 7594 0112 01       		.uleb128 0x1
ARM GAS  C:\Users\louis\AppData\Local\Temp\ccj8Y2ua.s 			page 171


 7595 0113 13       		.uleb128 0x13
 7596 0114 00       		.byte	0
 7597 0115 00       		.byte	0
 7598 0116 19       		.uleb128 0x19
 7599 0117 05       		.uleb128 0x5
 7600 0118 00       		.byte	0
 7601 0119 49       		.uleb128 0x49
 7602 011a 13       		.uleb128 0x13
 7603 011b 00       		.byte	0
 7604 011c 00       		.byte	0
 7605 011d 1A       		.uleb128 0x1a
 7606 011e 13       		.uleb128 0x13
 7607 011f 01       		.byte	0x1
 7608 0120 03       		.uleb128 0x3
 7609 0121 0E       		.uleb128 0xe
 7610 0122 0B       		.uleb128 0xb
 7611 0123 0B       		.uleb128 0xb
 7612 0124 3A       		.uleb128 0x3a
 7613 0125 0B       		.uleb128 0xb
 7614 0126 3B       		.uleb128 0x3b
 7615 0127 05       		.uleb128 0x5
 7616 0128 01       		.uleb128 0x1
 7617 0129 13       		.uleb128 0x13
 7618 012a 00       		.byte	0
 7619 012b 00       		.byte	0
 7620 012c 1B       		.uleb128 0x1b
 7621 012d 13       		.uleb128 0x13
 7622 012e 01       		.byte	0x1
 7623 012f 03       		.uleb128 0x3
 7624 0130 0E       		.uleb128 0xe
 7625 0131 0B       		.uleb128 0xb
 7626 0132 0B       		.uleb128 0xb
 7627 0133 3A       		.uleb128 0x3a
 7628 0134 0B       		.uleb128 0xb
 7629 0135 3B       		.uleb128 0x3b
 7630 0136 0B       		.uleb128 0xb
 7631 0137 01       		.uleb128 0x1
 7632 0138 13       		.uleb128 0x13
 7633 0139 00       		.byte	0
 7634 013a 00       		.byte	0
 7635 013b 1C       		.uleb128 0x1c
 7636 013c 15       		.uleb128 0x15
 7637 013d 01       		.byte	0x1
 7638 013e 27       		.uleb128 0x27
 7639 013f 19       		.uleb128 0x19
 7640 0140 49       		.uleb128 0x49
 7641 0141 13       		.uleb128 0x13
 7642 0142 01       		.uleb128 0x1
 7643 0143 13       		.uleb128 0x13
 7644 0144 00       		.byte	0
 7645 0145 00       		.byte	0
 7646 0146 1D       		.uleb128 0x1d
 7647 0147 15       		.uleb128 0x15
 7648 0148 00       		.byte	0
 7649 0149 27       		.uleb128 0x27
 7650 014a 19       		.uleb128 0x19
 7651 014b 49       		.uleb128 0x49
ARM GAS  C:\Users\louis\AppData\Local\Temp\ccj8Y2ua.s 			page 172


 7652 014c 13       		.uleb128 0x13
 7653 014d 00       		.byte	0
 7654 014e 00       		.byte	0
 7655 014f 1E       		.uleb128 0x1e
 7656 0150 26       		.uleb128 0x26
 7657 0151 00       		.byte	0
 7658 0152 00       		.byte	0
 7659 0153 00       		.byte	0
 7660 0154 1F       		.uleb128 0x1f
 7661 0155 0D       		.uleb128 0xd
 7662 0156 00       		.byte	0
 7663 0157 03       		.uleb128 0x3
 7664 0158 08       		.uleb128 0x8
 7665 0159 3A       		.uleb128 0x3a
 7666 015a 0B       		.uleb128 0xb
 7667 015b 3B       		.uleb128 0x3b
 7668 015c 05       		.uleb128 0x5
 7669 015d 49       		.uleb128 0x49
 7670 015e 13       		.uleb128 0x13
 7671 015f 38       		.uleb128 0x38
 7672 0160 0B       		.uleb128 0xb
 7673 0161 00       		.byte	0
 7674 0162 00       		.byte	0
 7675 0163 20       		.uleb128 0x20
 7676 0164 17       		.uleb128 0x17
 7677 0165 01       		.byte	0x1
 7678 0166 0B       		.uleb128 0xb
 7679 0167 0B       		.uleb128 0xb
 7680 0168 3A       		.uleb128 0x3a
 7681 0169 0B       		.uleb128 0xb
 7682 016a 3B       		.uleb128 0x3b
 7683 016b 05       		.uleb128 0x5
 7684 016c 01       		.uleb128 0x1
 7685 016d 13       		.uleb128 0x13
 7686 016e 00       		.byte	0
 7687 016f 00       		.byte	0
 7688 0170 21       		.uleb128 0x21
 7689 0171 0D       		.uleb128 0xd
 7690 0172 00       		.byte	0
 7691 0173 03       		.uleb128 0x3
 7692 0174 0E       		.uleb128 0xe
 7693 0175 3A       		.uleb128 0x3a
 7694 0176 0B       		.uleb128 0xb
 7695 0177 3B       		.uleb128 0x3b
 7696 0178 05       		.uleb128 0x5
 7697 0179 49       		.uleb128 0x49
 7698 017a 13       		.uleb128 0x13
 7699 017b 00       		.byte	0
 7700 017c 00       		.byte	0
 7701 017d 22       		.uleb128 0x22
 7702 017e 04       		.uleb128 0x4
 7703 017f 01       		.byte	0x1
 7704 0180 0B       		.uleb128 0xb
 7705 0181 0B       		.uleb128 0xb
 7706 0182 49       		.uleb128 0x49
 7707 0183 13       		.uleb128 0x13
 7708 0184 3A       		.uleb128 0x3a
ARM GAS  C:\Users\louis\AppData\Local\Temp\ccj8Y2ua.s 			page 173


 7709 0185 0B       		.uleb128 0xb
 7710 0186 3B       		.uleb128 0x3b
 7711 0187 0B       		.uleb128 0xb
 7712 0188 01       		.uleb128 0x1
 7713 0189 13       		.uleb128 0x13
 7714 018a 00       		.byte	0
 7715 018b 00       		.byte	0
 7716 018c 23       		.uleb128 0x23
 7717 018d 2E       		.uleb128 0x2e
 7718 018e 01       		.byte	0x1
 7719 018f 03       		.uleb128 0x3
 7720 0190 0E       		.uleb128 0xe
 7721 0191 3A       		.uleb128 0x3a
 7722 0192 0B       		.uleb128 0xb
 7723 0193 3B       		.uleb128 0x3b
 7724 0194 05       		.uleb128 0x5
 7725 0195 27       		.uleb128 0x27
 7726 0196 19       		.uleb128 0x19
 7727 0197 20       		.uleb128 0x20
 7728 0198 0B       		.uleb128 0xb
 7729 0199 01       		.uleb128 0x1
 7730 019a 13       		.uleb128 0x13
 7731 019b 00       		.byte	0
 7732 019c 00       		.byte	0
 7733 019d 24       		.uleb128 0x24
 7734 019e 05       		.uleb128 0x5
 7735 019f 00       		.byte	0
 7736 01a0 03       		.uleb128 0x3
 7737 01a1 0E       		.uleb128 0xe
 7738 01a2 3A       		.uleb128 0x3a
 7739 01a3 0B       		.uleb128 0xb
 7740 01a4 3B       		.uleb128 0x3b
 7741 01a5 05       		.uleb128 0x5
 7742 01a6 49       		.uleb128 0x49
 7743 01a7 13       		.uleb128 0x13
 7744 01a8 00       		.byte	0
 7745 01a9 00       		.byte	0
 7746 01aa 25       		.uleb128 0x25
 7747 01ab 2E       		.uleb128 0x2e
 7748 01ac 00       		.byte	0
 7749 01ad 03       		.uleb128 0x3
 7750 01ae 0E       		.uleb128 0xe
 7751 01af 3A       		.uleb128 0x3a
 7752 01b0 0B       		.uleb128 0xb
 7753 01b1 3B       		.uleb128 0x3b
 7754 01b2 0B       		.uleb128 0xb
 7755 01b3 27       		.uleb128 0x27
 7756 01b4 19       		.uleb128 0x19
 7757 01b5 20       		.uleb128 0x20
 7758 01b6 0B       		.uleb128 0xb
 7759 01b7 00       		.byte	0
 7760 01b8 00       		.byte	0
 7761 01b9 26       		.uleb128 0x26
 7762 01ba 2E       		.uleb128 0x2e
 7763 01bb 01       		.byte	0x1
 7764 01bc 3F       		.uleb128 0x3f
 7765 01bd 19       		.uleb128 0x19
ARM GAS  C:\Users\louis\AppData\Local\Temp\ccj8Y2ua.s 			page 174


 7766 01be 03       		.uleb128 0x3
 7767 01bf 0E       		.uleb128 0xe
 7768 01c0 3A       		.uleb128 0x3a
 7769 01c1 0B       		.uleb128 0xb
 7770 01c2 3B       		.uleb128 0x3b
 7771 01c3 0B       		.uleb128 0xb
 7772 01c4 27       		.uleb128 0x27
 7773 01c5 19       		.uleb128 0x19
 7774 01c6 11       		.uleb128 0x11
 7775 01c7 01       		.uleb128 0x1
 7776 01c8 12       		.uleb128 0x12
 7777 01c9 06       		.uleb128 0x6
 7778 01ca 40       		.uleb128 0x40
 7779 01cb 18       		.uleb128 0x18
 7780 01cc 9742     		.uleb128 0x2117
 7781 01ce 19       		.uleb128 0x19
 7782 01cf 01       		.uleb128 0x1
 7783 01d0 13       		.uleb128 0x13
 7784 01d1 00       		.byte	0
 7785 01d2 00       		.byte	0
 7786 01d3 27       		.uleb128 0x27
 7787 01d4 05       		.uleb128 0x5
 7788 01d5 00       		.byte	0
 7789 01d6 03       		.uleb128 0x3
 7790 01d7 0E       		.uleb128 0xe
 7791 01d8 3A       		.uleb128 0x3a
 7792 01d9 0B       		.uleb128 0xb
 7793 01da 3B       		.uleb128 0x3b
 7794 01db 0B       		.uleb128 0xb
 7795 01dc 49       		.uleb128 0x49
 7796 01dd 13       		.uleb128 0x13
 7797 01de 02       		.uleb128 0x2
 7798 01df 17       		.uleb128 0x17
 7799 01e0 00       		.byte	0
 7800 01e1 00       		.byte	0
 7801 01e2 28       		.uleb128 0x28
 7802 01e3 34       		.uleb128 0x34
 7803 01e4 00       		.byte	0
 7804 01e5 03       		.uleb128 0x3
 7805 01e6 0E       		.uleb128 0xe
 7806 01e7 3A       		.uleb128 0x3a
 7807 01e8 0B       		.uleb128 0xb
 7808 01e9 3B       		.uleb128 0x3b
 7809 01ea 0B       		.uleb128 0xb
 7810 01eb 49       		.uleb128 0x49
 7811 01ec 13       		.uleb128 0x13
 7812 01ed 02       		.uleb128 0x2
 7813 01ee 17       		.uleb128 0x17
 7814 01ef 00       		.byte	0
 7815 01f0 00       		.byte	0
 7816 01f1 29       		.uleb128 0x29
 7817 01f2 898201   		.uleb128 0x4109
 7818 01f5 00       		.byte	0
 7819 01f6 11       		.uleb128 0x11
 7820 01f7 01       		.uleb128 0x1
 7821 01f8 31       		.uleb128 0x31
 7822 01f9 13       		.uleb128 0x13
ARM GAS  C:\Users\louis\AppData\Local\Temp\ccj8Y2ua.s 			page 175


 7823 01fa 00       		.byte	0
 7824 01fb 00       		.byte	0
 7825 01fc 2A       		.uleb128 0x2a
 7826 01fd 898201   		.uleb128 0x4109
 7827 0200 01       		.byte	0x1
 7828 0201 11       		.uleb128 0x11
 7829 0202 01       		.uleb128 0x1
 7830 0203 31       		.uleb128 0x31
 7831 0204 13       		.uleb128 0x13
 7832 0205 01       		.uleb128 0x1
 7833 0206 13       		.uleb128 0x13
 7834 0207 00       		.byte	0
 7835 0208 00       		.byte	0
 7836 0209 2B       		.uleb128 0x2b
 7837 020a 8A8201   		.uleb128 0x410a
 7838 020d 00       		.byte	0
 7839 020e 02       		.uleb128 0x2
 7840 020f 18       		.uleb128 0x18
 7841 0210 9142     		.uleb128 0x2111
 7842 0212 18       		.uleb128 0x18
 7843 0213 00       		.byte	0
 7844 0214 00       		.byte	0
 7845 0215 2C       		.uleb128 0x2c
 7846 0216 898201   		.uleb128 0x4109
 7847 0219 01       		.byte	0x1
 7848 021a 11       		.uleb128 0x11
 7849 021b 01       		.uleb128 0x1
 7850 021c 31       		.uleb128 0x31
 7851 021d 13       		.uleb128 0x13
 7852 021e 00       		.byte	0
 7853 021f 00       		.byte	0
 7854 0220 2D       		.uleb128 0x2d
 7855 0221 2E       		.uleb128 0x2e
 7856 0222 01       		.byte	0x1
 7857 0223 3F       		.uleb128 0x3f
 7858 0224 19       		.uleb128 0x19
 7859 0225 03       		.uleb128 0x3
 7860 0226 0E       		.uleb128 0xe
 7861 0227 3A       		.uleb128 0x3a
 7862 0228 0B       		.uleb128 0xb
 7863 0229 3B       		.uleb128 0x3b
 7864 022a 0B       		.uleb128 0xb
 7865 022b 27       		.uleb128 0x27
 7866 022c 19       		.uleb128 0x19
 7867 022d 11       		.uleb128 0x11
 7868 022e 01       		.uleb128 0x1
 7869 022f 12       		.uleb128 0x12
 7870 0230 06       		.uleb128 0x6
 7871 0231 40       		.uleb128 0x40
 7872 0232 18       		.uleb128 0x18
 7873 0233 9642     		.uleb128 0x2116
 7874 0235 19       		.uleb128 0x19
 7875 0236 01       		.uleb128 0x1
 7876 0237 13       		.uleb128 0x13
 7877 0238 00       		.byte	0
 7878 0239 00       		.byte	0
 7879 023a 2E       		.uleb128 0x2e
ARM GAS  C:\Users\louis\AppData\Local\Temp\ccj8Y2ua.s 			page 176


 7880 023b 34       		.uleb128 0x34
 7881 023c 00       		.byte	0
 7882 023d 03       		.uleb128 0x3
 7883 023e 08       		.uleb128 0x8
 7884 023f 3A       		.uleb128 0x3a
 7885 0240 0B       		.uleb128 0xb
 7886 0241 3B       		.uleb128 0x3b
 7887 0242 0B       		.uleb128 0xb
 7888 0243 49       		.uleb128 0x49
 7889 0244 13       		.uleb128 0x13
 7890 0245 02       		.uleb128 0x2
 7891 0246 17       		.uleb128 0x17
 7892 0247 00       		.byte	0
 7893 0248 00       		.byte	0
 7894 0249 2F       		.uleb128 0x2f
 7895 024a 34       		.uleb128 0x34
 7896 024b 00       		.byte	0
 7897 024c 03       		.uleb128 0x3
 7898 024d 0E       		.uleb128 0xe
 7899 024e 3A       		.uleb128 0x3a
 7900 024f 0B       		.uleb128 0xb
 7901 0250 3B       		.uleb128 0x3b
 7902 0251 05       		.uleb128 0x5
 7903 0252 49       		.uleb128 0x49
 7904 0253 13       		.uleb128 0x13
 7905 0254 02       		.uleb128 0x2
 7906 0255 17       		.uleb128 0x17
 7907 0256 00       		.byte	0
 7908 0257 00       		.byte	0
 7909 0258 30       		.uleb128 0x30
 7910 0259 34       		.uleb128 0x34
 7911 025a 00       		.byte	0
 7912 025b 03       		.uleb128 0x3
 7913 025c 08       		.uleb128 0x8
 7914 025d 3A       		.uleb128 0x3a
 7915 025e 0B       		.uleb128 0xb
 7916 025f 3B       		.uleb128 0x3b
 7917 0260 05       		.uleb128 0x5
 7918 0261 49       		.uleb128 0x49
 7919 0262 13       		.uleb128 0x13
 7920 0263 02       		.uleb128 0x2
 7921 0264 18       		.uleb128 0x18
 7922 0265 00       		.byte	0
 7923 0266 00       		.byte	0
 7924 0267 31       		.uleb128 0x31
 7925 0268 2E       		.uleb128 0x2e
 7926 0269 01       		.byte	0x1
 7927 026a 3F       		.uleb128 0x3f
 7928 026b 19       		.uleb128 0x19
 7929 026c 03       		.uleb128 0x3
 7930 026d 0E       		.uleb128 0xe
 7931 026e 3A       		.uleb128 0x3a
 7932 026f 0B       		.uleb128 0xb
 7933 0270 3B       		.uleb128 0x3b
 7934 0271 05       		.uleb128 0x5
 7935 0272 27       		.uleb128 0x27
 7936 0273 19       		.uleb128 0x19
ARM GAS  C:\Users\louis\AppData\Local\Temp\ccj8Y2ua.s 			page 177


 7937 0274 8701     		.uleb128 0x87
 7938 0276 19       		.uleb128 0x19
 7939 0277 11       		.uleb128 0x11
 7940 0278 01       		.uleb128 0x1
 7941 0279 12       		.uleb128 0x12
 7942 027a 06       		.uleb128 0x6
 7943 027b 40       		.uleb128 0x40
 7944 027c 18       		.uleb128 0x18
 7945 027d 9642     		.uleb128 0x2116
 7946 027f 19       		.uleb128 0x19
 7947 0280 01       		.uleb128 0x1
 7948 0281 13       		.uleb128 0x13
 7949 0282 00       		.byte	0
 7950 0283 00       		.byte	0
 7951 0284 32       		.uleb128 0x32
 7952 0285 34       		.uleb128 0x34
 7953 0286 00       		.byte	0
 7954 0287 03       		.uleb128 0x3
 7955 0288 0E       		.uleb128 0xe
 7956 0289 3A       		.uleb128 0x3a
 7957 028a 0B       		.uleb128 0xb
 7958 028b 3B       		.uleb128 0x3b
 7959 028c 05       		.uleb128 0x5
 7960 028d 49       		.uleb128 0x49
 7961 028e 13       		.uleb128 0x13
 7962 028f 02       		.uleb128 0x2
 7963 0290 18       		.uleb128 0x18
 7964 0291 00       		.byte	0
 7965 0292 00       		.byte	0
 7966 0293 33       		.uleb128 0x33
 7967 0294 0B       		.uleb128 0xb
 7968 0295 01       		.byte	0x1
 7969 0296 11       		.uleb128 0x11
 7970 0297 01       		.uleb128 0x1
 7971 0298 12       		.uleb128 0x12
 7972 0299 06       		.uleb128 0x6
 7973 029a 01       		.uleb128 0x1
 7974 029b 13       		.uleb128 0x13
 7975 029c 00       		.byte	0
 7976 029d 00       		.byte	0
 7977 029e 34       		.uleb128 0x34
 7978 029f 1D       		.uleb128 0x1d
 7979 02a0 01       		.byte	0x1
 7980 02a1 31       		.uleb128 0x31
 7981 02a2 13       		.uleb128 0x13
 7982 02a3 11       		.uleb128 0x11
 7983 02a4 01       		.uleb128 0x1
 7984 02a5 12       		.uleb128 0x12
 7985 02a6 06       		.uleb128 0x6
 7986 02a7 58       		.uleb128 0x58
 7987 02a8 0B       		.uleb128 0xb
 7988 02a9 59       		.uleb128 0x59
 7989 02aa 05       		.uleb128 0x5
 7990 02ab 01       		.uleb128 0x1
 7991 02ac 13       		.uleb128 0x13
 7992 02ad 00       		.byte	0
 7993 02ae 00       		.byte	0
ARM GAS  C:\Users\louis\AppData\Local\Temp\ccj8Y2ua.s 			page 178


 7994 02af 35       		.uleb128 0x35
 7995 02b0 1D       		.uleb128 0x1d
 7996 02b1 01       		.byte	0x1
 7997 02b2 31       		.uleb128 0x31
 7998 02b3 13       		.uleb128 0x13
 7999 02b4 11       		.uleb128 0x11
 8000 02b5 01       		.uleb128 0x1
 8001 02b6 12       		.uleb128 0x12
 8002 02b7 06       		.uleb128 0x6
 8003 02b8 58       		.uleb128 0x58
 8004 02b9 0B       		.uleb128 0xb
 8005 02ba 59       		.uleb128 0x59
 8006 02bb 0B       		.uleb128 0xb
 8007 02bc 00       		.byte	0
 8008 02bd 00       		.byte	0
 8009 02be 36       		.uleb128 0x36
 8010 02bf 05       		.uleb128 0x5
 8011 02c0 00       		.byte	0
 8012 02c1 31       		.uleb128 0x31
 8013 02c2 13       		.uleb128 0x13
 8014 02c3 02       		.uleb128 0x2
 8015 02c4 17       		.uleb128 0x17
 8016 02c5 00       		.byte	0
 8017 02c6 00       		.byte	0
 8018 02c7 37       		.uleb128 0x37
 8019 02c8 2E       		.uleb128 0x2e
 8020 02c9 01       		.byte	0x1
 8021 02ca 3F       		.uleb128 0x3f
 8022 02cb 19       		.uleb128 0x19
 8023 02cc 03       		.uleb128 0x3
 8024 02cd 0E       		.uleb128 0xe
 8025 02ce 3A       		.uleb128 0x3a
 8026 02cf 0B       		.uleb128 0xb
 8027 02d0 3B       		.uleb128 0x3b
 8028 02d1 05       		.uleb128 0x5
 8029 02d2 27       		.uleb128 0x27
 8030 02d3 19       		.uleb128 0x19
 8031 02d4 11       		.uleb128 0x11
 8032 02d5 01       		.uleb128 0x1
 8033 02d6 12       		.uleb128 0x12
 8034 02d7 06       		.uleb128 0x6
 8035 02d8 40       		.uleb128 0x40
 8036 02d9 18       		.uleb128 0x18
 8037 02da 9742     		.uleb128 0x2117
 8038 02dc 19       		.uleb128 0x19
 8039 02dd 01       		.uleb128 0x1
 8040 02de 13       		.uleb128 0x13
 8041 02df 00       		.byte	0
 8042 02e0 00       		.byte	0
 8043 02e1 38       		.uleb128 0x38
 8044 02e2 34       		.uleb128 0x34
 8045 02e3 00       		.byte	0
 8046 02e4 03       		.uleb128 0x3
 8047 02e5 08       		.uleb128 0x8
 8048 02e6 3A       		.uleb128 0x3a
 8049 02e7 0B       		.uleb128 0xb
 8050 02e8 3B       		.uleb128 0x3b
ARM GAS  C:\Users\louis\AppData\Local\Temp\ccj8Y2ua.s 			page 179


 8051 02e9 05       		.uleb128 0x5
 8052 02ea 49       		.uleb128 0x49
 8053 02eb 13       		.uleb128 0x13
 8054 02ec 00       		.byte	0
 8055 02ed 00       		.byte	0
 8056 02ee 39       		.uleb128 0x39
 8057 02ef 34       		.uleb128 0x34
 8058 02f0 00       		.byte	0
 8059 02f1 03       		.uleb128 0x3
 8060 02f2 08       		.uleb128 0x8
 8061 02f3 3A       		.uleb128 0x3a
 8062 02f4 0B       		.uleb128 0xb
 8063 02f5 3B       		.uleb128 0x3b
 8064 02f6 05       		.uleb128 0x5
 8065 02f7 49       		.uleb128 0x49
 8066 02f8 13       		.uleb128 0x13
 8067 02f9 02       		.uleb128 0x2
 8068 02fa 17       		.uleb128 0x17
 8069 02fb 00       		.byte	0
 8070 02fc 00       		.byte	0
 8071 02fd 3A       		.uleb128 0x3a
 8072 02fe 1D       		.uleb128 0x1d
 8073 02ff 00       		.byte	0
 8074 0300 31       		.uleb128 0x31
 8075 0301 13       		.uleb128 0x13
 8076 0302 11       		.uleb128 0x11
 8077 0303 01       		.uleb128 0x1
 8078 0304 12       		.uleb128 0x12
 8079 0305 06       		.uleb128 0x6
 8080 0306 58       		.uleb128 0x58
 8081 0307 0B       		.uleb128 0xb
 8082 0308 59       		.uleb128 0x59
 8083 0309 05       		.uleb128 0x5
 8084 030a 00       		.byte	0
 8085 030b 00       		.byte	0
 8086 030c 3B       		.uleb128 0x3b
 8087 030d 2E       		.uleb128 0x2e
 8088 030e 01       		.byte	0x1
 8089 030f 3F       		.uleb128 0x3f
 8090 0310 19       		.uleb128 0x19
 8091 0311 03       		.uleb128 0x3
 8092 0312 0E       		.uleb128 0xe
 8093 0313 3A       		.uleb128 0x3a
 8094 0314 0B       		.uleb128 0xb
 8095 0315 3B       		.uleb128 0x3b
 8096 0316 05       		.uleb128 0x5
 8097 0317 27       		.uleb128 0x27
 8098 0318 19       		.uleb128 0x19
 8099 0319 49       		.uleb128 0x49
 8100 031a 13       		.uleb128 0x13
 8101 031b 8701     		.uleb128 0x87
 8102 031d 19       		.uleb128 0x19
 8103 031e 11       		.uleb128 0x11
 8104 031f 01       		.uleb128 0x1
 8105 0320 12       		.uleb128 0x12
 8106 0321 06       		.uleb128 0x6
 8107 0322 40       		.uleb128 0x40
ARM GAS  C:\Users\louis\AppData\Local\Temp\ccj8Y2ua.s 			page 180


 8108 0323 18       		.uleb128 0x18
 8109 0324 9642     		.uleb128 0x2116
 8110 0326 19       		.uleb128 0x19
 8111 0327 01       		.uleb128 0x1
 8112 0328 13       		.uleb128 0x13
 8113 0329 00       		.byte	0
 8114 032a 00       		.byte	0
 8115 032b 3C       		.uleb128 0x3c
 8116 032c 34       		.uleb128 0x34
 8117 032d 00       		.byte	0
 8118 032e 03       		.uleb128 0x3
 8119 032f 0E       		.uleb128 0xe
 8120 0330 3A       		.uleb128 0x3a
 8121 0331 0B       		.uleb128 0xb
 8122 0332 3B       		.uleb128 0x3b
 8123 0333 05       		.uleb128 0x5
 8124 0334 49       		.uleb128 0x49
 8125 0335 13       		.uleb128 0x13
 8126 0336 00       		.byte	0
 8127 0337 00       		.byte	0
 8128 0338 3D       		.uleb128 0x3d
 8129 0339 34       		.uleb128 0x34
 8130 033a 00       		.byte	0
 8131 033b 03       		.uleb128 0x3
 8132 033c 0E       		.uleb128 0xe
 8133 033d 3A       		.uleb128 0x3a
 8134 033e 0B       		.uleb128 0xb
 8135 033f 3B       		.uleb128 0x3b
 8136 0340 05       		.uleb128 0x5
 8137 0341 49       		.uleb128 0x49
 8138 0342 13       		.uleb128 0x13
 8139 0343 3F       		.uleb128 0x3f
 8140 0344 19       		.uleb128 0x19
 8141 0345 3C       		.uleb128 0x3c
 8142 0346 19       		.uleb128 0x19
 8143 0347 00       		.byte	0
 8144 0348 00       		.byte	0
 8145 0349 3E       		.uleb128 0x3e
 8146 034a 34       		.uleb128 0x34
 8147 034b 00       		.byte	0
 8148 034c 03       		.uleb128 0x3
 8149 034d 0E       		.uleb128 0xe
 8150 034e 3A       		.uleb128 0x3a
 8151 034f 0B       		.uleb128 0xb
 8152 0350 3B       		.uleb128 0x3b
 8153 0351 0B       		.uleb128 0xb
 8154 0352 49       		.uleb128 0x49
 8155 0353 13       		.uleb128 0x13
 8156 0354 3F       		.uleb128 0x3f
 8157 0355 19       		.uleb128 0x19
 8158 0356 3C       		.uleb128 0x3c
 8159 0357 19       		.uleb128 0x19
 8160 0358 00       		.byte	0
 8161 0359 00       		.byte	0
 8162 035a 3F       		.uleb128 0x3f
 8163 035b 34       		.uleb128 0x34
 8164 035c 00       		.byte	0
ARM GAS  C:\Users\louis\AppData\Local\Temp\ccj8Y2ua.s 			page 181


 8165 035d 03       		.uleb128 0x3
 8166 035e 0E       		.uleb128 0xe
 8167 035f 3A       		.uleb128 0x3a
 8168 0360 0B       		.uleb128 0xb
 8169 0361 3B       		.uleb128 0x3b
 8170 0362 0B       		.uleb128 0xb
 8171 0363 49       		.uleb128 0x49
 8172 0364 13       		.uleb128 0x13
 8173 0365 3F       		.uleb128 0x3f
 8174 0366 19       		.uleb128 0x19
 8175 0367 02       		.uleb128 0x2
 8176 0368 18       		.uleb128 0x18
 8177 0369 00       		.byte	0
 8178 036a 00       		.byte	0
 8179 036b 40       		.uleb128 0x40
 8180 036c 2E       		.uleb128 0x2e
 8181 036d 00       		.byte	0
 8182 036e 3F       		.uleb128 0x3f
 8183 036f 19       		.uleb128 0x19
 8184 0370 3C       		.uleb128 0x3c
 8185 0371 19       		.uleb128 0x19
 8186 0372 6E       		.uleb128 0x6e
 8187 0373 0E       		.uleb128 0xe
 8188 0374 03       		.uleb128 0x3
 8189 0375 0E       		.uleb128 0xe
 8190 0376 3A       		.uleb128 0x3a
 8191 0377 0B       		.uleb128 0xb
 8192 0378 3B       		.uleb128 0x3b
 8193 0379 0B       		.uleb128 0xb
 8194 037a 00       		.byte	0
 8195 037b 00       		.byte	0
 8196 037c 41       		.uleb128 0x41
 8197 037d 2E       		.uleb128 0x2e
 8198 037e 00       		.byte	0
 8199 037f 3F       		.uleb128 0x3f
 8200 0380 19       		.uleb128 0x19
 8201 0381 3C       		.uleb128 0x3c
 8202 0382 19       		.uleb128 0x19
 8203 0383 6E       		.uleb128 0x6e
 8204 0384 0E       		.uleb128 0xe
 8205 0385 03       		.uleb128 0x3
 8206 0386 0E       		.uleb128 0xe
 8207 0387 00       		.byte	0
 8208 0388 00       		.byte	0
 8209 0389 42       		.uleb128 0x42
 8210 038a 2E       		.uleb128 0x2e
 8211 038b 00       		.byte	0
 8212 038c 3F       		.uleb128 0x3f
 8213 038d 19       		.uleb128 0x19
 8214 038e 3C       		.uleb128 0x3c
 8215 038f 19       		.uleb128 0x19
 8216 0390 6E       		.uleb128 0x6e
 8217 0391 0E       		.uleb128 0xe
 8218 0392 03       		.uleb128 0x3
 8219 0393 0E       		.uleb128 0xe
 8220 0394 3A       		.uleb128 0x3a
 8221 0395 0B       		.uleb128 0xb
ARM GAS  C:\Users\louis\AppData\Local\Temp\ccj8Y2ua.s 			page 182


 8222 0396 3B       		.uleb128 0x3b
 8223 0397 05       		.uleb128 0x5
 8224 0398 00       		.byte	0
 8225 0399 00       		.byte	0
 8226 039a 43       		.uleb128 0x43
 8227 039b 2E       		.uleb128 0x2e
 8228 039c 00       		.byte	0
 8229 039d 3F       		.uleb128 0x3f
 8230 039e 19       		.uleb128 0x19
 8231 039f 3C       		.uleb128 0x3c
 8232 03a0 19       		.uleb128 0x19
 8233 03a1 6E       		.uleb128 0x6e
 8234 03a2 0E       		.uleb128 0xe
 8235 03a3 03       		.uleb128 0x3
 8236 03a4 0E       		.uleb128 0xe
 8237 03a5 3A       		.uleb128 0x3a
 8238 03a6 0B       		.uleb128 0xb
 8239 03a7 3B       		.uleb128 0x3b
 8240 03a8 0B       		.uleb128 0xb
 8241 03a9 6E       		.uleb128 0x6e
 8242 03aa 0E       		.uleb128 0xe
 8243 03ab 00       		.byte	0
 8244 03ac 00       		.byte	0
 8245 03ad 00       		.byte	0
 8246              		.section	.debug_loc,"",%progbits
 8247              	.Ldebug_loc0:
 8248              	.LLST0:
 8249 0000 00000000 		.4byte	.LVL0
 8250 0004 09000000 		.4byte	.LVL1-1
 8251 0008 0100     		.2byte	0x1
 8252 000a 50       		.byte	0x50
 8253 000b 09000000 		.4byte	.LVL1-1
 8254 000f 2C000000 		.4byte	.LFE681
 8255 0013 0400     		.2byte	0x4
 8256 0015 F3       		.byte	0xf3
 8257 0016 01       		.uleb128 0x1
 8258 0017 50       		.byte	0x50
 8259 0018 9F       		.byte	0x9f
 8260 0019 00000000 		.4byte	0
 8261 001d 00000000 		.4byte	0
 8262              	.LLST1:
 8263 0021 00000000 		.4byte	.LVL0
 8264 0025 09000000 		.4byte	.LVL1-1
 8265 0029 0100     		.2byte	0x1
 8266 002b 51       		.byte	0x51
 8267 002c 09000000 		.4byte	.LVL1-1
 8268 0030 2C000000 		.4byte	.LFE681
 8269 0034 0400     		.2byte	0x4
 8270 0036 F3       		.byte	0xf3
 8271 0037 01       		.uleb128 0x1
 8272 0038 51       		.byte	0x51
 8273 0039 9F       		.byte	0x9f
 8274 003a 00000000 		.4byte	0
 8275 003e 00000000 		.4byte	0
 8276              	.LLST2:
 8277 0042 0C000000 		.4byte	.LVL2
 8278 0046 16000000 		.4byte	.LVL3
ARM GAS  C:\Users\louis\AppData\Local\Temp\ccj8Y2ua.s 			page 183


 8279 004a 0100     		.2byte	0x1
 8280 004c 50       		.byte	0x50
 8281 004d 16000000 		.4byte	.LVL3
 8282 0051 19000000 		.4byte	.LVL4-1
 8283 0055 0100     		.2byte	0x1
 8284 0057 51       		.byte	0x51
 8285 0058 19000000 		.4byte	.LVL4-1
 8286 005c 28000000 		.4byte	.LVL6
 8287 0060 0100     		.2byte	0x1
 8288 0062 55       		.byte	0x55
 8289 0063 00000000 		.4byte	0
 8290 0067 00000000 		.4byte	0
 8291              	.LLST3:
 8292 006b 3E000000 		.4byte	.LVL15
 8293 006f 44000000 		.4byte	.LVL16
 8294 0073 0100     		.2byte	0x1
 8295 0075 50       		.byte	0x50
 8296 0076 44000000 		.4byte	.LVL16
 8297 007a 74010000 		.4byte	.LFE686
 8298 007e 0200     		.2byte	0x2
 8299 0080 90       		.byte	0x90
 8300 0081 51       		.uleb128 0x51
 8301 0082 00000000 		.4byte	0
 8302 0086 00000000 		.4byte	0
 8303              	.LLST4:
 8304 008a 4C000000 		.4byte	.LVL18
 8305 008e 50000000 		.4byte	.LVL19
 8306 0092 0100     		.2byte	0x1
 8307 0094 50       		.byte	0x50
 8308 0095 50000000 		.4byte	.LVL19
 8309 0099 44010000 		.4byte	.LVL49
 8310 009d 0200     		.2byte	0x2
 8311 009f 90       		.byte	0x90
 8312 00a0 50       		.uleb128 0x50
 8313 00a1 00000000 		.4byte	0
 8314 00a5 00000000 		.4byte	0
 8315              	.LLST5:
 8316 00a9 30000000 		.4byte	.LVL13
 8317 00ad 90000000 		.4byte	.LVL28
 8318 00b1 0100     		.2byte	0x1
 8319 00b3 56       		.byte	0x56
 8320 00b4 00000000 		.4byte	0
 8321 00b8 00000000 		.4byte	0
 8322              	.LLST6:
 8323 00bc 26000000 		.4byte	.LVL11
 8324 00c0 78000000 		.4byte	.LVL25
 8325 00c4 0100     		.2byte	0x1
 8326 00c6 55       		.byte	0x55
 8327 00c7 00000000 		.4byte	0
 8328 00cb 00000000 		.4byte	0
 8329              	.LLST7:
 8330 00cf 54000000 		.4byte	.LVL20
 8331 00d3 57000000 		.4byte	.LVL21-1
 8332 00d7 0100     		.2byte	0x1
 8333 00d9 50       		.byte	0x50
 8334 00da 00000000 		.4byte	0
 8335 00de 00000000 		.4byte	0
ARM GAS  C:\Users\louis\AppData\Local\Temp\ccj8Y2ua.s 			page 184


 8336              	.LLST8:
 8337 00e2 60000000 		.4byte	.LVL22
 8338 00e6 6C000000 		.4byte	.LVL23
 8339 00ea 0C00     		.2byte	0xc
 8340 00ec F5       		.byte	0xf5
 8341 00ed 4E       		.uleb128 0x4e
 8342 00ee 25       		.uleb128 0x25
 8343 00ef F4       		.byte	0xf4
 8344 00f0 25       		.uleb128 0x25
 8345 00f1 04       		.byte	0x4
 8346 00f2 0000C842 		.4byte	0x42c80000
 8347 00f6 1B       		.byte	0x1b
 8348 00f7 9F       		.byte	0x9f
 8349 00f8 6C000000 		.4byte	.LVL23
 8350 00fc 73000000 		.4byte	.LVL24-1
 8351 0100 0200     		.2byte	0x2
 8352 0102 90       		.byte	0x90
 8353 0103 4D       		.uleb128 0x4d
 8354 0104 00000000 		.4byte	0
 8355 0108 00000000 		.4byte	0
 8356              	.LLST9:
 8357 010c 32000000 		.4byte	.LVL55
 8358 0110 38000000 		.4byte	.LVL56
 8359 0114 0700     		.2byte	0x7
 8360 0116 70       		.byte	0x70
 8361 0117 00       		.sleb128 0
 8362 0118 F7       		.byte	0xf7
 8363 0119 33       		.uleb128 0x33
 8364 011a F7       		.byte	0xf7
 8365 011b 25       		.uleb128 0x25
 8366 011c 9F       		.byte	0x9f
 8367 011d 00000000 		.4byte	0
 8368 0121 00000000 		.4byte	0
 8369              	.LLST10:
 8370 0125 3C000000 		.4byte	.LVL57
 8371 0129 3F000000 		.4byte	.LVL58-1
 8372 012d 0100     		.2byte	0x1
 8373 012f 50       		.byte	0x50
 8374 0130 00000000 		.4byte	0
 8375 0134 00000000 		.4byte	0
 8376              	.LLST11:
 8377 0138 F8000000 		.4byte	.LVL81
 8378 013c FE000000 		.4byte	.LVL82
 8379 0140 0300     		.2byte	0x3
 8380 0142 08       		.byte	0x8
 8381 0143 40       		.byte	0x40
 8382 0144 9F       		.byte	0x9f
 8383 0145 00000000 		.4byte	0
 8384 0149 00000000 		.4byte	0
 8385              	.LLST12:
 8386 014d F8000000 		.4byte	.LVL81
 8387 0151 FE000000 		.4byte	.LVL82
 8388 0155 0600     		.2byte	0x6
 8389 0157 0C       		.byte	0xc
 8390 0158 00003840 		.4byte	0x40380000
 8391 015c 9F       		.byte	0x9f
 8392 015d 00000000 		.4byte	0
ARM GAS  C:\Users\louis\AppData\Local\Temp\ccj8Y2ua.s 			page 185


 8393 0161 00000000 		.4byte	0
 8394              	.LLST13:
 8395 0165 00010000 		.4byte	.LVL83
 8396 0169 06010000 		.4byte	.LVL84
 8397 016d 0300     		.2byte	0x3
 8398 016f 08       		.byte	0x8
 8399 0170 40       		.byte	0x40
 8400 0171 9F       		.byte	0x9f
 8401 0172 00000000 		.4byte	0
 8402 0176 00000000 		.4byte	0
 8403              	.LLST14:
 8404 017a 00010000 		.4byte	.LVL83
 8405 017e 06010000 		.4byte	.LVL84
 8406 0182 0600     		.2byte	0x6
 8407 0184 0C       		.byte	0xc
 8408 0185 00003840 		.4byte	0x40380000
 8409 0189 9F       		.byte	0x9f
 8410 018a 00000000 		.4byte	0
 8411 018e 00000000 		.4byte	0
 8412              	.LLST15:
 8413 0192 42000000 		.4byte	.LVL94
 8414 0196 46000000 		.4byte	.LVL95
 8415 019a 0300     		.2byte	0x3
 8416 019c 08       		.byte	0x8
 8417 019d 78       		.byte	0x78
 8418 019e 9F       		.byte	0x9f
 8419 019f 46000000 		.4byte	.LVL95
 8420 01a3 DC000000 		.4byte	.LVL116
 8421 01a7 0100     		.2byte	0x1
 8422 01a9 54       		.byte	0x54
 8423 01aa 00000000 		.4byte	0
 8424 01ae 00000000 		.4byte	0
 8425              	.LLST16:
 8426 01b2 30010000 		.4byte	.LVL127
 8427 01b6 34010000 		.4byte	.LVL128
 8428 01ba 0200     		.2byte	0x2
 8429 01bc 30       		.byte	0x30
 8430 01bd 9F       		.byte	0x9f
 8431 01be 34010000 		.4byte	.LVL128
 8432 01c2 54010000 		.4byte	.LVL134
 8433 01c6 0100     		.2byte	0x1
 8434 01c8 54       		.byte	0x54
 8435 01c9 00000000 		.4byte	0
 8436 01cd 00000000 		.4byte	0
 8437              	.LLST17:
 8438 01d1 3E010000 		.4byte	.LVL130
 8439 01d5 44010000 		.4byte	.LVL131
 8440 01d9 0300     		.2byte	0x3
 8441 01db 08       		.byte	0x8
 8442 01dc 40       		.byte	0x40
 8443 01dd 9F       		.byte	0x9f
 8444 01de 00000000 		.4byte	0
 8445 01e2 00000000 		.4byte	0
 8446              	.LLST18:
 8447 01e6 3E010000 		.4byte	.LVL130
 8448 01ea 44010000 		.4byte	.LVL131
 8449 01ee 0600     		.2byte	0x6
ARM GAS  C:\Users\louis\AppData\Local\Temp\ccj8Y2ua.s 			page 186


 8450 01f0 0C       		.byte	0xc
 8451 01f1 00003840 		.4byte	0x40380000
 8452 01f5 9F       		.byte	0x9f
 8453 01f6 00000000 		.4byte	0
 8454 01fa 00000000 		.4byte	0
 8455              	.LLST19:
 8456 01fe 4C000000 		.4byte	.LVL141
 8457 0202 6E000000 		.4byte	.LVL146
 8458 0206 0100     		.2byte	0x1
 8459 0208 54       		.byte	0x54
 8460 0209 00000000 		.4byte	0
 8461 020d 00000000 		.4byte	0
 8462              	.LLST20:
 8463 0211 02000000 		.4byte	.LVL183
 8464 0215 7C000000 		.4byte	.LVL204
 8465 0219 0200     		.2byte	0x2
 8466 021b 30       		.byte	0x30
 8467 021c 9F       		.byte	0x9f
 8468 021d 7C000000 		.4byte	.LVL204
 8469 0221 92000000 		.4byte	.LVL209
 8470 0225 0100     		.2byte	0x1
 8471 0227 54       		.byte	0x54
 8472 0228 96000000 		.4byte	.LVL210
 8473 022c A4000000 		.4byte	.LFE690
 8474 0230 0100     		.2byte	0x1
 8475 0232 54       		.byte	0x54
 8476 0233 00000000 		.4byte	0
 8477 0237 00000000 		.4byte	0
 8478              	.LLST21:
 8479 023b 3A000000 		.4byte	.LVL193
 8480 023f 7C000000 		.4byte	.LVL204
 8481 0243 0100     		.2byte	0x1
 8482 0245 56       		.byte	0x56
 8483 0246 00000000 		.4byte	0
 8484 024a 00000000 		.4byte	0
 8485              	.LLST22:
 8486 024e 30000000 		.4byte	.LVL191
 8487 0252 7C000000 		.4byte	.LVL204
 8488 0256 0100     		.2byte	0x1
 8489 0258 55       		.byte	0x55
 8490 0259 00000000 		.4byte	0
 8491 025d 00000000 		.4byte	0
 8492              	.LLST23:
 8493 0261 56000000 		.4byte	.LVL196
 8494 0265 59000000 		.4byte	.LVL197-1
 8495 0269 0100     		.2byte	0x1
 8496 026b 50       		.byte	0x50
 8497 026c 00000000 		.4byte	0
 8498 0270 00000000 		.4byte	0
 8499              	.LLST24:
 8500 0274 7C000000 		.4byte	.LVL204
 8501 0278 82000000 		.4byte	.LVL205
 8502 027c 0200     		.2byte	0x2
 8503 027e 30       		.byte	0x30
 8504 027f 9F       		.byte	0x9f
 8505 0280 00000000 		.4byte	0
 8506 0284 00000000 		.4byte	0
ARM GAS  C:\Users\louis\AppData\Local\Temp\ccj8Y2ua.s 			page 187


 8507              	.LLST25:
 8508 0288 7C000000 		.4byte	.LVL204
 8509 028c 82000000 		.4byte	.LVL205
 8510 0290 0200     		.2byte	0x2
 8511 0292 31       		.byte	0x31
 8512 0293 9F       		.byte	0x9f
 8513 0294 00000000 		.4byte	0
 8514 0298 00000000 		.4byte	0
 8515              	.LLST26:
 8516 029c 7C000000 		.4byte	.LVL204
 8517 02a0 82000000 		.4byte	.LVL205
 8518 02a4 0600     		.2byte	0x6
 8519 02a6 0C       		.byte	0xc
 8520 02a7 80003240 		.4byte	0x40320080
 8521 02ab 9F       		.byte	0x9f
 8522 02ac 00000000 		.4byte	0
 8523 02b0 00000000 		.4byte	0
 8524              	.LLST27:
 8525 02b4 8A000000 		.4byte	.LVL206
 8526 02b8 8C000000 		.4byte	.LVL207
 8527 02bc 0200     		.2byte	0x2
 8528 02be 31       		.byte	0x31
 8529 02bf 9F       		.byte	0x9f
 8530 02c0 00000000 		.4byte	0
 8531 02c4 00000000 		.4byte	0
 8532              	.LLST29:
 8533 02c8 8A000000 		.4byte	.LVL206
 8534 02cc 8C000000 		.4byte	.LVL207
 8535 02d0 0600     		.2byte	0x6
 8536 02d2 0C       		.byte	0xc
 8537 02d3 80003240 		.4byte	0x40320080
 8538 02d7 9F       		.byte	0x9f
 8539 02d8 00000000 		.4byte	0
 8540 02dc 00000000 		.4byte	0
 8541              		.section	.debug_aranges,"",%progbits
 8542 0000 64000000 		.4byte	0x64
 8543 0004 0200     		.2byte	0x2
 8544 0006 00000000 		.4byte	.Ldebug_info0
 8545 000a 04       		.byte	0x4
 8546 000b 00       		.byte	0
 8547 000c 0000     		.2byte	0
 8548 000e 0000     		.2byte	0
 8549 0010 00000000 		.4byte	.LFB681
 8550 0014 2C000000 		.4byte	.LFE681-.LFB681
 8551 0018 00000000 		.4byte	.LFB686
 8552 001c 74010000 		.4byte	.LFE686-.LFB686
 8553 0020 00000000 		.4byte	.LFB687
 8554 0024 40010000 		.4byte	.LFE687-.LFB687
 8555 0028 00000000 		.4byte	.LFB688
 8556 002c 74010000 		.4byte	.LFE688-.LFB688
 8557 0030 00000000 		.4byte	.LFB689
 8558 0034 C8000000 		.4byte	.LFE689-.LFB689
 8559 0038 00000000 		.4byte	.LFB682
 8560 003c 60000000 		.4byte	.LFE682-.LFB682
 8561 0040 00000000 		.4byte	.LFB683
 8562 0044 6C000000 		.4byte	.LFE683-.LFB683
 8563 0048 00000000 		.4byte	.LFB684
ARM GAS  C:\Users\louis\AppData\Local\Temp\ccj8Y2ua.s 			page 188


 8564 004c 1E000000 		.4byte	.LFE684-.LFB684
 8565 0050 00000000 		.4byte	.LFB685
 8566 0054 14000000 		.4byte	.LFE685-.LFB685
 8567 0058 00000000 		.4byte	.LFB690
 8568 005c A4000000 		.4byte	.LFE690-.LFB690
 8569 0060 00000000 		.4byte	0
 8570 0064 00000000 		.4byte	0
 8571              		.section	.debug_ranges,"",%progbits
 8572              	.Ldebug_ranges0:
 8573 0000 00000000 		.4byte	.LFB681
 8574 0004 2C000000 		.4byte	.LFE681
 8575 0008 00000000 		.4byte	.LFB686
 8576 000c 74010000 		.4byte	.LFE686
 8577 0010 00000000 		.4byte	.LFB687
 8578 0014 40010000 		.4byte	.LFE687
 8579 0018 00000000 		.4byte	.LFB688
 8580 001c 74010000 		.4byte	.LFE688
 8581 0020 00000000 		.4byte	.LFB689
 8582 0024 C8000000 		.4byte	.LFE689
 8583 0028 00000000 		.4byte	.LFB682
 8584 002c 60000000 		.4byte	.LFE682
 8585 0030 00000000 		.4byte	.LFB683
 8586 0034 6C000000 		.4byte	.LFE683
 8587 0038 00000000 		.4byte	.LFB684
 8588 003c 1E000000 		.4byte	.LFE684
 8589 0040 00000000 		.4byte	.LFB685
 8590 0044 14000000 		.4byte	.LFE685
 8591 0048 00000000 		.4byte	.LFB690
 8592 004c A4000000 		.4byte	.LFE690
 8593 0050 00000000 		.4byte	0
 8594 0054 00000000 		.4byte	0
 8595              		.section	.debug_line,"",%progbits
 8596              	.Ldebug_line0:
 8597 0000 61070000 		.section	.debug_str,"MS",%progbits,1
 8597      02008505 
 8597      00000201 
 8597      FB0E0D00 
 8597      01010101 
 8598              	.LASF89:
 8599 0000 52414E47 		.ascii	"RANGE_INTR_MASKED\000"
 8599      455F494E 
 8599      54525F4D 
 8599      41534B45 
 8599      4400
 8600              	.LASF33:
 8601 0012 52455345 		.ascii	"RESERVED\000"
 8601      52564544 
 8601      00
 8602              	.LASF37:
 8603 001b 494E5452 		.ascii	"INTR_CAUSE0\000"
 8603      5F434155 
 8603      53453000 
 8604              	.LASF38:
 8605 0027 494E5452 		.ascii	"INTR_CAUSE1\000"
 8605      5F434155 
 8605      53453100 
 8606              	.LASF39:
ARM GAS  C:\Users\louis\AppData\Local\Temp\ccj8Y2ua.s 			page 189


 8607 0033 494E5452 		.ascii	"INTR_CAUSE2\000"
 8607      5F434155 
 8607      53453200 
 8608              	.LASF227:
 8609 003f 63795F63 		.ascii	"cy_cb_scb_spi_handle_events_t\000"
 8609      625F7363 
 8609      625F7370 
 8609      695F6861 
 8609      6E646C65 
 8610              	.LASF352:
 8611 005d 74475549 		.ascii	"tGUI_ENC_APIList\000"
 8611      5F454E43 
 8611      5F415049 
 8611      4C697374 
 8611      00
 8612              	.LASF313:
 8613 006e 4755495F 		.ascii	"GUI_BITMAP_METHODS\000"
 8613      4249544D 
 8613      41505F4D 
 8613      4554484F 
 8613      445300
 8614              	.LASF59:
 8615 0081 434D445F 		.ascii	"CMD_CAPTURE\000"
 8615      43415054 
 8615      55524500 
 8616              	.LASF197:
 8617 008d 6970634C 		.ascii	"ipcLockStatusOffset\000"
 8617      6F636B53 
 8617      74617475 
 8617      734F6666 
 8617      73657400 
 8618              	.LASF451:
 8619 00a1 6D61696E 		.ascii	"main_cm4.c\000"
 8619      5F636D34 
 8619      2E6300
 8620              	.LASF408:
 8621 00ac 63795F64 		.ascii	"cy_device\000"
 8621      65766963 
 8621      6500
 8622              	.LASF395:
 8623 00b6 72656164 		.ascii	"reading\000"
 8623      696E6700 
 8624              	.LASF2:
 8625 00be 73686F72 		.ascii	"short int\000"
 8625      7420696E 
 8625      7400
 8626              	.LASF182:
 8627 00c8 63707573 		.ascii	"cpussCm0ClockCtlOffset\000"
 8627      73436D30 
 8627      436C6F63 
 8627      6B43746C 
 8627      4F666673 
 8628              	.LASF141:
 8629 00df 70657269 		.ascii	"periClockNr\000"
 8629      436C6F63 
 8629      6B4E7200 
 8630              	.LASF409:
ARM GAS  C:\Users\louis\AppData\Local\Temp\ccj8Y2ua.s 			page 190


 8631 00eb 43595F45 		.ascii	"CY_EINK_SPIM_context\000"
 8631      494E4B5F 
 8631      5350494D 
 8631      5F636F6E 
 8631      74657874 
 8632              	.LASF394:
 8633 0100 74656D70 		.ascii	"temperature\000"
 8633      65726174 
 8633      75726500 
 8634              	.LASF330:
 8635 010c 59506F73 		.ascii	"YPos\000"
 8635      00
 8636              	.LASF70:
 8637 0111 4348414E 		.ascii	"CHAN_EN\000"
 8637      5F454E00 
 8638              	.LASF241:
 8639 0119 74785374 		.ascii	"txStatus\000"
 8639      61747573 
 8639      00
 8640              	.LASF114:
 8641 0122 70657269 		.ascii	"periBase\000"
 8641      42617365 
 8641      00
 8642              	.LASF355:
 8643 012b 70664765 		.ascii	"pfGetCharDistX\000"
 8643      74436861 
 8643      72446973 
 8643      745800
 8644              	.LASF405:
 8645 013a 57616974 		.ascii	"WaitforSwitchPressAndRelease\000"
 8645      666F7253 
 8645      77697463 
 8645      68507265 
 8645      7373416E 
 8646              	.LASF215:
 8647 0157 72616E67 		.ascii	"rangeThres\000"
 8647      65546872 
 8647      657300
 8648              	.LASF113:
 8649 0162 666C6173 		.ascii	"flashcBase\000"
 8649      68634261 
 8649      736500
 8650              	.LASF190:
 8651 016d 63707573 		.ascii	"cpussCm0NmiCtlOffset\000"
 8651      73436D30 
 8651      4E6D6943 
 8651      746C4F66 
 8651      66736574 
 8652              	.LASF160:
 8653 0182 64774368 		.ascii	"dwChSize\000"
 8653      53697A65 
 8653      00
 8654              	.LASF78:
 8655 018b 4348414E 		.ascii	"CHAN_WORK_UPDATED\000"
 8655      5F574F52 
 8655      4B5F5550 
 8655      44415445 
ARM GAS  C:\Users\louis\AppData\Local\Temp\ccj8Y2ua.s 			page 191


 8655      4400
 8656              	.LASF435:
 8657 019d 4755495F 		.ascii	"GUI_SetBkColor\000"
 8657      53657442 
 8657      6B436F6C 
 8657      6F7200
 8658              	.LASF53:
 8659 01ac 54525F43 		.ascii	"TR_CTRL0\000"
 8659      54524C30 
 8659      00
 8660              	.LASF88:
 8661 01b5 52414E47 		.ascii	"RANGE_INTR_MASK\000"
 8661      455F494E 
 8661      54525F4D 
 8661      41534B00 
 8662              	.LASF420:
 8663 01c5 696D6167 		.ascii	"imageBufferCache\000"
 8663      65427566 
 8663      66657243 
 8663      61636865 
 8663      00
 8664              	.LASF325:
 8665 01d6 704C6973 		.ascii	"pList\000"
 8665      7400
 8666              	.LASF15:
 8667 01dc 756E7369 		.ascii	"unsigned int\000"
 8667      676E6564 
 8667      20696E74 
 8667      00
 8668              	.LASF60:
 8669 01e9 434D445F 		.ascii	"CMD_RELOAD\000"
 8669      52454C4F 
 8669      414400
 8670              	.LASF387:
 8671 01f4 706F7765 		.ascii	"powerCycle\000"
 8671      72437963 
 8671      6C6500
 8672              	.LASF63:
 8673 01ff 494E5452 		.ascii	"INTR_CAUSE\000"
 8673      5F434155 
 8673      534500
 8674              	.LASF142:
 8675 020a 736D6966 		.ascii	"smifDeviceNr\000"
 8675      44657669 
 8675      63654E72 
 8675      00
 8676              	.LASF209:
 8677 0217 43595F53 		.ascii	"CY_SAR_RANGE_COND_OUTSIDE\000"
 8677      41525F52 
 8677      414E4745 
 8677      5F434F4E 
 8677      445F4F55 
 8678              	.LASF172:
 8679 0231 70657269 		.ascii	"periDivCmdPaTypeSelPos\000"
 8679      44697643 
 8679      6D645061 
 8679      54797065 
ARM GAS  C:\Users\louis\AppData\Local\Temp\ccj8Y2ua.s 			page 192


 8679      53656C50 
 8680              	.LASF161:
 8681 0248 64774368 		.ascii	"dwChCtlPrioPos\000"
 8681      43746C50 
 8681      72696F50 
 8681      6F7300
 8682              	.LASF264:
 8683 0257 73746172 		.ascii	"startInput\000"
 8683      74496E70 
 8683      757400
 8684              	.LASF9:
 8685 0262 5F5F696E 		.ascii	"__int32_t\000"
 8685      7433325F 
 8685      7400
 8686              	.LASF248:
 8687 026c 63795F73 		.ascii	"cy_stc_scb_uart_context_t\000"
 8687      74635F73 
 8687      63625F75 
 8687      6172745F 
 8687      636F6E74 
 8688              	.LASF80:
 8689 0286 4348414E 		.ascii	"CHAN_WORK_NEWVALUE\000"
 8689      5F574F52 
 8689      4B5F4E45 
 8689      5756414C 
 8689      554500
 8690              	.LASF112:
 8691 0299 63707573 		.ascii	"cpussBase\000"
 8691      73426173 
 8691      6500
 8692              	.LASF285:
 8693 02a3 6368616E 		.ascii	"channelBase\000"
 8693      6E656C42 
 8693      61736500 
 8694              	.LASF368:
 8695 02af 70466F6E 		.ascii	"pFontData\000"
 8695      74446174 
 8695      6100
 8696              	.LASF19:
 8697 02b9 696E7433 		.ascii	"int32_t\000"
 8697      325F7400 
 8698              	.LASF136:
 8699 02c1 63707573 		.ascii	"cpussFmIrq\000"
 8699      73466D49 
 8699      727100
 8700              	.LASF287:
 8701 02cc 6877436F 		.ascii	"hwConfigStc\000"
 8701      6E666967 
 8701      53746300 
 8702              	.LASF206:
 8703 02d8 43595F53 		.ascii	"CY_SAR_RANGE_COND_BELOW\000"
 8703      41525F52 
 8703      414E4745 
 8703      5F434F4E 
 8703      445F4245 
 8704              	.LASF137:
 8705 02f0 63707573 		.ascii	"cpussNotConnectedIrq\000"
ARM GAS  C:\Users\louis\AppData\Local\Temp\ccj8Y2ua.s 			page 193


 8705      734E6F74 
 8705      436F6E6E 
 8705      65637465 
 8705      64497271 
 8706              	.LASF305:
 8707 0305 7066436F 		.ascii	"pfColor2IndexBulk\000"
 8707      6C6F7232 
 8707      496E6465 
 8707      7842756C 
 8707      6B00
 8708              	.LASF266:
 8709 0317 73746F70 		.ascii	"stopInput\000"
 8709      496E7075 
 8709      7400
 8710              	.LASF244:
 8711 0321 72785269 		.ascii	"rxRingBufSize\000"
 8711      6E674275 
 8711      6653697A 
 8711      6500
 8712              	.LASF82:
 8713 032f 53415455 		.ascii	"SATURATE_INTR\000"
 8713      52415445 
 8713      5F494E54 
 8713      5200
 8714              	.LASF271:
 8715 033d 70776D4D 		.ascii	"pwmMode\000"
 8715      6F646500 
 8716              	.LASF168:
 8717 0345 70657269 		.ascii	"periTrGrSize\000"
 8717      54724772 
 8717      53697A65 
 8717      00
 8718              	.LASF93:
 8719 0352 494E4A5F 		.ascii	"INJ_RESULT\000"
 8719      52455355 
 8719      4C5400
 8720              	.LASF171:
 8721 035d 70657269 		.ascii	"periDivCmdPaDivSelPos\000"
 8721      44697643 
 8721      6D645061 
 8721      44697653 
 8721      656C506F 
 8722              	.LASF28:
 8723 0373 494E5452 		.ascii	"INTR_SET\000"
 8723      5F534554 
 8723      00
 8724              	.LASF308:
 8725 037c 4755495F 		.ascii	"GUI_COLOR\000"
 8725      434F4C4F 
 8725      5200
 8726              	.LASF220:
 8727 0386 73617449 		.ascii	"satIntrMask\000"
 8727      6E74724D 
 8727      61736B00 
 8728              	.LASF194:
 8729 0392 63707573 		.ascii	"cpussRam1Ctl0\000"
 8729      7352616D 
ARM GAS  C:\Users\louis\AppData\Local\Temp\ccj8Y2ua.s 			page 194


 8729      3143746C 
 8729      3000
 8730              	.LASF377:
 8731 03a0 63795F65 		.ascii	"cy_eink_update_t\000"
 8731      696E6B5F 
 8731      75706461 
 8731      74655F74 
 8731      00
 8732              	.LASF139:
 8733 03b1 73727373 		.ascii	"srssNumPll\000"
 8733      4E756D50 
 8733      6C6C00
 8734              	.LASF196:
 8735 03bc 69706353 		.ascii	"ipcStructSize\000"
 8735      74727563 
 8735      7453697A 
 8735      6500
 8736              	.LASF297:
 8737 03ca 744C4344 		.ascii	"tLCDDEV_Color2Index\000"
 8737      4445565F 
 8737      436F6C6F 
 8737      7232496E 
 8737      64657800 
 8738              	.LASF318:
 8739 03de 70446174 		.ascii	"pData\000"
 8739      6100
 8740              	.LASF255:
 8741 03e4 636F6D70 		.ascii	"compare0\000"
 8741      61726530 
 8741      00
 8742              	.LASF256:
 8743 03ed 636F6D70 		.ascii	"compare1\000"
 8743      61726531 
 8743      00
 8744              	.LASF442:
 8745 03f6 50574D5F 		.ascii	"PWM_Start\000"
 8745      53746172 
 8745      7400
 8746              	.LASF450:
 8747 0400 474E5520 		.ascii	"GNU C11 5.4.1 20160609 (release) [ARM/embedded-5-br"
 8747      43313120 
 8747      352E342E 
 8747      31203230 
 8747      31363036 
 8748 0433 616E6368 		.ascii	"anch revision 237715] -mcpu=cortex-m4 -mfloat-abi=s"
 8748      20726576 
 8748      6973696F 
 8748      6E203233 
 8748      37373135 
 8749 0466 6F667466 		.ascii	"oftfp -mfpu=fpv4-sp-d16 -mthumb -g -Og -ffunction-s"
 8749      70202D6D 
 8749      6670753D 
 8749      66707634 
 8749      2D73702D 
 8750 0499 65637469 		.ascii	"ections -ffat-lto-objects\000"
 8750      6F6E7320 
 8750      2D666661 
ARM GAS  C:\Users\louis\AppData\Local\Temp\ccj8Y2ua.s 			page 195


 8750      742D6C74 
 8750      6F2D6F62 
 8751              	.LASF130:
 8752 04b3 70726F74 		.ascii	"protVersion\000"
 8752      56657273 
 8752      696F6E00 
 8753              	.LASF342:
 8754 04bf 42617365 		.ascii	"Baseline\000"
 8754      6C696E65 
 8754      00
 8755              	.LASF399:
 8756 04c8 43616D70 		.ascii	"CampingActivity\000"
 8756      696E6741 
 8756      63746976 
 8756      69747900 
 8757              	.LASF270:
 8758 04d8 63795F73 		.ascii	"cy_stc_tcpwm_pwm_config\000"
 8758      74635F74 
 8758      6370776D 
 8758      5F70776D 
 8758      5F636F6E 
 8759              	.LASF170:
 8760 04f0 70657269 		.ascii	"periDivCmdTypeSelPos\000"
 8760      44697643 
 8760      6D645479 
 8760      70655365 
 8760      6C506F73 
 8761              	.LASF187:
 8762 0505 63707573 		.ascii	"cpussTrimRamCtlOffset\000"
 8762      73547269 
 8762      6D52616D 
 8762      43746C4F 
 8762      66667365 
 8763              	.LASF242:
 8764 051b 72785374 		.ascii	"rxStatus\000"
 8764      61747573 
 8764      00
 8765              	.LASF403:
 8766 0524 53686F77 		.ascii	"ShowInstructionsScreen\000"
 8766      496E7374 
 8766      72756374 
 8766      696F6E73 
 8766      53637265 
 8767              	.LASF64:
 8768 053b 54435057 		.ascii	"TCPWM_V1_Type\000"
 8768      4D5F5631 
 8768      5F547970 
 8768      6500
 8769              	.LASF258:
 8770 0549 696E7465 		.ascii	"interruptSources\000"
 8770      72727570 
 8770      74536F75 
 8770      72636573 
 8770      00
 8771              	.LASF326:
 8772 055a 4755495F 		.ascii	"GUI_FONT_TRANSINFO\000"
 8772      464F4E54 
ARM GAS  C:\Users\louis\AppData\Local\Temp\ccj8Y2ua.s 			page 196


 8772      5F545241 
 8772      4E53494E 
 8772      464F00
 8773              	.LASF20:
 8774 056d 75696E74 		.ascii	"uint32_t\000"
 8774      33325F74 
 8774      00
 8775              	.LASF456:
 8776 0576 73747263 		.ascii	"strcpy\000"
 8776      707900
 8777              	.LASF345:
 8778 057d 4755495F 		.ascii	"GUI_FONTINFO\000"
 8778      464F4E54 
 8778      494E464F 
 8778      00
 8779              	.LASF402:
 8780 058a 53686F77 		.ascii	"ShowStartupScreen\000"
 8780      53746172 
 8780      74757053 
 8780      63726565 
 8780      6E00
 8781              	.LASF46:
 8782 059c 4750494F 		.ascii	"GPIO_V1_Type\000"
 8782      5F56315F 
 8782      54797065 
 8782      00
 8783              	.LASF180:
 8784 05a9 6770696F 		.ascii	"gpioPrtCfgOutOffset\000"
 8784      50727443 
 8784      66674F75 
 8784      744F6666 
 8784      73657400 
 8785              	.LASF332:
 8786 05bd 4755495F 		.ascii	"GUI_FONT_PROP\000"
 8786      464F4E54 
 8786      5F50524F 
 8786      5000
 8787              	.LASF341:
 8788 05cb 466C6167 		.ascii	"Flags\000"
 8788      7300
 8789              	.LASF23:
 8790 05d1 4F55545F 		.ascii	"OUT_SET\000"
 8790      53455400 
 8791              	.LASF101:
 8792 05d9 4D55585F 		.ascii	"MUX_SWITCH_SQ_CTRL\000"
 8792      53574954 
 8792      43485F53 
 8792      515F4354 
 8792      524C00
 8793              	.LASF294:
 8794 05ec 7050616C 		.ascii	"pPalEntries\000"
 8794      456E7472 
 8794      69657300 
 8795              	.LASF422:
 8796 05f8 64656D6F 		.ascii	"demoPageArray\000"
 8796      50616765 
 8796      41727261 
ARM GAS  C:\Users\louis\AppData\Local\Temp\ccj8Y2ua.s 			page 197


 8796      7900
 8797              	.LASF340:
 8798 0606 4755495F 		.ascii	"GUI_FONT_MONO\000"
 8798      464F4E54 
 8798      5F4D4F4E 
 8798      4F00
 8799              	.LASF144:
 8800 0614 65704D6F 		.ascii	"epMonitorNr\000"
 8800      6E69746F 
 8800      724E7200 
 8801              	.LASF378:
 8802 0620 62617365 		.ascii	"base\000"
 8802      00
 8803              	.LASF443:
 8804 0625 43795F53 		.ascii	"Cy_SysLib_Delay\000"
 8804      79734C69 
 8804      625F4465 
 8804      6C617900 
 8805              	.LASF61:
 8806 0635 434D445F 		.ascii	"CMD_STOP\000"
 8806      53544F50 
 8806      00
 8807              	.LASF240:
 8808 063e 63795F73 		.ascii	"cy_stc_scb_uart_context\000"
 8808      74635F73 
 8808      63625F75 
 8808      6172745F 
 8808      636F6E74 
 8809              	.LASF22:
 8810 0656 4F55545F 		.ascii	"OUT_CLR\000"
 8810      434C5200 
 8811              	.LASF35:
 8812 065e 52455345 		.ascii	"RESERVED1\000"
 8812      52564544 
 8812      3100
 8813              	.LASF262:
 8814 0668 72656C6F 		.ascii	"reloadInput\000"
 8814      6164496E 
 8814      70757400 
 8815              	.LASF17:
 8816 0674 696E7431 		.ascii	"int16_t\000"
 8816      365F7400 
 8817              	.LASF179:
 8818 067c 6770696F 		.ascii	"gpioPrtCfgInOffset\000"
 8818      50727443 
 8818      6667496E 
 8818      4F666673 
 8818      657400
 8819              	.LASF286:
 8820 068f 6E756D43 		.ascii	"numChannels\000"
 8820      68616E6E 
 8820      656C7300 
 8821              	.LASF14:
 8822 069b 6C6F6E67 		.ascii	"long long unsigned int\000"
 8822      206C6F6E 
 8822      6720756E 
 8822      7369676E 
ARM GAS  C:\Users\louis\AppData\Local\Temp\ccj8Y2ua.s 			page 198


 8822      65642069 
 8823              	.LASF406:
 8824 06b2 70616765 		.ascii	"pageNumber\000"
 8824      4E756D62 
 8824      657200
 8825              	.LASF181:
 8826 06bd 6770696F 		.ascii	"gpioPrtCfgSioOffset\000"
 8826      50727443 
 8826      66675369 
 8826      6F4F6666 
 8826      73657400 
 8827              	.LASF383:
 8828 06d1 43795F47 		.ascii	"Cy_GPIO_Write\000"
 8828      50494F5F 
 8828      57726974 
 8828      6500
 8829              	.LASF299:
 8830 06df 744C4344 		.ascii	"tLCDDEV_Index2ColorBulk\000"
 8830      4445565F 
 8830      496E6465 
 8830      7832436F 
 8830      6C6F7242 
 8831              	.LASF414:
 8832 06f7 50574D5F 		.ascii	"PWM_config\000"
 8832      636F6E66 
 8832      696700
 8833              	.LASF135:
 8834 0702 63707573 		.ascii	"cpussIpc0Irq\000"
 8834      73497063 
 8834      30497271 
 8834      00
 8835              	.LASF331:
 8836 070f 4755495F 		.ascii	"GUI_CHARINFO_EXT\000"
 8836      43484152 
 8836      494E464F 
 8836      5F455854 
 8836      00
 8837              	.LASF333:
 8838 0720 46697273 		.ascii	"First\000"
 8838      7400
 8839              	.LASF295:
 8840 0726 4C43445F 		.ascii	"LCD_LOGPALETTE\000"
 8840      4C4F4750 
 8840      414C4554 
 8840      544500
 8841              	.LASF274:
 8842 0735 70657269 		.ascii	"period0\000"
 8842      6F643000 
 8843              	.LASF67:
 8844 073d 53414D50 		.ascii	"SAMPLE_TIME23\000"
 8844      4C455F54 
 8844      494D4532 
 8844      3300
 8845              	.LASF115:
 8846 074b 75646242 		.ascii	"udbBase\000"
 8846      61736500 
 8847              	.LASF34:
ARM GAS  C:\Users\louis\AppData\Local\Temp\ccj8Y2ua.s 			page 199


 8848 0753 4346475F 		.ascii	"CFG_IN_GPIO5V\000"
 8848      494E5F47 
 8848      50494F35 
 8848      5600
 8849              	.LASF338:
 8850 0761 70547261 		.ascii	"pTransData\000"
 8850      6E734461 
 8850      746100
 8851              	.LASF207:
 8852 076c 43595F53 		.ascii	"CY_SAR_RANGE_COND_INSIDE\000"
 8852      41525F52 
 8852      414E4745 
 8852      5F434F4E 
 8852      445F494E 
 8853              	.LASF226:
 8854 0785 63795F73 		.ascii	"cy_stc_sar_config_t\000"
 8854      74635F73 
 8854      61725F63 
 8854      6F6E6669 
 8854      675F7400 
 8855              	.LASF278:
 8856 0799 696E7665 		.ascii	"invertPWMOutN\000"
 8856      72745057 
 8856      4D4F7574 
 8856      4E00
 8857              	.LASF211:
 8858 07a7 6374726C 		.ascii	"ctrl\000"
 8858      00
 8859              	.LASF263:
 8860 07ac 73746172 		.ascii	"startInputMode\000"
 8860      74496E70 
 8860      75744D6F 
 8860      646500
 8861              	.LASF259:
 8862 07bb 63617074 		.ascii	"captureInputMode\000"
 8862      75726549 
 8862      6E707574 
 8862      4D6F6465 
 8862      00
 8863              	.LASF265:
 8864 07cc 73746F70 		.ascii	"stopInputMode\000"
 8864      496E7075 
 8864      744D6F64 
 8864      6500
 8865              	.LASF317:
 8866 07da 42697473 		.ascii	"BitsPerPixel\000"
 8866      50657250 
 8866      6978656C 
 8866      00
 8867              	.LASF169:
 8868 07e7 70657269 		.ascii	"periDivCmdDivSelMsk\000"
 8868      44697643 
 8868      6D644469 
 8868      7653656C 
 8868      4D736B00 
 8869              	.LASF385:
 8870 07fb 76616C75 		.ascii	"value\000"
ARM GAS  C:\Users\louis\AppData\Local\Temp\ccj8Y2ua.s 			page 200


 8870      6500
 8871              	.LASF31:
 8872 0801 4346475F 		.ascii	"CFG_OUT\000"
 8872      4F555400 
 8873              	.LASF91:
 8874 0809 494E4A5F 		.ascii	"INJ_CHAN_CONFIG\000"
 8874      4348414E 
 8874      5F434F4E 
 8874      46494700 
 8875              	.LASF303:
 8876 0819 70664765 		.ascii	"pfGetIndexMask\000"
 8876      74496E64 
 8876      65784D61 
 8876      736B00
 8877              	.LASF453:
 8878 0828 47617353 		.ascii	"GasSensor\000"
 8878      656E736F 
 8878      7200
 8879              	.LASF157:
 8880 0832 666C6173 		.ascii	"flashCtlMainWs3Freq\000"
 8880      6843746C 
 8880      4D61696E 
 8880      57733346 
 8880      72657100 
 8881              	.LASF290:
 8882 0846 4144435F 		.ascii	"ADC_1_CONFIG_STRUCT\000"
 8882      315F434F 
 8882      4E464947 
 8882      5F535452 
 8882      55435400 
 8883              	.LASF110:
 8884 085a 5341525F 		.ascii	"SAR_Type\000"
 8884      54797065 
 8884      00
 8885              	.LASF312:
 8886 0863 70436F6C 		.ascii	"pColorConvAPI\000"
 8886      6F72436F 
 8886      6E764150 
 8886      4900
 8887              	.LASF291:
 8888 0871 4C43445F 		.ascii	"LCD_COLOR\000"
 8888      434F4C4F 
 8888      5200
 8889              	.LASF365:
 8890 087b 4755495F 		.ascii	"GUI_GETFONTINFO\000"
 8890      47455446 
 8890      4F4E5449 
 8890      4E464F00 
 8891              	.LASF354:
 8892 088b 70664469 		.ascii	"pfDispChar\000"
 8892      73704368 
 8892      617200
 8893              	.LASF229:
 8894 0896 72784275 		.ascii	"rxBuf\000"
 8894      6600
 8895              	.LASF235:
 8896 089c 63624576 		.ascii	"cbEvents\000"
ARM GAS  C:\Users\louis\AppData\Local\Temp\ccj8Y2ua.s 			page 201


 8896      656E7473 
 8896      00
 8897              	.LASF1:
 8898 08a5 646F7562 		.ascii	"double\000"
 8898      6C6500
 8899              	.LASF426:
 8900 08ac 4144435F 		.ascii	"ADC_1_Start\000"
 8900      315F5374 
 8900      61727400 
 8901              	.LASF203:
 8902 08b8 5F426F6F 		.ascii	"_Bool\000"
 8902      6C00
 8903              	.LASF396:
 8904 08be 63616C63 		.ascii	"calc\000"
 8904      00
 8905              	.LASF233:
 8906 08c3 74784275 		.ascii	"txBufSize\000"
 8906      6653697A 
 8906      6500
 8907              	.LASF361:
 8908 08cd 584D6167 		.ascii	"XMag\000"
 8908      00
 8909              	.LASF106:
 8910 08d2 5341525F 		.ascii	"SAR_V1_Type\000"
 8910      56315F54 
 8910      79706500 
 8911              	.LASF358:
 8912 08de 70664765 		.ascii	"pfGetCharInfo\000"
 8912      74436861 
 8912      72496E66 
 8912      6F00
 8913              	.LASF69:
 8914 08ec 52414E47 		.ascii	"RANGE_COND\000"
 8914      455F434F 
 8914      4E4400
 8915              	.LASF441:
 8916 08f7 4755495F 		.ascii	"GUI_DispStringAt\000"
 8916      44697370 
 8916      53747269 
 8916      6E674174 
 8916      00
 8917              	.LASF281:
 8918 0908 73776170 		.ascii	"swapInput\000"
 8918      496E7075 
 8918      7400
 8919              	.LASF357:
 8920 0912 70664973 		.ascii	"pfIsInFont\000"
 8920      496E466F 
 8920      6E7400
 8921              	.LASF42:
 8922 091d 5644445F 		.ascii	"VDD_INTR\000"
 8922      494E5452 
 8922      00
 8923              	.LASF311:
 8924 0926 70664472 		.ascii	"pfDrawHW\000"
 8924      61774857 
 8924      00
ARM GAS  C:\Users\louis\AppData\Local\Temp\ccj8Y2ua.s 			page 202


 8925              	.LASF118:
 8926 092f 6770696F 		.ascii	"gpioBase\000"
 8926      42617365 
 8926      00
 8927              	.LASF349:
 8928 0938 70664765 		.ascii	"pfGetLineDistX\000"
 8928      744C696E 
 8928      65446973 
 8928      745800
 8929              	.LASF272:
 8930 0947 70776D41 		.ascii	"pwmAlignment\000"
 8930      6C69676E 
 8930      6D656E74 
 8930      00
 8931              	.LASF379:
 8932 0954 636F756E 		.ascii	"counters\000"
 8932      74657273 
 8932      00
 8933              	.LASF337:
 8934 095d 4755495F 		.ascii	"GUI_FONT_PROP_EXT\000"
 8934      464F4E54 
 8934      5F50524F 
 8934      505F4558 
 8934      5400
 8935              	.LASF162:
 8936 096f 64774368 		.ascii	"dwChCtlPreemptablePos\000"
 8936      43746C50 
 8936      7265656D 
 8936      70746162 
 8936      6C65506F 
 8937              	.LASF0:
 8938 0985 666C6F61 		.ascii	"float\000"
 8938      7400
 8939              	.LASF189:
 8940 098b 63707573 		.ascii	"cpussSysTickCtlOffset\000"
 8940      73537973 
 8940      5469636B 
 8940      43746C4F 
 8940      66667365 
 8941              	.LASF145:
 8942 09a1 75646250 		.ascii	"udbPresent\000"
 8942      72657365 
 8942      6E7400
 8943              	.LASF363:
 8944 09ac 4755495F 		.ascii	"GUI_DISPCHAR\000"
 8944      44495350 
 8944      43484152 
 8944      00
 8945              	.LASF107:
 8946 09b9 4750494F 		.ascii	"GPIO_PRT_Type\000"
 8946      5F505254 
 8946      5F547970 
 8946      6500
 8947              	.LASF319:
 8948 09c7 7050616C 		.ascii	"pPal\000"
 8948      00
 8949              	.LASF163:
ARM GAS  C:\Users\louis\AppData\Local\Temp\ccj8Y2ua.s 			page 203


 8950 09cc 64775374 		.ascii	"dwStatusChIdxPos\000"
 8950      61747573 
 8950      43684964 
 8950      78506F73 
 8950      00
 8951              	.LASF7:
 8952 09dd 5F5F7569 		.ascii	"__uint16_t\000"
 8952      6E743136 
 8952      5F7400
 8953              	.LASF418:
 8954 09e8 4755495F 		.ascii	"GUI_FontD32\000"
 8954      466F6E74 
 8954      44333200 
 8955              	.LASF411:
 8956 09f4 55415254 		.ascii	"UART_1_context\000"
 8956      5F315F63 
 8956      6F6E7465 
 8956      787400
 8957              	.LASF225:
 8958 0a03 76726566 		.ascii	"vrefMvValue\000"
 8958      4D765661 
 8958      6C756500 
 8959              	.LASF121:
 8960 0a0f 63727970 		.ascii	"cryptoBase\000"
 8960      746F4261 
 8960      736500
 8961              	.LASF431:
 8962 0a1a 54686572 		.ascii	"Thermistor_GetTemperature\000"
 8962      6D697374 
 8962      6F725F47 
 8962      65745465 
 8962      6D706572 
 8963              	.LASF138:
 8964 0a34 73727373 		.ascii	"srssNumClkpath\000"
 8964      4E756D43 
 8964      6C6B7061 
 8964      746800
 8965              	.LASF134:
 8966 0a43 63707573 		.ascii	"cpussFlashPaSize\000"
 8966      73466C61 
 8966      73685061 
 8966      53697A65 
 8966      00
 8967              	.LASF74:
 8968 0a54 4348414E 		.ascii	"CHAN_WORK\000"
 8968      5F574F52 
 8968      4B00
 8969              	.LASF323:
 8970 0a5e 46697273 		.ascii	"FirstChar\000"
 8970      74436861 
 8970      7200
 8971              	.LASF83:
 8972 0a68 53415455 		.ascii	"SATURATE_INTR_SET\000"
 8972      52415445 
 8972      5F494E54 
 8972      525F5345 
 8972      5400
ARM GAS  C:\Users\louis\AppData\Local\Temp\ccj8Y2ua.s 			page 204


 8973              	.LASF208:
 8974 0a7a 43595F53 		.ascii	"CY_SAR_RANGE_COND_ABOVE\000"
 8974      41525F52 
 8974      414E4745 
 8974      5F434F4E 
 8974      445F4142 
 8975              	.LASF200:
 8976 0a92 63686172 		.ascii	"char\000"
 8976      00
 8977              	.LASF344:
 8978 0a97 43486569 		.ascii	"CHeight\000"
 8978      67687400 
 8979              	.LASF217:
 8980 0a9f 6368616E 		.ascii	"chanEn\000"
 8980      456E00
 8981              	.LASF246:
 8982 0aa6 72785269 		.ascii	"rxRingBufTail\000"
 8982      6E674275 
 8982      66546169 
 8982      6C00
 8983              	.LASF457:
 8984 0ab4 5F5F6275 		.ascii	"__builtin_strcpy\000"
 8984      696C7469 
 8984      6E5F7374 
 8984      72637079 
 8984      00
 8985              	.LASF146:
 8986 0ac5 73797350 		.ascii	"sysPmSimoPresent\000"
 8986      6D53696D 
 8986      6F507265 
 8986      73656E74 
 8986      00
 8987              	.LASF148:
 8988 0ad6 63727970 		.ascii	"cryptoMemSize\000"
 8988      746F4D65 
 8988      6D53697A 
 8988      6500
 8989              	.LASF251:
 8990 0ae4 636C6F63 		.ascii	"clockPrescaler\000"
 8990      6B507265 
 8990      7363616C 
 8990      657200
 8991              	.LASF81:
 8992 0af3 4348414E 		.ascii	"CHAN_RESULT_NEWVALUE\000"
 8992      5F524553 
 8992      554C545F 
 8992      4E455756 
 8992      414C5545 
 8993              	.LASF231:
 8994 0b08 72784275 		.ascii	"rxBufIdx\000"
 8994      66496478 
 8994      00
 8995              	.LASF50:
 8996 0b11 43435F42 		.ascii	"CC_BUFF\000"
 8996      55464600 
 8997              	.LASF236:
 8998 0b19 696E6974 		.ascii	"initKey\000"
ARM GAS  C:\Users\louis\AppData\Local\Temp\ccj8Y2ua.s 			page 205


 8998      4B657900 
 8999              	.LASF95:
 9000 0b21 4156475F 		.ascii	"AVG_STAT\000"
 9000      53544154 
 9000      00
 9001              	.LASF164:
 9002 0b2a 64775374 		.ascii	"dwStatusChIdxMsk\000"
 9002      61747573 
 9002      43684964 
 9002      784D736B 
 9002      00
 9003              	.LASF302:
 9004 0b3b 7066496E 		.ascii	"pfIndex2Color\000"
 9004      64657832 
 9004      436F6C6F 
 9004      7200
 9005              	.LASF16:
 9006 0b49 75696E74 		.ascii	"uint8_t\000"
 9006      385F7400 
 9007              	.LASF228:
 9008 0b51 73746174 		.ascii	"status\000"
 9008      757300
 9009              	.LASF335:
 9010 0b58 70614368 		.ascii	"paCharInfo\000"
 9010      6172496E 
 9010      666F00
 9011              	.LASF375:
 9012 0b63 43595F45 		.ascii	"CY_EINK_FULL_4STAGE\000"
 9012      494E4B5F 
 9012      46554C4C 
 9012      5F345354 
 9012      41474500 
 9013              	.LASF329:
 9014 0b77 58506F73 		.ascii	"XPos\000"
 9014      00
 9015              	.LASF401:
 9016 0b7c 63686F69 		.ascii	"choice\000"
 9016      636500
 9017              	.LASF40:
 9018 0b83 494E5452 		.ascii	"INTR_CAUSE3\000"
 9018      5F434155 
 9018      53453300 
 9019              	.LASF293:
 9020 0b8f 48617354 		.ascii	"HasTrans\000"
 9020      72616E73 
 9020      00
 9021              	.LASF87:
 9022 0b98 52414E47 		.ascii	"RANGE_INTR_SET\000"
 9022      455F494E 
 9022      54525F53 
 9022      455400
 9023              	.LASF177:
 9024 0ba7 6770696F 		.ascii	"gpioPrtIntrCfgOffset\000"
 9024      50727449 
 9024      6E747243 
 9024      66674F66 
 9024      66736574 
ARM GAS  C:\Users\louis\AppData\Local\Temp\ccj8Y2ua.s 			page 206


 9025              	.LASF223:
 9026 0bbc 6D757853 		.ascii	"muxSwitchSqCtrl\000"
 9026      77697463 
 9026      68537143 
 9026      74726C00 
 9027              	.LASF444:
 9028 0bcc 72616E64 		.ascii	"rand\000"
 9028      00
 9029              	.LASF238:
 9030 0bd1 63795F63 		.ascii	"cy_cb_scb_uart_handle_events_t\000"
 9030      625F7363 
 9030      625F7561 
 9030      72745F68 
 9030      616E646C 
 9031              	.LASF216:
 9032 0bf0 72616E67 		.ascii	"rangeCond\000"
 9032      65436F6E 
 9032      6400
 9033              	.LASF221:
 9034 0bfa 72616E67 		.ascii	"rangeIntrMask\000"
 9034      65496E74 
 9034      724D6173 
 9034      6B00
 9035              	.LASF398:
 9036 0c08 74696D65 		.ascii	"time_left\000"
 9036      5F6C6566 
 9036      7400
 9037              	.LASF410:
 9038 0c12 43595F45 		.ascii	"CY_EINK_Timer_config\000"
 9038      494E4B5F 
 9038      54696D65 
 9038      725F636F 
 9038      6E666967 
 9039              	.LASF193:
 9040 0c27 63707573 		.ascii	"cpussRam0Ctl0\000"
 9040      7352616D 
 9040      3043746C 
 9040      3000
 9041              	.LASF376:
 9042 0c35 43595F45 		.ascii	"CY_EINK_FULL_2STAGE\000"
 9042      494E4B5F 
 9042      46554C4C 
 9042      5F325354 
 9042      41474500 
 9043              	.LASF13:
 9044 0c49 6C6F6E67 		.ascii	"long long int\000"
 9044      206C6F6E 
 9044      6720696E 
 9044      7400
 9045              	.LASF120:
 9046 0c57 69706342 		.ascii	"ipcBase\000"
 9046      61736500 
 9047              	.LASF57:
 9048 0c5f 4354524C 		.ascii	"CTRL_CLR\000"
 9048      5F434C52 
 9048      00
 9049              	.LASF356:
ARM GAS  C:\Users\louis\AppData\Local\Temp\ccj8Y2ua.s 			page 207


 9050 0c68 70664765 		.ascii	"pfGetFontInfo\000"
 9050      74466F6E 
 9050      74496E66 
 9050      6F00
 9051              	.LASF276:
 9052 0c76 656E6162 		.ascii	"enablePeriodSwap\000"
 9052      6C655065 
 9052      72696F64 
 9052      53776170 
 9052      00
 9053              	.LASF432:
 9054 0c87 7072696E 		.ascii	"printf\000"
 9054      746600
 9055              	.LASF400:
 9056 0c8e 61637469 		.ascii	"activities\000"
 9056      76697469 
 9056      657300
 9057              	.LASF364:
 9058 0c99 4755495F 		.ascii	"GUI_GETCHARDISTX\000"
 9058      47455443 
 9058      48415244 
 9058      49535458 
 9058      00
 9059              	.LASF280:
 9060 0caa 73776170 		.ascii	"swapInputMode\000"
 9060      496E7075 
 9060      744D6F64 
 9060      6500
 9061              	.LASF316:
 9062 0cb8 42797465 		.ascii	"BytesPerLine\000"
 9062      73506572 
 9062      4C696E65 
 9062      00
 9063              	.LASF447:
 9064 0cc5 4755495F 		.ascii	"GUI_Init\000"
 9064      496E6974 
 9064      00
 9065              	.LASF320:
 9066 0cce 704D6574 		.ascii	"pMethods\000"
 9066      686F6473 
 9066      00
 9067              	.LASF151:
 9068 0cd7 666C6173 		.ascii	"flashWriteDelay\000"
 9068      68577269 
 9068      74654465 
 9068      6C617900 
 9069              	.LASF437:
 9070 0ce7 4755495F 		.ascii	"GUI_SetTextStyle\000"
 9070      53657454 
 9070      65787453 
 9070      74796C65 
 9070      00
 9071              	.LASF359:
 9072 0cf8 70616645 		.ascii	"pafEncode\000"
 9072      6E636F64 
 9072      6500
 9073              	.LASF234:
ARM GAS  C:\Users\louis\AppData\Local\Temp\ccj8Y2ua.s 			page 208


 9074 0d02 74784275 		.ascii	"txBufIdx\000"
 9074      66496478 
 9074      00
 9075              	.LASF275:
 9076 0d0b 70657269 		.ascii	"period1\000"
 9076      6F643100 
 9077              	.LASF237:
 9078 0d13 63795F73 		.ascii	"cy_stc_scb_spi_context_t\000"
 9078      74635F73 
 9078      63625F73 
 9078      70695F63 
 9078      6F6E7465 
 9079              	.LASF6:
 9080 0d2c 5F5F696E 		.ascii	"__int16_t\000"
 9080      7431365F 
 9080      7400
 9081              	.LASF156:
 9082 0d36 666C6173 		.ascii	"flashCtlMainWs2Freq\000"
 9082      6843746C 
 9082      4D61696E 
 9082      57733246 
 9082      72657100 
 9083              	.LASF348:
 9084 0d4a 74474C5F 		.ascii	"tGL_DispLine\000"
 9084      44697370 
 9084      4C696E65 
 9084      00
 9085              	.LASF117:
 9086 0d57 6873696F 		.ascii	"hsiomBase\000"
 9086      6D426173 
 9086      6500
 9087              	.LASF427:
 9088 0d61 43795F53 		.ascii	"Cy_SAR_StartConvert\000"
 9088      41525F53 
 9088      74617274 
 9088      436F6E76 
 9088      65727400 
 9089              	.LASF76:
 9090 0d75 4348414E 		.ascii	"CHAN_RESULT\000"
 9090      5F524553 
 9090      554C5400 
 9091              	.LASF304:
 9092 0d81 4E6F416C 		.ascii	"NoAlpha\000"
 9092      70686100 
 9093              	.LASF167:
 9094 0d89 70657269 		.ascii	"periTrGrOffset\000"
 9094      54724772 
 9094      4F666673 
 9094      657400
 9095              	.LASF25:
 9096 0d98 494E5452 		.ascii	"INTR\000"
 9096      00
 9097              	.LASF86:
 9098 0d9d 52414E47 		.ascii	"RANGE_INTR\000"
 9098      455F494E 
 9098      545200
 9099              	.LASF334:
ARM GAS  C:\Users\louis\AppData\Local\Temp\ccj8Y2ua.s 			page 209


 9100 0da8 4C617374 		.ascii	"Last\000"
 9100      00
 9101              	.LASF245:
 9102 0dad 72785269 		.ascii	"rxRingBufHead\000"
 9102      6E674275 
 9102      66486561 
 9102      6400
 9103              	.LASF133:
 9104 0dbb 63707573 		.ascii	"cpussDwChNr\000"
 9104      73447743 
 9104      684E7200 
 9105              	.LASF261:
 9106 0dc7 72656C6F 		.ascii	"reloadInputMode\000"
 9106      6164496E 
 9106      7075744D 
 9106      6F646500 
 9107              	.LASF26:
 9108 0dd7 494E5452 		.ascii	"INTR_MASK\000"
 9108      5F4D4153 
 9108      4B00
 9109              	.LASF222:
 9110 0de1 6D757853 		.ascii	"muxSwitch\000"
 9110      77697463 
 9110      6800
 9111              	.LASF65:
 9112 0deb 53414D50 		.ascii	"SAMPLE_CTRL\000"
 9112      4C455F43 
 9112      54524C00 
 9113              	.LASF218:
 9114 0df7 6368616E 		.ascii	"chanConfig\000"
 9114      436F6E66 
 9114      696700
 9115              	.LASF382:
 9116 0e02 43795F54 		.ascii	"Cy_TCPWM_Disable_Multiple\000"
 9116      4350574D 
 9116      5F446973 
 9116      61626C65 
 9116      5F4D756C 
 9117              	.LASF350:
 9118 0e1c 70664765 		.ascii	"pfGetLineLen\000"
 9118      744C696E 
 9118      654C656E 
 9118      00
 9119              	.LASF56:
 9120 0e29 54435057 		.ascii	"TCPWM_CNT_V1_Type\000"
 9120      4D5F434E 
 9120      545F5631 
 9120      5F547970 
 9120      6500
 9121              	.LASF202:
 9122 0e3b 75696E74 		.ascii	"uint32\000"
 9122      333200
 9123              	.LASF131:
 9124 0e42 63707573 		.ascii	"cpussIpcNr\000"
 9124      73497063 
 9124      4E7200
 9125              	.LASF315:
ARM GAS  C:\Users\louis\AppData\Local\Temp\ccj8Y2ua.s 			page 210


 9126 0e4d 5953697A 		.ascii	"YSize\000"
 9126      6500
 9127              	.LASF98:
 9128 0e53 4D55585F 		.ascii	"MUX_SWITCH_CLEAR0\000"
 9128      53574954 
 9128      43485F43 
 9128      4C454152 
 9128      3000
 9129              	.LASF446:
 9130 0e65 53746174 		.ascii	"Status_SW2_Read\000"
 9130      75735F53 
 9130      57325F52 
 9130      65616400 
 9131              	.LASF143:
 9132 0e75 70617373 		.ascii	"passSarChannels\000"
 9132      53617243 
 9132      68616E6E 
 9132      656C7300 
 9133              	.LASF367:
 9134 0e85 4755495F 		.ascii	"GUI_GETCHARINFO\000"
 9134      47455443 
 9134      48415249 
 9134      4E464F00 
 9135              	.LASF195:
 9136 0e95 63707573 		.ascii	"cpussRam2Ctl0\000"
 9136      7352616D 
 9136      3243746C 
 9136      3000
 9137              	.LASF372:
 9138 0ea3 70765F65 		.ascii	"pv_eink_frame_data_t\000"
 9138      696E6B5F 
 9138      6672616D 
 9138      655F6461 
 9138      74615F74 
 9139              	.LASF374:
 9140 0eb8 43595F45 		.ascii	"CY_EINK_PARTIAL\000"
 9140      494E4B5F 
 9140      50415254 
 9140      49414C00 
 9141              	.LASF419:
 9142 0ec8 4755495F 		.ascii	"GUI_FontD64\000"
 9142      466F6E74 
 9142      44363400 
 9143              	.LASF449:
 9144 0ed4 43795F45 		.ascii	"Cy_EINK_Power\000"
 9144      494E4B5F 
 9144      506F7765 
 9144      7200
 9145              	.LASF416:
 9146 0ee2 4755495F 		.ascii	"GUI_Font20_1\000"
 9146      466F6E74 
 9146      32305F31 
 9146      00
 9147              	.LASF71:
 9148 0eef 53544152 		.ascii	"START_CTRL\000"
 9148      545F4354 
 9148      524C00
ARM GAS  C:\Users\louis\AppData\Local\Temp\ccj8Y2ua.s 			page 211


 9149              	.LASF232:
 9150 0efa 74784275 		.ascii	"txBuf\000"
 9150      6600
 9151              	.LASF44:
 9152 0f00 5644445F 		.ascii	"VDD_INTR_MASKED\000"
 9152      494E5452 
 9152      5F4D4153 
 9152      4B454400 
 9153              	.LASF152:
 9154 0f10 666C6173 		.ascii	"flashProgramDelay\000"
 9154      6850726F 
 9154      6772616D 
 9154      44656C61 
 9154      7900
 9155              	.LASF174:
 9156 0f22 70657269 		.ascii	"periDiv16CtlOffset\000"
 9156      44697631 
 9156      3643746C 
 9156      4F666673 
 9156      657400
 9157              	.LASF306:
 9158 0f35 7066496E 		.ascii	"pfIndex2ColorBulk\000"
 9158      64657832 
 9158      436F6C6F 
 9158      7242756C 
 9158      6B00
 9159              	.LASF277:
 9160 0f47 696E7665 		.ascii	"invertPWMOut\000"
 9160      72745057 
 9160      4D4F7574 
 9160      00
 9161              	.LASF413:
 9162 0f54 4144435F 		.ascii	"ADC_1_allConfigs\000"
 9162      315F616C 
 9162      6C436F6E 
 9162      66696773 
 9162      00
 9163              	.LASF339:
 9164 0f65 70547261 		.ascii	"pTrans\000"
 9164      6E7300
 9165              	.LASF391:
 9166 0f6c 636F756E 		.ascii	"countThermistor\000"
 9166      74546865 
 9166      726D6973 
 9166      746F7200 
 9167              	.LASF346:
 9168 0f7c 74475549 		.ascii	"tGUI_GetLineDistX\000"
 9168      5F476574 
 9168      4C696E65 
 9168      44697374 
 9168      5800
 9169              	.LASF8:
 9170 0f8e 73686F72 		.ascii	"short unsigned int\000"
 9170      7420756E 
 9170      7369676E 
 9170      65642069 
 9170      6E7400
ARM GAS  C:\Users\louis\AppData\Local\Temp\ccj8Y2ua.s 			page 212


 9171              	.LASF243:
 9172 0fa1 72785269 		.ascii	"rxRingBuf\000"
 9172      6E674275 
 9172      6600
 9173              	.LASF111:
 9174 0fab 6C6F6E67 		.ascii	"long double\000"
 9174      20646F75 
 9174      626C6500 
 9175              	.LASF433:
 9176 0fb7 73707269 		.ascii	"sprintf\000"
 9176      6E746600 
 9177              	.LASF18:
 9178 0fbf 75696E74 		.ascii	"uint16_t\000"
 9178      31365F74 
 9178      00
 9179              	.LASF58:
 9180 0fc8 4354524C 		.ascii	"CTRL_SET\000"
 9180      5F534554 
 9180      00
 9181              	.LASF284:
 9182 0fd1 63795F73 		.ascii	"cy_stc_tcpwm_pwm_config_t\000"
 9182      74635F74 
 9182      6370776D 
 9182      5F70776D 
 9182      5F636F6E 
 9183              	.LASF45:
 9184 0feb 5644445F 		.ascii	"VDD_INTR_SET\000"
 9184      494E5452 
 9184      5F534554 
 9184      00
 9185              	.LASF252:
 9186 0ff8 72756E4D 		.ascii	"runMode\000"
 9186      6F646500 
 9187              	.LASF166:
 9188 1000 70657269 		.ascii	"periTrCmdGrSelMsk\000"
 9188      5472436D 
 9188      64477253 
 9188      656C4D73 
 9188      6B00
 9189              	.LASF30:
 9190 1012 4346475F 		.ascii	"CFG_IN\000"
 9190      494E00
 9191              	.LASF213:
 9192 1019 73616D70 		.ascii	"sampleTime01\000"
 9192      6C655469 
 9192      6D653031 
 9192      00
 9193              	.LASF434:
 9194 1026 4755495F 		.ascii	"GUI_SetColor\000"
 9194      53657443 
 9194      6F6C6F72 
 9194      00
 9195              	.LASF140:
 9196 1033 73727373 		.ascii	"srssNumHfroot\000"
 9196      4E756D48 
 9196      66726F6F 
 9196      7400
ARM GAS  C:\Users\louis\AppData\Local\Temp\ccj8Y2ua.s 			page 213


 9197              	.LASF269:
 9198 1041 63795F73 		.ascii	"cy_stc_tcpwm_counter_config_t\000"
 9198      74635F74 
 9198      6370776D 
 9198      5F636F75 
 9198      6E746572 
 9199              	.LASF397:
 9200 105f 45676754 		.ascii	"EggTimer\000"
 9200      696D6572 
 9200      00
 9201              	.LASF343:
 9202 1068 4C486569 		.ascii	"LHeight\000"
 9202      67687400 
 9203              	.LASF307:
 9204 1070 4C43445F 		.ascii	"LCD_API_COLOR_CONV\000"
 9204      4150495F 
 9204      434F4C4F 
 9204      525F434F 
 9204      4E5600
 9205              	.LASF165:
 9206 1083 70657269 		.ascii	"periTrCmdOffset\000"
 9206      5472436D 
 9206      644F6666 
 9206      73657400 
 9207              	.LASF452:
 9208 1093 443A5C44 		.ascii	"D:\\DOWNLOADS\\PSoC6-101-Video-Projects-master\\PSo"
 9208      4F574E4C 
 9208      4F414453 
 9208      5C50536F 
 9208      43362D31 
 9209 10c3 43362D31 		.ascii	"C6-101-Video-Projects-master\\PSoC 6_101\\proj.cyds"
 9209      30312D56 
 9209      6964656F 
 9209      2D50726F 
 9209      6A656374 
 9210 10f4 6E00     		.ascii	"n\000"
 9211              	.LASF21:
 9212 10f6 73697A65 		.ascii	"sizetype\000"
 9212      74797065 
 9212      00
 9213              	.LASF448:
 9214 10ff 43795F45 		.ascii	"Cy_EINK_Start\000"
 9214      494E4B5F 
 9214      53746172 
 9214      7400
 9215              	.LASF436:
 9216 110d 4755495F 		.ascii	"GUI_SetTextMode\000"
 9216      53657454 
 9216      6578744D 
 9216      6F646500 
 9217              	.LASF191:
 9218 111d 63707573 		.ascii	"cpussCm4NmiCtlOffset\000"
 9218      73436D34 
 9218      4E6D6943 
 9218      746C4F66 
 9218      66736574 
 9219              	.LASF254:
ARM GAS  C:\Users\louis\AppData\Local\Temp\ccj8Y2ua.s 			page 214


 9220 1132 636F6D70 		.ascii	"compareOrCapture\000"
 9220      6172654F 
 9220      72436170 
 9220      74757265 
 9220      00
 9221              	.LASF173:
 9222 1143 70657269 		.ascii	"periDiv8CtlOffset\000"
 9222      44697638 
 9222      43746C4F 
 9222      66667365 
 9222      7400
 9223              	.LASF73:
 9224 1155 52455345 		.ascii	"RESERVED2\000"
 9224      52564544 
 9224      3200
 9225              	.LASF75:
 9226 115f 52455345 		.ascii	"RESERVED3\000"
 9226      52564544 
 9226      3300
 9227              	.LASF77:
 9228 1169 52455345 		.ascii	"RESERVED4\000"
 9228      52564544 
 9228      3400
 9229              	.LASF90:
 9230 1173 52455345 		.ascii	"RESERVED5\000"
 9230      52564544 
 9230      3500
 9231              	.LASF92:
 9232 117d 52455345 		.ascii	"RESERVED6\000"
 9232      52564544 
 9232      3600
 9233              	.LASF109:
 9234 1187 54435057 		.ascii	"TCPWM_Type\000"
 9234      4D5F5479 
 9234      706500
 9235              	.LASF96:
 9236 1192 52455345 		.ascii	"RESERVED8\000"
 9236      52564544 
 9236      3800
 9237              	.LASF99:
 9238 119c 52455345 		.ascii	"RESERVED9\000"
 9238      52564544 
 9238      3900
 9239              	.LASF279:
 9240 11a6 6B696C6C 		.ascii	"killMode\000"
 9240      4D6F6465 
 9240      00
 9241              	.LASF353:
 9242 11af 4755495F 		.ascii	"GUI_FONT\000"
 9242      464F4E54 
 9242      00
 9243              	.LASF257:
 9244 11b8 656E6162 		.ascii	"enableCompareSwap\000"
 9244      6C65436F 
 9244      6D706172 
 9244      65537761 
 9244      7000
ARM GAS  C:\Users\louis\AppData\Local\Temp\ccj8Y2ua.s 			page 215


 9245              	.LASF85:
 9246 11ca 53415455 		.ascii	"SATURATE_INTR_MASKED\000"
 9246      52415445 
 9246      5F494E54 
 9246      525F4D41 
 9246      534B4544 
 9247              	.LASF123:
 9248 11df 63727970 		.ascii	"cryptoVersion\000"
 9248      746F5665 
 9248      7273696F 
 9248      6E00
 9249              	.LASF10:
 9250 11ed 6C6F6E67 		.ascii	"long int\000"
 9250      20696E74 
 9250      00
 9251              	.LASF445:
 9252 11f6 4755495F 		.ascii	"GUI_DrawBitmap\000"
 9252      44726177 
 9252      4269746D 
 9252      617000
 9253              	.LASF122:
 9254 1205 63707573 		.ascii	"cpussVersion\000"
 9254      73566572 
 9254      73696F6E 
 9254      00
 9255              	.LASF407:
 9256 1212 49544D5F 		.ascii	"ITM_RxBuffer\000"
 9256      52784275 
 9256      66666572 
 9256      00
 9257              	.LASF267:
 9258 121f 636F756E 		.ascii	"countInputMode\000"
 9258      74496E70 
 9258      75744D6F 
 9258      646500
 9259              	.LASF126:
 9260 122e 6770696F 		.ascii	"gpioVersion\000"
 9260      56657273 
 9260      696F6E00 
 9261              	.LASF369:
 9262 123a 704D6F6E 		.ascii	"pMono\000"
 9262      6F00
 9263              	.LASF310:
 9264 1240 70664472 		.ascii	"pfDraw\000"
 9264      617700
 9265              	.LASF125:
 9266 1247 666C6173 		.ascii	"flashcVersion\000"
 9266      68635665 
 9266      7273696F 
 9266      6E00
 9267              	.LASF324:
 9268 1255 4C617374 		.ascii	"LastChar\000"
 9268      43686172 
 9268      00
 9269              	.LASF116:
 9270 125e 70726F74 		.ascii	"protBase\000"
 9270      42617365 
ARM GAS  C:\Users\louis\AppData\Local\Temp\ccj8Y2ua.s 			page 216


 9270      00
 9271              	.LASF253:
 9272 1267 636F756E 		.ascii	"countDirection\000"
 9272      74446972 
 9272      65637469 
 9272      6F6E00
 9273              	.LASF36:
 9274 1276 4750494F 		.ascii	"GPIO_PRT_V1_Type\000"
 9274      5F505254 
 9274      5F56315F 
 9274      54797065 
 9274      00
 9275              	.LASF412:
 9276 1287 4144435F 		.ascii	"ADC_1_currentConfig\000"
 9276      315F6375 
 9276      7272656E 
 9276      74436F6E 
 9276      66696700 
 9277              	.LASF68:
 9278 129b 52414E47 		.ascii	"RANGE_THRES\000"
 9278      455F5448 
 9278      52455300 
 9279              	.LASF388:
 9280 12a7 55706461 		.ascii	"UpdateDisplay\000"
 9280      74654469 
 9280      73706C61 
 9280      7900
 9281              	.LASF360:
 9282 12b5 59446973 		.ascii	"YDist\000"
 9282      7400
 9283              	.LASF199:
 9284 12bb 63686172 		.ascii	"char_t\000"
 9284      5F7400
 9285              	.LASF417:
 9286 12c2 4755495F 		.ascii	"GUI_Font32B_1\000"
 9286      466F6E74 
 9286      3332425F 
 9286      3100
 9287              	.LASF421:
 9288 12d0 626D4379 		.ascii	"bmCypressLogoFullColor_PNG_1bpp\000"
 9288      70726573 
 9288      734C6F67 
 9288      6F46756C 
 9288      6C436F6C 
 9289              	.LASF415:
 9290 12f0 4755495F 		.ascii	"GUI_Font16B_1\000"
 9290      466F6E74 
 9290      3136425F 
 9290      3100
 9291              	.LASF390:
 9292 12fe 70456D77 		.ascii	"pEmwinBuffer\000"
 9292      696E4275 
 9292      66666572 
 9292      00
 9293              	.LASF423:
 9294 130b 4C43445F 		.ascii	"LCD_GetDisplayBuffer\000"
 9294      47657444 
ARM GAS  C:\Users\louis\AppData\Local\Temp\ccj8Y2ua.s 			page 217


 9294      6973706C 
 9294      61794275 
 9294      66666572 
 9295              	.LASF247:
 9296 1320 74784C65 		.ascii	"txLeftToTransmit\000"
 9296      6674546F 
 9296      5472616E 
 9296      736D6974 
 9296      00
 9297              	.LASF292:
 9298 1331 4E756D45 		.ascii	"NumEntries\000"
 9298      6E747269 
 9298      657300
 9299              	.LASF24:
 9300 133c 4F55545F 		.ascii	"OUT_INV\000"
 9300      494E5600 
 9301              	.LASF186:
 9302 1344 63707573 		.ascii	"cpussCm4PwrCtlOffset\000"
 9302      73436D34 
 9302      50777243 
 9302      746C4F66 
 9302      66736574 
 9303              	.LASF5:
 9304 1359 5F5F7569 		.ascii	"__uint8_t\000"
 9304      6E74385F 
 9304      7400
 9305              	.LASF386:
 9306 1363 75706461 		.ascii	"updateMethod\000"
 9306      74654D65 
 9306      74686F64 
 9306      00
 9307              	.LASF288:
 9308 1370 6D697363 		.ascii	"miscConfig\000"
 9308      436F6E66 
 9308      696700
 9309              	.LASF351:
 9310 137b 70664469 		.ascii	"pfDispLine\000"
 9310      73704C69 
 9310      6E6500
 9311              	.LASF424:
 9312 1386 43795F45 		.ascii	"Cy_EINK_ShowFrame\000"
 9312      494E4B5F 
 9312      53686F77 
 9312      4672616D 
 9312      6500
 9313              	.LASF425:
 9314 1398 55415254 		.ascii	"UART_1_Start\000"
 9314      5F315F53 
 9314      74617274 
 9314      00
 9315              	.LASF300:
 9316 13a5 744C4344 		.ascii	"tLCDDEV_Color2IndexBulk\000"
 9316      4445565F 
 9316      436F6C6F 
 9316      7232496E 
 9316      64657842 
 9317              	.LASF176:
ARM GAS  C:\Users\louis\AppData\Local\Temp\ccj8Y2ua.s 			page 218


 9318 13bd 70657269 		.ascii	"periDiv24_5CtlOffset\000"
 9318      44697632 
 9318      345F3543 
 9318      746C4F66 
 9318      66736574 
 9319              	.LASF183:
 9320 13d2 63707573 		.ascii	"cpussCm4ClockCtlOffset\000"
 9320      73436D34 
 9320      436C6F63 
 9320      6B43746C 
 9320      4F666673 
 9321              	.LASF27:
 9322 13e9 494E5452 		.ascii	"INTR_MASKED\000"
 9322      5F4D4153 
 9322      4B454400 
 9323              	.LASF347:
 9324 13f5 74475549 		.ascii	"tGUI_GetLineLen\000"
 9324      5F476574 
 9324      4C696E65 
 9324      4C656E00 
 9325              	.LASF283:
 9326 1405 6B696C6C 		.ascii	"killInput\000"
 9326      496E7075 
 9326      7400
 9327              	.LASF188:
 9328 140f 63707573 		.ascii	"cpussTrimRomCtlOffset\000"
 9328      73547269 
 9328      6D526F6D 
 9328      43746C4F 
 9328      66667365 
 9329              	.LASF214:
 9330 1425 73616D70 		.ascii	"sampleTime23\000"
 9330      6C655469 
 9330      6D653233 
 9330      00
 9331              	.LASF282:
 9332 1432 6B696C6C 		.ascii	"killInputMode\000"
 9332      496E7075 
 9332      744D6F64 
 9332      6500
 9333              	.LASF127:
 9334 1440 6873696F 		.ascii	"hsiomVersion\000"
 9334      6D566572 
 9334      73696F6E 
 9334      00
 9335              	.LASF12:
 9336 144d 6C6F6E67 		.ascii	"long unsigned int\000"
 9336      20756E73 
 9336      69676E65 
 9336      6420696E 
 9336      7400
 9337              	.LASF192:
 9338 145f 63707573 		.ascii	"cpussRomCtl\000"
 9338      73526F6D 
 9338      43746C00 
 9339              	.LASF428:
 9340 146b 43795F53 		.ascii	"Cy_SAR_GetResult16\000"
ARM GAS  C:\Users\louis\AppData\Local\Temp\ccj8Y2ua.s 			page 219


 9340      41525F47 
 9340      65745265 
 9340      73756C74 
 9340      313600
 9341              	.LASF322:
 9342 147e 4755495F 		.ascii	"GUI_FONT_TRANSLIST\000"
 9342      464F4E54 
 9342      5F545241 
 9342      4E534C49 
 9342      535400
 9343              	.LASF296:
 9344 1491 744C4344 		.ascii	"tLCDDEV_Index2Color\000"
 9344      4445565F 
 9344      496E6465 
 9344      7832436F 
 9344      6C6F7200 
 9345              	.LASF301:
 9346 14a5 7066436F 		.ascii	"pfColor2Index\000"
 9346      6C6F7232 
 9346      496E6465 
 9346      7800
 9347              	.LASF273:
 9348 14b3 64656164 		.ascii	"deadTimeClocks\000"
 9348      54696D65 
 9348      436C6F63 
 9348      6B7300
 9349              	.LASF97:
 9350 14c2 4D55585F 		.ascii	"MUX_SWITCH0\000"
 9350      53574954 
 9350      43483000 
 9351              	.LASF79:
 9352 14ce 4348414E 		.ascii	"CHAN_RESULT_UPDATED\000"
 9352      5F524553 
 9352      554C545F 
 9352      55504441 
 9352      54454400 
 9353              	.LASF298:
 9354 14e2 744C4344 		.ascii	"tLCDDEV_GetIndexMask\000"
 9354      4445565F 
 9354      47657449 
 9354      6E646578 
 9354      4D61736B 
 9355              	.LASF260:
 9356 14f7 63617074 		.ascii	"captureInput\000"
 9356      75726549 
 9356      6E707574 
 9356      00
 9357              	.LASF185:
 9358 1504 63707573 		.ascii	"cpussCm0StatusOffset\000"
 9358      73436D30 
 9358      53746174 
 9358      75734F66 
 9358      66736574 
 9359              	.LASF212:
 9360 1519 73616D70 		.ascii	"sampleCtrl\000"
 9360      6C654374 
 9360      726C00
ARM GAS  C:\Users\louis\AppData\Local\Temp\ccj8Y2ua.s 			page 220


 9361              	.LASF327:
 9362 1524 58446973 		.ascii	"XDist\000"
 9362      7400
 9363              	.LASF150:
 9364 152a 666C6173 		.ascii	"flashPipeRequired\000"
 9364      68506970 
 9364      65526571 
 9364      75697265 
 9364      6400
 9365              	.LASF124:
 9366 153c 64775665 		.ascii	"dwVersion\000"
 9366      7273696F 
 9366      6E00
 9367              	.LASF4:
 9368 1546 756E7369 		.ascii	"unsigned char\000"
 9368      676E6564 
 9368      20636861 
 9368      7200
 9369              	.LASF104:
 9370 1554 414E415F 		.ascii	"ANA_TRIM0\000"
 9370      5452494D 
 9370      3000
 9371              	.LASF105:
 9372 155e 414E415F 		.ascii	"ANA_TRIM1\000"
 9372      5452494D 
 9372      3100
 9373              	.LASF11:
 9374 1568 5F5F7569 		.ascii	"__uint32_t\000"
 9374      6E743332 
 9374      5F7400
 9375              	.LASF429:
 9376 1573 43795F53 		.ascii	"Cy_SAR_CountsTo_Volts\000"
 9376      41525F43 
 9376      6F756E74 
 9376      73546F5F 
 9376      566F6C74 
 9377              	.LASF108:
 9378 1589 4750494F 		.ascii	"GPIO_Type\000"
 9378      5F547970 
 9378      6500
 9379              	.LASF380:
 9380 1593 50574D5F 		.ascii	"PWM_Disable\000"
 9380      44697361 
 9380      626C6500 
 9381              	.LASF268:
 9382 159f 636F756E 		.ascii	"countInput\000"
 9382      74496E70 
 9382      757400
 9383              	.LASF29:
 9384 15aa 494E5452 		.ascii	"INTR_CFG\000"
 9384      5F434647 
 9384      00
 9385              	.LASF84:
 9386 15b3 53415455 		.ascii	"SATURATE_INTR_MASK\000"
 9386      52415445 
 9386      5F494E54 
 9386      525F4D41 
ARM GAS  C:\Users\louis\AppData\Local\Temp\ccj8Y2ua.s 			page 221


 9386      534B00
 9387              	.LASF239:
 9388 15c6 63795F73 		.ascii	"cy_stc_scb_spi_context\000"
 9388      74635F73 
 9388      63625F73 
 9388      70695F63 
 9388      6F6E7465 
 9389              	.LASF103:
 9390 15dd 52455345 		.ascii	"RESERVED10\000"
 9390      52564544 
 9390      313000
 9391              	.LASF153:
 9392 15e8 666C6173 		.ascii	"flashEraseDelay\000"
 9392      68457261 
 9392      73654465 
 9392      6C617900 
 9393              	.LASF392:
 9394 15f8 636F756E 		.ascii	"countReference\000"
 9394      74526566 
 9394      6572656E 
 9394      636500
 9395              	.LASF430:
 9396 1607 54686572 		.ascii	"Thermistor_GetResistance\000"
 9396      6D697374 
 9396      6F725F47 
 9396      65745265 
 9396      73697374 
 9397              	.LASF62:
 9398 1620 434D445F 		.ascii	"CMD_START\000"
 9398      53544152 
 9398      5400
 9399              	.LASF289:
 9400 162a 636C6B44 		.ascii	"clkDivider\000"
 9400      69766964 
 9400      657200
 9401              	.LASF204:
 9402 1635 43595F53 		.ascii	"CY_SAR_START_CONVERT_SINGLE_SHOT\000"
 9402      41525F53 
 9402      54415254 
 9402      5F434F4E 
 9402      56455254 
 9403              	.LASF373:
 9404 1656 63795F65 		.ascii	"cy_eink_frame_t\000"
 9404      696E6B5F 
 9404      6672616D 
 9404      655F7400 
 9405              	.LASF309:
 9406 1666 4755495F 		.ascii	"GUI_LOGPALETTE\000"
 9406      4C4F4750 
 9406      414C4554 
 9406      544500
 9407              	.LASF147:
 9408 1675 70726F74 		.ascii	"protBusMasterMask\000"
 9408      4275734D 
 9408      61737465 
 9408      724D6173 
 9408      6B00
ARM GAS  C:\Users\louis\AppData\Local\Temp\ccj8Y2ua.s 			page 222


 9409              	.LASF440:
 9410 1687 4755495F 		.ascii	"GUI_SetTextAlign\000"
 9410      53657454 
 9410      65787441 
 9410      6C69676E 
 9410      00
 9411              	.LASF149:
 9412 1698 666C6173 		.ascii	"flashRwwRequired\000"
 9412      68527777 
 9412      52657175 
 9412      69726564 
 9412      00
 9413              	.LASF178:
 9414 16a9 6770696F 		.ascii	"gpioPrtCfgOffset\000"
 9414      50727443 
 9414      66674F66 
 9414      66736574 
 9414      00
 9415              	.LASF384:
 9416 16ba 70696E4E 		.ascii	"pinNum\000"
 9416      756D00
 9417              	.LASF155:
 9418 16c1 666C6173 		.ascii	"flashCtlMainWs1Freq\000"
 9418      6843746C 
 9418      4D61696E 
 9418      57733146 
 9418      72657100 
 9419              	.LASF43:
 9420 16d5 5644445F 		.ascii	"VDD_INTR_MASK\000"
 9420      494E5452 
 9420      5F4D4153 
 9420      4B00
 9421              	.LASF321:
 9422 16e3 4755495F 		.ascii	"GUI_BITMAP\000"
 9422      4249544D 
 9422      415000
 9423              	.LASF3:
 9424 16ee 7369676E 		.ascii	"signed char\000"
 9424      65642063 
 9424      68617200 
 9425              	.LASF250:
 9426 16fa 70657269 		.ascii	"period\000"
 9426      6F6400
 9427              	.LASF439:
 9428 1701 4755495F 		.ascii	"GUI_SetFont\000"
 9428      53657446 
 9428      6F6E7400 
 9429              	.LASF159:
 9430 170d 64774368 		.ascii	"dwChOffset\000"
 9430      4F666673 
 9430      657400
 9431              	.LASF132:
 9432 1718 63707573 		.ascii	"cpussIpcIrqNr\000"
 9432      73497063 
 9432      4972714E 
 9432      7200
 9433              	.LASF249:
ARM GAS  C:\Users\louis\AppData\Local\Temp\ccj8Y2ua.s 			page 223


 9434 1726 63795F73 		.ascii	"cy_stc_tcpwm_counter_config\000"
 9434      74635F74 
 9434      6370776D 
 9434      5F636F75 
 9434      6E746572 
 9435              	.LASF393:
 9436 1742 72657354 		.ascii	"resT\000"
 9436      00
 9437              	.LASF362:
 9438 1747 594D6167 		.ascii	"YMag\000"
 9438      00
 9439              	.LASF314:
 9440 174c 5853697A 		.ascii	"XSize\000"
 9440      6500
 9441              	.LASF455:
 9442 1752 6D656D63 		.ascii	"memcpy\000"
 9442      707900
 9443              	.LASF454:
 9444 1759 6D61696E 		.ascii	"main\000"
 9444      00
 9445              	.LASF100:
 9446 175e 4D55585F 		.ascii	"MUX_SWITCH_DS_CTRL\000"
 9446      53574954 
 9446      43485F44 
 9446      535F4354 
 9446      524C00
 9447              	.LASF154:
 9448 1771 666C6173 		.ascii	"flashCtlMainWs0Freq\000"
 9448      6843746C 
 9448      4D61696E 
 9448      57733046 
 9448      72657100 
 9449              	.LASF184:
 9450 1785 63707573 		.ascii	"cpussCm4StatusOffset\000"
 9450      73436D34 
 9450      53746174 
 9450      75734F66 
 9450      66736574 
 9451              	.LASF198:
 9452 179a 63795F73 		.ascii	"cy_stc_device_t\000"
 9452      74635F64 
 9452      65766963 
 9452      655F7400 
 9453              	.LASF41:
 9454 17aa 5644445F 		.ascii	"VDD_ACTIVE\000"
 9454      41435449 
 9454      564500
 9455              	.LASF54:
 9456 17b5 54525F43 		.ascii	"TR_CTRL1\000"
 9456      54524C31 
 9456      00
 9457              	.LASF55:
 9458 17be 54525F43 		.ascii	"TR_CTRL2\000"
 9458      54524C32 
 9458      00
 9459              	.LASF381:
 9460 17c7 5F5F656E 		.ascii	"__enable_irq\000"
ARM GAS  C:\Users\louis\AppData\Local\Temp\ccj8Y2ua.s 			page 224


 9460      61626C65 
 9460      5F697271 
 9460      00
 9461              	.LASF102:
 9462 17d4 4D55585F 		.ascii	"MUX_SWITCH_STATUS\000"
 9462      53574954 
 9462      43485F53 
 9462      54415455 
 9462      5300
 9463              	.LASF129:
 9464 17e6 70657269 		.ascii	"periVersion\000"
 9464      56657273 
 9464      696F6E00 
 9465              	.LASF370:
 9466 17f2 7050726F 		.ascii	"pProp\000"
 9466      7000
 9467              	.LASF201:
 9468 17f8 75696E74 		.ascii	"uint8\000"
 9468      3800
 9469              	.LASF224:
 9470 17fe 636F6E66 		.ascii	"configRouting\000"
 9470      6967526F 
 9470      7574696E 
 9470      6700
 9471              	.LASF119:
 9472 180c 70617373 		.ascii	"passBase\000"
 9472      42617365 
 9472      00
 9473              	.LASF51:
 9474 1815 50455249 		.ascii	"PERIOD\000"
 9474      4F4400
 9475              	.LASF328:
 9476 181c 4755495F 		.ascii	"GUI_CHARINFO\000"
 9476      43484152 
 9476      494E464F 
 9476      00
 9477              	.LASF366:
 9478 1829 4755495F 		.ascii	"GUI_ISINFONT\000"
 9478      4953494E 
 9478      464F4E54 
 9478      00
 9479              	.LASF175:
 9480 1836 70657269 		.ascii	"periDiv16_5CtlOffset\000"
 9480      44697631 
 9480      365F3543 
 9480      746C4F66 
 9480      66736574 
 9481              	.LASF48:
 9482 184b 53544154 		.ascii	"STATUS\000"
 9482      555300
 9483              	.LASF32:
 9484 1852 4346475F 		.ascii	"CFG_SIO\000"
 9484      53494F00 
 9485              	.LASF158:
 9486 185a 666C6173 		.ascii	"flashCtlMainWs4Freq\000"
 9486      6843746C 
 9486      4D61696E 
ARM GAS  C:\Users\louis\AppData\Local\Temp\ccj8Y2ua.s 			page 225


 9486      57733446 
 9486      72657100 
 9487              	.LASF72:
 9488 186e 4348414E 		.ascii	"CHAN_CONFIG\000"
 9488      5F434F4E 
 9488      46494700 
 9489              	.LASF94:
 9490 187a 52455345 		.ascii	"RESERVED7\000"
 9490      52564544 
 9490      3700
 9491              	.LASF210:
 9492 1884 63795F65 		.ascii	"cy_en_sar_range_detect_condition_t\000"
 9492      6E5F7361 
 9492      725F7261 
 9492      6E67655F 
 9492      64657465 
 9493              	.LASF336:
 9494 18a7 704E6578 		.ascii	"pNext\000"
 9494      7400
 9495              	.LASF49:
 9496 18ad 434F554E 		.ascii	"COUNTER\000"
 9496      54455200 
 9497              	.LASF404:
 9498 18b5 436C6561 		.ascii	"ClearScreen\000"
 9498      72536372 
 9498      65656E00 
 9499              	.LASF389:
 9500 18c1 54656D70 		.ascii	"TemperatureDisplay\000"
 9500      65726174 
 9500      75726544 
 9500      6973706C 
 9500      617900
 9501              	.LASF205:
 9502 18d4 43595F53 		.ascii	"CY_SAR_START_CONVERT_CONTINUOUS\000"
 9502      41525F53 
 9502      54415254 
 9502      5F434F4E 
 9502      56455254 
 9503              	.LASF66:
 9504 18f4 53414D50 		.ascii	"SAMPLE_TIME01\000"
 9504      4C455F54 
 9504      494D4530 
 9504      3100
 9505              	.LASF128:
 9506 1902 69706356 		.ascii	"ipcVersion\000"
 9506      65727369 
 9506      6F6E00
 9507              	.LASF371:
 9508 190d 7050726F 		.ascii	"pPropExt\000"
 9508      70457874 
 9508      00
 9509              	.LASF219:
 9510 1916 696E7472 		.ascii	"intrMask\000"
 9510      4D61736B 
 9510      00
 9511              	.LASF52:
 9512 191f 50455249 		.ascii	"PERIOD_BUFF\000"
ARM GAS  C:\Users\louis\AppData\Local\Temp\ccj8Y2ua.s 			page 226


 9512      4F445F42 
 9512      55464600 
 9513              	.LASF230:
 9514 192b 72784275 		.ascii	"rxBufSize\000"
 9514      6653697A 
 9514      6500
 9515              	.LASF47:
 9516 1935 4354524C 		.ascii	"CTRL\000"
 9516      00
 9517              	.LASF438:
 9518 193a 4755495F 		.ascii	"GUI_Clear\000"
 9518      436C6561 
 9518      7200
 9519              		.ident	"GCC: (GNU Tools for ARM Embedded Processors) 5.4.1 20160609 (release) [ARM/embedded-5-bran
