ARM GAS  C:\Users\louis\AppData\Local\Temp\ccj8Y2ua.s 			page 1


   1              		.syntax unified
   2              		.cpu cortex-m4
   3              		.eabi_attribute 27, 1
   4              		.fpu fpv4-sp-d16
   5              		.eabi_attribute 20, 1
   6              		.eabi_attribute 21, 1
   7              		.eabi_attribute 23, 3
   8              		.eabi_attribute 24, 1
   9              		.eabi_attribute 25, 1
  10              		.eabi_attribute 26, 1
  11              		.eabi_attribute 30, 1
  12              		.eabi_attribute 34, 1
  13              		.eabi_attribute 18, 4
  14              		.thumb
  15              		.syntax unified
  16              		.file	"main_cm4.c"
  17              		.text
  18              	.Ltext0:
  19              		.cfi_sections	.debug_frame
  20              		.section	.text.UpdateDisplay,"ax",%progbits
  21              		.align	2
  22              		.global	UpdateDisplay
  23              		.thumb
  24              		.thumb_func
  25              		.type	UpdateDisplay, %function
  26              	UpdateDisplay:
  27              	.LFB681:
  28              		.file 1 "main_cm4.c"
   1:main_cm4.c    **** /******************************************************************************
   2:main_cm4.c    **** * File Name: main_cm4.c
   3:main_cm4.c    **** *
   4:main_cm4.c    **** * Version: 1.20
   5:main_cm4.c    **** *
   6:main_cm4.c    **** * Description: This file main application code for the CE223727 EmWin Graphics
   7:main_cm4.c    **** *				library EInk Display.
   8:main_cm4.c    **** *
   9:main_cm4.c    **** * Hardware Dependency: CY8CKIT-028-EPD E-Ink Display Shield
  10:main_cm4.c    **** *					   CY8CKIT-062-BLE PSoC6 BLE Pioneer Kit
  11:main_cm4.c    **** *
  12:main_cm4.c    **** ******************************************************************************* 
  13:main_cm4.c    **** * Copyright (2019), Cypress Semiconductor Corporation. All rights reserved. 
  14:main_cm4.c    **** ******************************************************************************* 
  15:main_cm4.c    **** * This software, including source code, documentation and related materials 
  16:main_cm4.c    **** * (“Software”), is owned by Cypress Semiconductor Corporation or one of its 
  17:main_cm4.c    **** * subsidiaries (“Cypress”) and is protected by and subject to worldwide patent 
  18:main_cm4.c    **** * protection (United States and foreign), United States copyright laws and 
  19:main_cm4.c    **** * international treaty provisions. Therefore, you may use this Software only 
  20:main_cm4.c    **** * as provided in the license agreement accompanying the software package from 
  21:main_cm4.c    **** * which you obtained this Software (“EULA”). 
  22:main_cm4.c    **** * 
  23:main_cm4.c    **** * If no EULA applies, Cypress hereby grants you a personal, non-exclusive, 
  24:main_cm4.c    **** * non-transferable license to copy, modify, and compile the Software source 
  25:main_cm4.c    **** * code solely for use in connection with Cypress’s integrated circuit products. 
  26:main_cm4.c    **** * Any reproduction, modification, translation, compilation, or representation 
  27:main_cm4.c    **** * of this Software except as specified above is prohibited without the express 
  28:main_cm4.c    **** * written permission of Cypress. 
  29:main_cm4.c    **** * 
ARM GAS  C:\Users\louis\AppData\Local\Temp\ccj8Y2ua.s 			page 2


  30:main_cm4.c    **** * Disclaimer: THIS SOFTWARE IS PROVIDED AS-IS, WITH NO WARRANTY OF ANY KIND, 
  31:main_cm4.c    **** * EXPRESS OR IMPLIED, INCLUDING, BUT NOT LIMITED TO, NONINFRINGEMENT, IMPLIED 
  32:main_cm4.c    **** * WARRANTIES OF MERCHANTABILITY AND FITNESS FOR A PARTICULAR PURPOSE. Cypress 
  33:main_cm4.c    **** * reserves the right to make changes to the Software without notice. Cypress 
  34:main_cm4.c    **** * does not assume any liability arising out of the application or use of the 
  35:main_cm4.c    **** * Software or any product or circuit described in the Software. Cypress does 
  36:main_cm4.c    **** * not authorize its products for use in any products where a malfunction or 
  37:main_cm4.c    **** * failure of the Cypress product may reasonably be expected to result in 
  38:main_cm4.c    **** * significant property damage, injury or death (“High Risk Product”). By 
  39:main_cm4.c    **** * including Cypress’s product in a High Risk Product, the manufacturer of such 
  40:main_cm4.c    **** * system or application assumes all risk of such use and in doing so agrees to 
  41:main_cm4.c    **** * indemnify Cypress against all liability.
  42:main_cm4.c    **** ********************************************************************************/
  43:main_cm4.c    **** 
  44:main_cm4.c    **** #include "project.h"
  45:main_cm4.c    **** #include "GUI.h"
  46:main_cm4.c    **** #include "pervasive_eink_hardware_driver.h"
  47:main_cm4.c    **** #include "cy_eink_library.h"
  48:main_cm4.c    **** #include "LCDConf.h"
  49:main_cm4.c    **** #include "Thermistor.h"
  50:main_cm4.c    **** #include <stdio.h>
  51:main_cm4.c    **** #include <stdlib.h>
  52:main_cm4.c    **** 
  53:main_cm4.c    **** 
  54:main_cm4.c    **** #define Buzzer P12_5_PORT 
  55:main_cm4.c    **** #define Buzzer1 P12_5_NUM
  56:main_cm4.c    **** 
  57:main_cm4.c    **** /* Image buffer cache */
  58:main_cm4.c    **** uint8 imageBufferCache[CY_EINK_FRAME_SIZE] = {0};
  59:main_cm4.c    **** 
  60:main_cm4.c    **** /* Reference to the bitmap image for the startup screen */
  61:main_cm4.c    **** extern GUI_CONST_STORAGE GUI_BITMAP bmCypressLogoFullColor_PNG_1bpp;
  62:main_cm4.c    **** 
  63:main_cm4.c    **** 
  64:main_cm4.c    **** /* Function prototypes */
  65:main_cm4.c    **** void TemperatureDisplay(void);
  66:main_cm4.c    **** void GasSensor(void);
  67:main_cm4.c    **** void EggTimer(void);
  68:main_cm4.c    **** void CampingActivity(void);
  69:main_cm4.c    **** /* Array of demo pages functions */
  70:main_cm4.c    **** void (*demoPageArray[])(void) = {
  71:main_cm4.c    ****     TemperatureDisplay,
  72:main_cm4.c    ****     CampingActivity,
  73:main_cm4.c    ****     EggTimer,
  74:main_cm4.c    ****     GasSensor,
  75:main_cm4.c    **** };
  76:main_cm4.c    **** 
  77:main_cm4.c    **** /* Number of demo pages */
  78:main_cm4.c    **** #define NUMBER_OF_DEMO_PAGES    (sizeof(demoPageArray)/sizeof(demoPageArray[0]))
  79:main_cm4.c    **** 
  80:main_cm4.c    **** /*******************************************************************************
  81:main_cm4.c    **** * Function Name: void UpdateDisplay(void)
  82:main_cm4.c    **** ********************************************************************************
  83:main_cm4.c    **** *
  84:main_cm4.c    **** * Summary: This function updates the display with the data in the display 
  85:main_cm4.c    **** *			buffer.  The function first transfers the content of the EmWin
  86:main_cm4.c    **** *			display buffer to the primary EInk display buffer.  Then it calls
ARM GAS  C:\Users\louis\AppData\Local\Temp\ccj8Y2ua.s 			page 3


  87:main_cm4.c    **** *			the Cy_EINK_ShowFrame function to update the display, and then
  88:main_cm4.c    **** *			it copies the EmWin display buffer to the Eink display cache buffer
  89:main_cm4.c    **** *
  90:main_cm4.c    **** * Parameters:
  91:main_cm4.c    **** *  None
  92:main_cm4.c    **** *
  93:main_cm4.c    **** * Return:
  94:main_cm4.c    **** *  None
  95:main_cm4.c    **** *
  96:main_cm4.c    **** * Side Effects:
  97:main_cm4.c    **** *  It takes about a second to refresh the display.  This is a blocking function
  98:main_cm4.c    **** *  and only returns after the display refresh
  99:main_cm4.c    **** *
 100:main_cm4.c    **** *******************************************************************************/
 101:main_cm4.c    **** void UpdateDisplay(cy_eink_update_t updateMethod, bool powerCycle)
 102:main_cm4.c    **** {
  29              		.loc 1 102 0
  30              		.cfi_startproc
  31              		@ args = 0, pretend = 0, frame = 0
  32              		@ frame_needed = 0, uses_anonymous_args = 0
  33              	.LVL0:
  34 0000 F8B5     		push	{r3, r4, r5, r6, r7, lr}
  35              		.cfi_def_cfa_offset 24
  36              		.cfi_offset 3, -24
  37              		.cfi_offset 4, -20
  38              		.cfi_offset 5, -16
  39              		.cfi_offset 6, -12
  40              		.cfi_offset 7, -8
  41              		.cfi_offset 14, -4
  42 0002 0646     		mov	r6, r0
  43 0004 0F46     		mov	r7, r1
 103:main_cm4.c    ****     cy_eink_frame_t* pEmwinBuffer;
 104:main_cm4.c    **** 
 105:main_cm4.c    ****     /* Get the pointer to Emwin's display buffer */
 106:main_cm4.c    ****     pEmwinBuffer = (cy_eink_frame_t*)LCD_GetDisplayBuffer();
  44              		.loc 1 106 0
  45 0006 FFF7FEFF 		bl	LCD_GetDisplayBuffer
  46              	.LVL1:
  47 000a 0546     		mov	r5, r0
  48              	.LVL2:
 107:main_cm4.c    **** 
 108:main_cm4.c    ****     /* Update the EInk display */
 109:main_cm4.c    ****     Cy_EINK_ShowFrame(imageBufferCache, pEmwinBuffer, updateMethod, powerCycle);
  49              		.loc 1 109 0
  50 000c 064C     		ldr	r4, .L3
  51 000e 3B46     		mov	r3, r7
  52 0010 3246     		mov	r2, r6
  53 0012 0146     		mov	r1, r0
  54 0014 2046     		mov	r0, r4
  55              	.LVL3:
  56 0016 FFF7FEFF 		bl	Cy_EINK_ShowFrame
  57              	.LVL4:
 110:main_cm4.c    **** 
 111:main_cm4.c    ****     /* Copy the EmWin display buffer to the imageBuffer cache*/
 112:main_cm4.c    ****     memcpy(imageBufferCache, pEmwinBuffer, CY_EINK_FRAME_SIZE);
  58              		.loc 1 112 0
  59 001a 41F2B062 		movw	r2, #5808
ARM GAS  C:\Users\louis\AppData\Local\Temp\ccj8Y2ua.s 			page 4


  60 001e 2946     		mov	r1, r5
  61 0020 2046     		mov	r0, r4
  62 0022 FFF7FEFF 		bl	memcpy
  63              	.LVL5:
  64 0026 F8BD     		pop	{r3, r4, r5, r6, r7, pc}
  65              	.LVL6:
  66              	.L4:
  67              		.align	2
  68              	.L3:
  69 0028 00000000 		.word	.LANCHOR0
  70              		.cfi_endproc
  71              	.LFE681:
  72              		.size	UpdateDisplay, .-UpdateDisplay
  73              		.global	__aeabi_f2d
  74              		.global	__aeabi_dmul
  75              		.global	__aeabi_dadd
  76              		.section	.text.TemperatureDisplay,"ax",%progbits
  77              		.align	2
  78              		.global	TemperatureDisplay
  79              		.thumb
  80              		.thumb_func
  81              		.type	TemperatureDisplay, %function
  82              	TemperatureDisplay:
  83              	.LFB686:
 113:main_cm4.c    **** }
 114:main_cm4.c    **** 
 115:main_cm4.c    **** /*******************************************************************************
 116:main_cm4.c    **** * Function Name: void ShowStartupScreen(void)
 117:main_cm4.c    **** ********************************************************************************
 118:main_cm4.c    **** *
 119:main_cm4.c    **** * Summary: This function displays the startup screen with Cypress Logo and 
 120:main_cm4.c    **** *			the demo description text
 121:main_cm4.c    **** *
 122:main_cm4.c    **** * Parameters:
 123:main_cm4.c    **** *  None
 124:main_cm4.c    **** *
 125:main_cm4.c    **** * Return:
 126:main_cm4.c    **** *  None
 127:main_cm4.c    **** *
 128:main_cm4.c    **** *******************************************************************************/
 129:main_cm4.c    **** void ShowStartupScreen(void)
 130:main_cm4.c    **** {
 131:main_cm4.c    ****     /* Set foreground and background color and font size */
 132:main_cm4.c    ****     GUI_SetFont(GUI_FONT_20_1);
 133:main_cm4.c    ****     GUI_SetColor(GUI_BLACK);
 134:main_cm4.c    ****     GUI_SetBkColor(GUI_WHITE);
 135:main_cm4.c    ****     GUI_Clear();
 136:main_cm4.c    **** 
 137:main_cm4.c    ****     GUI_DrawBitmap(&bmCypressLogoFullColor_PNG_1bpp, 2, 2);
 138:main_cm4.c    ****     GUI_SetTextAlign(GUI_TA_HCENTER);
 139:main_cm4.c    ****     GUI_DispStringAt("Campanion", 132, 105);
 140:main_cm4.c    ****     GUI_SetTextAlign(GUI_TA_HCENTER);
 141:main_cm4.c    ****     GUI_DispStringAt("Your Camping Buddy", 132, 125);
 142:main_cm4.c    ****    // GUI_SetTextAlign(GUI_TA_HCENTER);
 143:main_cm4.c    ****     //GUI_DispStringAt("EINK DISPLAY DEMO", 132, 125);
 144:main_cm4.c    ****   
 145:main_cm4.c    ****     /* Send the display buffer data to display*/
ARM GAS  C:\Users\louis\AppData\Local\Temp\ccj8Y2ua.s 			page 5


 146:main_cm4.c    ****     UpdateDisplay(CY_EINK_FULL_4STAGE, true);
 147:main_cm4.c    **** }
 148:main_cm4.c    **** 
 149:main_cm4.c    **** 
 150:main_cm4.c    **** /*******************************************************************************
 151:main_cm4.c    **** * Function Name: void ShowInstructionsScreen(void)
 152:main_cm4.c    **** ********************************************************************************
 153:main_cm4.c    **** *
 154:main_cm4.c    **** * Summary: This function shows screen with instructions to press SW2 to
 155:main_cm4.c    **** *			scroll through various display pages
 156:main_cm4.c    **** *
 157:main_cm4.c    **** * Parameters:
 158:main_cm4.c    **** *  None
 159:main_cm4.c    **** *
 160:main_cm4.c    **** * Return:
 161:main_cm4.c    **** *  None
 162:main_cm4.c    **** *
 163:main_cm4.c    **** *******************************************************************************/
 164:main_cm4.c    **** void ShowInstructionsScreen(void)
 165:main_cm4.c    **** {
 166:main_cm4.c    ****     /* Set font size, background color and text mode */
 167:main_cm4.c    ****     GUI_SetFont(GUI_FONT_16B_1);
 168:main_cm4.c    ****     GUI_SetBkColor(GUI_WHITE);
 169:main_cm4.c    ****     GUI_SetColor(GUI_BLACK);	
 170:main_cm4.c    ****     GUI_SetTextMode(GUI_TM_NORMAL);
 171:main_cm4.c    **** 
 172:main_cm4.c    ****     /* Clear the display */
 173:main_cm4.c    ****     GUI_Clear();
 174:main_cm4.c    **** 
 175:main_cm4.c    ****     /* Display instructions text */
 176:main_cm4.c    ****     GUI_SetTextAlign(GUI_TA_HCENTER);
 177:main_cm4.c    ****     GUI_DispStringAt("PRESS THE PUSH BUTTON", 132, 58);
 178:main_cm4.c    ****     GUI_SetTextAlign(GUI_TA_HCENTER);
 179:main_cm4.c    ****     GUI_DispStringAt("TO SCROLL THROUGH ", 132, 78);
 180:main_cm4.c    ****     GUI_SetTextAlign(GUI_TA_HCENTER);
 181:main_cm4.c    ****     GUI_DispStringAt("THE PAGES!", 132, 98);
 182:main_cm4.c    **** 
 183:main_cm4.c    ****     /* Send the display buffer data to display*/
 184:main_cm4.c    ****     UpdateDisplay(CY_EINK_FULL_4STAGE, true);
 185:main_cm4.c    **** }
 186:main_cm4.c    **** 
 187:main_cm4.c    **** 
 188:main_cm4.c    **** /*******************************************************************************
 189:main_cm4.c    **** * Function Name: void ClearScreen(void)
 190:main_cm4.c    **** ********************************************************************************
 191:main_cm4.c    **** *
 192:main_cm4.c    **** * Summary: This function clears the screen
 193:main_cm4.c    **** *
 194:main_cm4.c    **** * Parameters:
 195:main_cm4.c    **** *  None
 196:main_cm4.c    **** *
 197:main_cm4.c    **** * Return:
 198:main_cm4.c    **** *  None
 199:main_cm4.c    **** *
 200:main_cm4.c    **** *******************************************************************************/
 201:main_cm4.c    **** void ClearScreen(void)
 202:main_cm4.c    **** {
ARM GAS  C:\Users\louis\AppData\Local\Temp\ccj8Y2ua.s 			page 6


 203:main_cm4.c    ****     GUI_SetColor(GUI_BLACK);
 204:main_cm4.c    ****     GUI_SetBkColor(GUI_WHITE);
 205:main_cm4.c    ****     GUI_Clear();
 206:main_cm4.c    ****     UpdateDisplay(CY_EINK_FULL_4STAGE, true);
 207:main_cm4.c    **** }
 208:main_cm4.c    **** 
 209:main_cm4.c    **** 
 210:main_cm4.c    **** /*******************************************************************************
 211:main_cm4.c    **** * Function Name: void WaitforSwitchPressAndRelease(void)
 212:main_cm4.c    **** ********************************************************************************
 213:main_cm4.c    **** *
 214:main_cm4.c    **** * Summary: This implements a simple "Wait for button press and release"
 215:main_cm4.c    **** *			function.  It first waits for the button to be pressed and then
 216:main_cm4.c    **** *			waits for the button to be released.
 217:main_cm4.c    **** *
 218:main_cm4.c    **** * Parameters:
 219:main_cm4.c    **** *  None
 220:main_cm4.c    **** *
 221:main_cm4.c    **** * Return:
 222:main_cm4.c    **** *  None
 223:main_cm4.c    **** *
 224:main_cm4.c    **** * Side Effects:
 225:main_cm4.c    **** *  This is a blocking function and exits only on a button press and release
 226:main_cm4.c    **** *
 227:main_cm4.c    **** *******************************************************************************/
 228:main_cm4.c    **** void WaitforSwitchPressAndRelease(void)
 229:main_cm4.c    **** {
 230:main_cm4.c    ****     /* Wait for SW2 to be pressed */
 231:main_cm4.c    ****     while(Status_SW2_Read() != 0);
 232:main_cm4.c    ****     
 233:main_cm4.c    ****     /* Wait for SW2 to be released */
 234:main_cm4.c    ****     while(Status_SW2_Read() == 0);
 235:main_cm4.c    **** }
 236:main_cm4.c    **** 
 237:main_cm4.c    **** 
 238:main_cm4.c    **** 
 239:main_cm4.c    **** 
 240:main_cm4.c    **** void TemperatureDisplay(void)
 241:main_cm4.c    **** {
  84              		.loc 1 241 0
  85              		.cfi_startproc
  86              		@ args = 0, pretend = 0, frame = 56
  87              		@ frame_needed = 0, uses_anonymous_args = 0
  88 0000 2DE9F043 		push	{r4, r5, r6, r7, r8, r9, lr}
  89              		.cfi_def_cfa_offset 28
  90              		.cfi_offset 4, -28
  91              		.cfi_offset 5, -24
  92              		.cfi_offset 6, -20
  93              		.cfi_offset 7, -16
  94              		.cfi_offset 8, -12
  95              		.cfi_offset 9, -8
  96              		.cfi_offset 14, -4
  97 0004 2DED048B 		vpush.64	{d8, d9}
  98              		.cfi_def_cfa_offset 44
  99              		.cfi_offset 80, -44
 100              		.cfi_offset 81, -40
 101              		.cfi_offset 82, -36
ARM GAS  C:\Users\louis\AppData\Local\Temp\ccj8Y2ua.s 			page 7


 102              		.cfi_offset 83, -32
 103 0008 97B0     		sub	sp, sp, #92
 104              		.cfi_def_cfa_offset 136
 242:main_cm4.c    **** 
 243:main_cm4.c    ****     UART_1_Start();
 105              		.loc 1 243 0
 106 000a FFF7FEFF 		bl	UART_1_Start
 107              	.LVL7:
 244:main_cm4.c    ****     ADC_1_Start();
 108              		.loc 1 244 0
 109 000e FFF7FEFF 		bl	ADC_1_Start
 110              	.LVL8:
 245:main_cm4.c    ****     Cy_SAR_StartConvert(SAR,CY_SAR_START_CONVERT_CONTINUOUS);
 111              		.loc 1 245 0
 112 0012 4F4C     		ldr	r4, .L7+8
 113 0014 0121     		movs	r1, #1
 114 0016 2046     		mov	r0, r4
 115 0018 FFF7FEFF 		bl	Cy_SAR_StartConvert
 116              	.LVL9:
 246:main_cm4.c    ****     
 247:main_cm4.c    ****     float v1,v2;
 248:main_cm4.c    ****     int16_t countThermistor, countReference;
 249:main_cm4.c    **** 
 250:main_cm4.c    ****     /* Read the ADC count values */
 251:main_cm4.c    ****     countReference  = Cy_SAR_GetResult16(SAR,0);
 117              		.loc 1 251 0
 118 001c 0021     		movs	r1, #0
 119 001e 2046     		mov	r0, r4
 120 0020 FFF7FEFF 		bl	Cy_SAR_GetResult16
 121              	.LVL10:
 122 0024 0546     		mov	r5, r0
 123              	.LVL11:
 252:main_cm4.c    ****     countThermistor = Cy_SAR_GetResult16(SAR,1);
 124              		.loc 1 252 0
 125 0026 0121     		movs	r1, #1
 126 0028 2046     		mov	r0, r4
 127 002a FFF7FEFF 		bl	Cy_SAR_GetResult16
 128              	.LVL12:
 129 002e 0646     		mov	r6, r0
 130              	.LVL13:
 253:main_cm4.c    **** 
 254:main_cm4.c    ****     v1 = Cy_SAR_CountsTo_Volts(SAR,0,countReference);
 131              		.loc 1 254 0
 132 0030 2A46     		mov	r2, r5
 133 0032 0021     		movs	r1, #0
 134 0034 2046     		mov	r0, r4
 135 0036 FFF7FEFF 		bl	Cy_SAR_CountsTo_Volts
 136              	.LVL14:
 137 003a 08EE900A 		vmov	s17, r0
 138              	.LVL15:
 255:main_cm4.c    ****     v2 = Cy_SAR_CountsTo_Volts(SAR,1,countThermistor);
 139              		.loc 1 255 0
 140 003e 3246     		mov	r2, r6
 141 0040 0121     		movs	r1, #1
 142 0042 2046     		mov	r0, r4
 143              	.LVL16:
 144 0044 FFF7FEFF 		bl	Cy_SAR_CountsTo_Volts
ARM GAS  C:\Users\louis\AppData\Local\Temp\ccj8Y2ua.s 			page 8


 145              	.LVL17:
 146 0048 08EE100A 		vmov	s16, r0
 147              	.LVL18:
 256:main_cm4.c    **** 
 257:main_cm4.c    ****     uint32 resT = Thermistor_GetResistance(countReference, countThermistor);
 148              		.loc 1 257 0
 149 004c 3146     		mov	r1, r6
 150 004e 2846     		mov	r0, r5
 151              	.LVL19:
 152 0050 FFF7FEFF 		bl	Thermistor_GetResistance
 153              	.LVL20:
 258:main_cm4.c    ****     float temperature = (float)Thermistor_GetTemperature(resT) / 100.0 ;
 154              		.loc 1 258 0
 155 0054 FFF7FEFF 		bl	Thermistor_GetTemperature
 156              	.LVL21:
 157 0058 07EE900A 		vmov	s15, r0	@ int
 158 005c B8EEE77A 		vcvt.f32.s32	s14, s15
 159              	.LVL22:
 259:main_cm4.c    **** 
 260:main_cm4.c    ****     printf("V1 = %fv V2=%fv Vtot =%fv T=%fC T=%fF\r\n",v1,v2,v1+v2,temperature,9.0/5.0*temperature 
 160              		.loc 1 260 0
 161 0060 38EE889A 		vadd.f32	s18, s17, s16
 162 0064 DFED3B7A 		vldr.32	s15, .L7+12
 163 0068 C7EE276A 		vdiv.f32	s13, s14, s15
 164              	.LVL23:
 165 006c 16EE900A 		vmov	r0, s13
 166 0070 FFF7FEFF 		bl	__aeabi_f2d
 167              	.LVL24:
 168 0074 0446     		mov	r4, r0
 169 0076 0D46     		mov	r5, r1
 170              	.LVL25:
 171 0078 33A3     		adr	r3, .L7
 172 007a D3E90023 		ldrd	r2, [r3]
 173 007e FFF7FEFF 		bl	__aeabi_dmul
 174              	.LVL26:
 175 0082 8046     		mov	r8, r0
 176 0084 8946     		mov	r9, r1
 177 0086 18EE900A 		vmov	r0, s17
 178 008a FFF7FEFF 		bl	__aeabi_f2d
 179              	.LVL27:
 180 008e 0646     		mov	r6, r0
 181              	.LVL28:
 182 0090 0F46     		mov	r7, r1
 183 0092 0022     		movs	r2, #0
 184 0094 304B     		ldr	r3, .L7+16
 185 0096 4046     		mov	r0, r8
 186 0098 4946     		mov	r1, r9
 187 009a FFF7FEFF 		bl	__aeabi_dadd
 188              	.LVL29:
 189 009e CDE90601 		strd	r0, [sp, #24]
 190 00a2 CDE90445 		strd	r4, [sp, #16]
 191 00a6 19EE100A 		vmov	r0, s18
 192 00aa FFF7FEFF 		bl	__aeabi_f2d
 193              	.LVL30:
 194 00ae CDE90201 		strd	r0, [sp, #8]
 195 00b2 18EE100A 		vmov	r0, s16
 196 00b6 FFF7FEFF 		bl	__aeabi_f2d
ARM GAS  C:\Users\louis\AppData\Local\Temp\ccj8Y2ua.s 			page 9


 197              	.LVL31:
 198 00ba CDE90001 		strd	r0, [sp]
 199 00be 3246     		mov	r2, r6
 200 00c0 3B46     		mov	r3, r7
 201 00c2 2648     		ldr	r0, .L7+20
 202 00c4 FFF7FEFF 		bl	printf
 203              	.LVL32:
 261:main_cm4.c    ****      
 262:main_cm4.c    ****      char c[50]; //size of the number
 263:main_cm4.c    ****      sprintf(c, "%g", temperature);
 204              		.loc 1 263 0
 205 00c8 2246     		mov	r2, r4
 206 00ca 2B46     		mov	r3, r5
 207 00cc 2449     		ldr	r1, .L7+24
 208 00ce 09A8     		add	r0, sp, #36
 209 00d0 FFF7FEFF 		bl	sprintf
 210              	.LVL33:
 264:main_cm4.c    ****     
 265:main_cm4.c    **** 
 266:main_cm4.c    ****     
 267:main_cm4.c    ****     /* Set font size, foreground and background colors */
 268:main_cm4.c    ****     GUI_SetColor(GUI_BLACK);
 211              		.loc 1 268 0
 212 00d4 0020     		movs	r0, #0
 213 00d6 FFF7FEFF 		bl	GUI_SetColor
 214              	.LVL34:
 269:main_cm4.c    ****     GUI_SetBkColor(GUI_WHITE);
 215              		.loc 1 269 0
 216 00da 6FF07F40 		mvn	r0, #-16777216
 217 00de FFF7FEFF 		bl	GUI_SetBkColor
 218              	.LVL35:
 270:main_cm4.c    ****     GUI_SetTextMode(GUI_TM_NORMAL);
 219              		.loc 1 270 0
 220 00e2 0020     		movs	r0, #0
 221 00e4 FFF7FEFF 		bl	GUI_SetTextMode
 222              	.LVL36:
 271:main_cm4.c    ****     GUI_SetTextStyle(GUI_TS_NORMAL);
 223              		.loc 1 271 0
 224 00e8 0020     		movs	r0, #0
 225 00ea FFF7FEFF 		bl	GUI_SetTextStyle
 226              	.LVL37:
 272:main_cm4.c    ****     
 273:main_cm4.c    **** 
 274:main_cm4.c    ****     /* Clear the screen */
 275:main_cm4.c    ****     GUI_Clear();
 227              		.loc 1 275 0
 228 00ee FFF7FEFF 		bl	GUI_Clear
 229              	.LVL38:
 276:main_cm4.c    ****     
 277:main_cm4.c    ****         /* Display page title */
 278:main_cm4.c    ****     GUI_SetFont(GUI_FONT_20_1);
 230              		.loc 1 278 0
 231 00f2 1C4C     		ldr	r4, .L7+28
 232 00f4 2046     		mov	r0, r4
 233 00f6 FFF7FEFF 		bl	GUI_SetFont
 234              	.LVL39:
 279:main_cm4.c    ****     GUI_SetTextAlign(GUI_TA_HCENTER);
ARM GAS  C:\Users\louis\AppData\Local\Temp\ccj8Y2ua.s 			page 10


 235              		.loc 1 279 0
 236 00fa 0220     		movs	r0, #2
 237 00fc FFF7FEFF 		bl	GUI_SetTextAlign
 238              	.LVL40:
 280:main_cm4.c    ****     GUI_DispStringAt("Current temperature", 132, 5);
 239              		.loc 1 280 0
 240 0100 0522     		movs	r2, #5
 241 0102 8421     		movs	r1, #132
 242 0104 1848     		ldr	r0, .L7+32
 243 0106 FFF7FEFF 		bl	GUI_DispStringAt
 244              	.LVL41:
 281:main_cm4.c    ****     
 282:main_cm4.c    **** 
 283:main_cm4.c    ****     /* Display labels */	
 284:main_cm4.c    ****     GUI_SetFont(GUI_FONT_D64);
 245              		.loc 1 284 0
 246 010a 1848     		ldr	r0, .L7+36
 247 010c FFF7FEFF 		bl	GUI_SetFont
 248              	.LVL42:
 285:main_cm4.c    ****     GUI_SetTextAlign(GUI_TA_HCENTER);
 249              		.loc 1 285 0
 250 0110 0220     		movs	r0, #2
 251 0112 FFF7FEFF 		bl	GUI_SetTextAlign
 252              	.LVL43:
 286:main_cm4.c    ****     GUI_DispStringAt(c, 132, 53);
 253              		.loc 1 286 0
 254 0116 3522     		movs	r2, #53
 255 0118 8421     		movs	r1, #132
 256 011a 09A8     		add	r0, sp, #36
 257 011c FFF7FEFF 		bl	GUI_DispStringAt
 258              	.LVL44:
 287:main_cm4.c    **** 
 288:main_cm4.c    ****     GUI_SetFont(GUI_FONT_20_1);
 259              		.loc 1 288 0
 260 0120 2046     		mov	r0, r4
 261 0122 FFF7FEFF 		bl	GUI_SetFont
 262              	.LVL45:
 289:main_cm4.c    ****     GUI_SetTextAlign(GUI_TA_HCENTER);
 263              		.loc 1 289 0
 264 0126 0220     		movs	r0, #2
 265 0128 FFF7FEFF 		bl	GUI_SetTextAlign
 266              	.LVL46:
 290:main_cm4.c    ****     GUI_DispStringAt("degrees", 132, 150);
 267              		.loc 1 290 0
 268 012c 9622     		movs	r2, #150
 269 012e 8421     		movs	r1, #132
 270 0130 0F48     		ldr	r0, .L7+40
 271 0132 FFF7FEFF 		bl	GUI_DispStringAt
 272              	.LVL47:
 291:main_cm4.c    ****     
 292:main_cm4.c    ****     
 293:main_cm4.c    ****     
 294:main_cm4.c    ****     UpdateDisplay(CY_EINK_FULL_4STAGE, true);
 273              		.loc 1 294 0
 274 0136 0121     		movs	r1, #1
 275 0138 0846     		mov	r0, r1
 276 013a FFF7FEFF 		bl	UpdateDisplay
ARM GAS  C:\Users\louis\AppData\Local\Temp\ccj8Y2ua.s 			page 11


 277              	.LVL48:
 295:main_cm4.c    ****     
 296:main_cm4.c    **** 
 297:main_cm4.c    ****     
 298:main_cm4.c    **** }  
 278              		.loc 1 298 0
 279 013e 17B0     		add	sp, sp, #92
 280              		.cfi_def_cfa_offset 44
 281              		@ sp needed
 282 0140 BDEC048B 		vldm	sp!, {d8-d9}
 283              		.cfi_restore 82
 284              		.cfi_restore 83
 285              		.cfi_restore 80
 286              		.cfi_restore 81
 287              		.cfi_def_cfa_offset 28
 288              	.LVL49:
 289 0144 BDE8F083 		pop	{r4, r5, r6, r7, r8, r9, pc}
 290              	.L8:
 291              		.align	3
 292              	.L7:
 293 0148 CDCCCCCC 		.word	-858993459
 294 014c CCCCFC3F 		.word	1073532108
 295 0150 00001D41 		.word	1092419584
 296 0154 0000C842 		.word	1120403456
 297 0158 00004040 		.word	1077936128
 298 015c 00000000 		.word	.LC7
 299 0160 28000000 		.word	.LC8
 300 0164 00000000 		.word	GUI_Font20_1
 301 0168 2C000000 		.word	.LC9
 302 016c 00000000 		.word	GUI_FontD64
 303 0170 40000000 		.word	.LC10
 304              		.cfi_endproc
 305              	.LFE686:
 306              		.size	TemperatureDisplay, .-TemperatureDisplay
 307              		.global	__aeabi_dcmpgt
 308              		.section	.text.GasSensor,"ax",%progbits
 309              		.align	2
 310              		.global	GasSensor
 311              		.thumb
 312              		.thumb_func
 313              		.type	GasSensor, %function
 314              	GasSensor:
 315              	.LFB687:
 299:main_cm4.c    **** 
 300:main_cm4.c    **** void GasSensor(void)
 301:main_cm4.c    **** {
 316              		.loc 1 301 0
 317              		.cfi_startproc
 318              		@ args = 0, pretend = 0, frame = 72
 319              		@ frame_needed = 0, uses_anonymous_args = 0
 320 0000 70B5     		push	{r4, r5, r6, lr}
 321              		.cfi_def_cfa_offset 16
 322              		.cfi_offset 4, -16
 323              		.cfi_offset 5, -12
 324              		.cfi_offset 6, -8
 325              		.cfi_offset 14, -4
 326 0002 2DED028B 		vpush.64	{d8}
ARM GAS  C:\Users\louis\AppData\Local\Temp\ccj8Y2ua.s 			page 12


 327              		.cfi_def_cfa_offset 24
 328              		.cfi_offset 80, -24
 329              		.cfi_offset 81, -20
 330 0006 92B0     		sub	sp, sp, #72
 331              		.cfi_def_cfa_offset 96
 302:main_cm4.c    ****     UART_1_Start();
 332              		.loc 1 302 0
 333 0008 FFF7FEFF 		bl	UART_1_Start
 334              	.LVL50:
 303:main_cm4.c    ****     ADC_1_Start();
 335              		.loc 1 303 0
 336 000c FFF7FEFF 		bl	ADC_1_Start
 337              	.LVL51:
 304:main_cm4.c    ****     Cy_SAR_StartConvert(SAR,CY_SAR_START_CONVERT_CONTINUOUS);
 338              		.loc 1 304 0
 339 0010 0121     		movs	r1, #1
 340 0012 4148     		ldr	r0, .L17+8
 341 0014 FFF7FEFF 		bl	Cy_SAR_StartConvert
 342              	.LVL52:
 343              	.L13:
 344              	.LBB28:
 305:main_cm4.c    ****     
 306:main_cm4.c    ****     float value;
 307:main_cm4.c    ****   //  int16_t value;
 308:main_cm4.c    **** 
 309:main_cm4.c    ****     /* Read the ADC count values */
 310:main_cm4.c    ****     
 311:main_cm4.c    ****     
 312:main_cm4.c    **** 
 313:main_cm4.c    ****     
 314:main_cm4.c    ****     //v2 = Cy_SAR_CountsTo_Volts(SAR,2,countThermistor);
 315:main_cm4.c    **** 
 316:main_cm4.c    ****     float reading, calc;
 317:main_cm4.c    ****     //int16_t reading;
 318:main_cm4.c    ****     for (;;) {
 319:main_cm4.c    ****         /* Read the ADC count values */
 320:main_cm4.c    ****         value  = Cy_SAR_GetResult16(SAR,2);
 345              		.loc 1 320 0
 346 0018 3F4C     		ldr	r4, .L17+8
 347 001a 0221     		movs	r1, #2
 348 001c 2046     		mov	r0, r4
 349 001e FFF7FEFF 		bl	Cy_SAR_GetResult16
 350              	.LVL53:
 351 0022 07EE900A 		vmov	s15, r0	@ int
 352 0026 B8EEE78A 		vcvt.f32.s32	s16, s15
 353              	.LVL54:
 321:main_cm4.c    ****         reading  = Cy_SAR_GetResult16(SAR,2);
 354              		.loc 1 321 0
 355 002a 0221     		movs	r1, #2
 356 002c 2046     		mov	r0, r4
 357 002e FFF7FEFF 		bl	Cy_SAR_GetResult16
 358              	.LVL55:
 322:main_cm4.c    ****         calc = Cy_SAR_CountsTo_Volts(SAR,2,reading);
 359              		.loc 1 322 0
 360 0032 0246     		mov	r2, r0
 361 0034 0221     		movs	r1, #2
 362 0036 2046     		mov	r0, r4
ARM GAS  C:\Users\louis\AppData\Local\Temp\ccj8Y2ua.s 			page 13


 363              	.LVL56:
 364 0038 FFF7FEFF 		bl	Cy_SAR_CountsTo_Volts
 365              	.LVL57:
 323:main_cm4.c    ****         char c[50]; //size of the number
 324:main_cm4.c    ****         sprintf(c, "%g", calc);
 366              		.loc 1 324 0
 367 003c FFF7FEFF 		bl	__aeabi_f2d
 368              	.LVL58:
 369 0040 0446     		mov	r4, r0
 370 0042 0D46     		mov	r5, r1
 371 0044 0246     		mov	r2, r0
 372 0046 0B46     		mov	r3, r1
 373 0048 3449     		ldr	r1, .L17+12
 374 004a 05A8     		add	r0, sp, #20
 375 004c FFF7FEFF 		bl	sprintf
 376              	.LVL59:
 325:main_cm4.c    ****         char str[20];
 326:main_cm4.c    ****         sprintf(str, "%f", value);
 377              		.loc 1 326 0
 378 0050 18EE100A 		vmov	r0, s16
 379 0054 FFF7FEFF 		bl	__aeabi_f2d
 380              	.LVL60:
 381 0058 0246     		mov	r2, r0
 382 005a 0B46     		mov	r3, r1
 383 005c 3049     		ldr	r1, .L17+16
 384 005e 6846     		mov	r0, sp
 385 0060 FFF7FEFF 		bl	sprintf
 386              	.LVL61:
 327:main_cm4.c    ****         printf("You have entered: %s", str);
 387              		.loc 1 327 0
 388 0064 6946     		mov	r1, sp
 389 0066 2F48     		ldr	r0, .L17+20
 390 0068 FFF7FEFF 		bl	printf
 391              	.LVL62:
 328:main_cm4.c    ****         
 329:main_cm4.c    ****         
 330:main_cm4.c    ****         /* Set font size, foreground and background colors */
 331:main_cm4.c    ****         GUI_SetColor(GUI_BLACK);
 392              		.loc 1 331 0
 393 006c 0020     		movs	r0, #0
 394 006e FFF7FEFF 		bl	GUI_SetColor
 395              	.LVL63:
 332:main_cm4.c    ****         GUI_SetBkColor(GUI_WHITE);
 396              		.loc 1 332 0
 397 0072 6FF07F40 		mvn	r0, #-16777216
 398 0076 FFF7FEFF 		bl	GUI_SetBkColor
 399              	.LVL64:
 333:main_cm4.c    ****         GUI_SetTextMode(GUI_TM_NORMAL);
 400              		.loc 1 333 0
 401 007a 0020     		movs	r0, #0
 402 007c FFF7FEFF 		bl	GUI_SetTextMode
 403              	.LVL65:
 334:main_cm4.c    ****         GUI_SetTextStyle(GUI_TS_NORMAL);
 404              		.loc 1 334 0
 405 0080 0020     		movs	r0, #0
 406 0082 FFF7FEFF 		bl	GUI_SetTextStyle
 407              	.LVL66:
ARM GAS  C:\Users\louis\AppData\Local\Temp\ccj8Y2ua.s 			page 14


 335:main_cm4.c    ****         
 336:main_cm4.c    **** 
 337:main_cm4.c    ****         /* Clear the screen */
 338:main_cm4.c    ****         GUI_Clear();
 408              		.loc 1 338 0
 409 0086 FFF7FEFF 		bl	GUI_Clear
 410              	.LVL67:
 339:main_cm4.c    ****         
 340:main_cm4.c    ****             /* Display page title */
 341:main_cm4.c    ****         GUI_SetFont(GUI_FONT_20_1);
 411              		.loc 1 341 0
 412 008a 274E     		ldr	r6, .L17+24
 413 008c 3046     		mov	r0, r6
 414 008e FFF7FEFF 		bl	GUI_SetFont
 415              	.LVL68:
 342:main_cm4.c    ****         GUI_SetTextAlign(GUI_TA_HCENTER);
 416              		.loc 1 342 0
 417 0092 0220     		movs	r0, #2
 418 0094 FFF7FEFF 		bl	GUI_SetTextAlign
 419              	.LVL69:
 343:main_cm4.c    ****         GUI_DispStringAt("Gas reading", 132, 5);
 420              		.loc 1 343 0
 421 0098 0522     		movs	r2, #5
 422 009a 8421     		movs	r1, #132
 423 009c 2348     		ldr	r0, .L17+28
 424 009e FFF7FEFF 		bl	GUI_DispStringAt
 425              	.LVL70:
 344:main_cm4.c    ****         
 345:main_cm4.c    **** 
 346:main_cm4.c    ****         /* Display labels */	
 347:main_cm4.c    ****         GUI_SetFont(GUI_FONT_D32);
 426              		.loc 1 347 0
 427 00a2 2348     		ldr	r0, .L17+32
 428 00a4 FFF7FEFF 		bl	GUI_SetFont
 429              	.LVL71:
 348:main_cm4.c    ****         GUI_SetTextAlign(GUI_TA_HCENTER);
 430              		.loc 1 348 0
 431 00a8 0220     		movs	r0, #2
 432 00aa FFF7FEFF 		bl	GUI_SetTextAlign
 433              	.LVL72:
 349:main_cm4.c    ****         GUI_DispStringAt(c, 132, 53);
 434              		.loc 1 349 0
 435 00ae 3522     		movs	r2, #53
 436 00b0 8421     		movs	r1, #132
 437 00b2 05A8     		add	r0, sp, #20
 438 00b4 FFF7FEFF 		bl	GUI_DispStringAt
 439              	.LVL73:
 350:main_cm4.c    **** 
 351:main_cm4.c    ****         GUI_SetFont(GUI_FONT_20_1);
 440              		.loc 1 351 0
 441 00b8 3046     		mov	r0, r6
 442 00ba FFF7FEFF 		bl	GUI_SetFont
 443              	.LVL74:
 352:main_cm4.c    ****         GUI_SetTextAlign(GUI_TA_HCENTER);
 444              		.loc 1 352 0
 445 00be 0220     		movs	r0, #2
 446 00c0 FFF7FEFF 		bl	GUI_SetTextAlign
ARM GAS  C:\Users\louis\AppData\Local\Temp\ccj8Y2ua.s 			page 15


 447              	.LVL75:
 353:main_cm4.c    ****         GUI_DispStringAt("", 132, 150);
 448              		.loc 1 353 0
 449 00c4 9622     		movs	r2, #150
 450 00c6 8421     		movs	r1, #132
 451 00c8 1A48     		ldr	r0, .L17+36
 452 00ca FFF7FEFF 		bl	GUI_DispStringAt
 453              	.LVL76:
 354:main_cm4.c    ****         
 355:main_cm4.c    ****         printf("test"); 
 454              		.loc 1 355 0
 455 00ce 1A48     		ldr	r0, .L17+40
 456 00d0 FFF7FEFF 		bl	printf
 457              	.LVL77:
 356:main_cm4.c    ****     
 357:main_cm4.c    ****         UpdateDisplay(CY_EINK_FULL_4STAGE, true);
 458              		.loc 1 357 0
 459 00d4 0121     		movs	r1, #1
 460 00d6 0846     		mov	r0, r1
 461 00d8 FFF7FEFF 		bl	UpdateDisplay
 462              	.LVL78:
 358:main_cm4.c    ****         
 359:main_cm4.c    ****         
 360:main_cm4.c    ****         if (calc > 0.3) {
 463              		.loc 1 360 0
 464 00dc 0CA3     		adr	r3, .L17
 465 00de D3E90023 		ldrd	r2, [r3]
 466 00e2 2046     		mov	r0, r4
 467 00e4 2946     		mov	r1, r5
 468 00e6 FFF7FEFF 		bl	__aeabi_dcmpgt
 469              	.LVL79:
 470 00ea 48B1     		cbz	r0, .L15
 361:main_cm4.c    ****             PWM_Start();
 471              		.loc 1 361 0
 472 00ec FFF7FEFF 		bl	PWM_Start
 473              	.LVL80:
 362:main_cm4.c    ****                CyDelay(10000);
 474              		.loc 1 362 0
 475 00f0 42F21070 		movw	r0, #10000
 476 00f4 FFF7FEFF 		bl	Cy_SysLib_Delay
 477              	.LVL81:
 478              	.LBB29:
 479              	.LBB30:
 480              	.LBB31:
 481              		.file 2 "Generated_Source\\PSoC6\\pdl\\drivers/peripheral/tcpwm/cy_tcpwm.h"
   1:Generated_Source\PSoC6\pdl\drivers/peripheral/tcpwm/cy_tcpwm.h **** /***************************************************************************//**
   2:Generated_Source\PSoC6\pdl\drivers/peripheral/tcpwm/cy_tcpwm.h **** * \file cy_tcpwm.h
   3:Generated_Source\PSoC6\pdl\drivers/peripheral/tcpwm/cy_tcpwm.h **** * \version 1.10
   4:Generated_Source\PSoC6\pdl\drivers/peripheral/tcpwm/cy_tcpwm.h **** *
   5:Generated_Source\PSoC6\pdl\drivers/peripheral/tcpwm/cy_tcpwm.h **** * The header file of the TCPWM driver.
   6:Generated_Source\PSoC6\pdl\drivers/peripheral/tcpwm/cy_tcpwm.h **** *
   7:Generated_Source\PSoC6\pdl\drivers/peripheral/tcpwm/cy_tcpwm.h **** ********************************************************************************
   8:Generated_Source\PSoC6\pdl\drivers/peripheral/tcpwm/cy_tcpwm.h **** * \copyright
   9:Generated_Source\PSoC6\pdl\drivers/peripheral/tcpwm/cy_tcpwm.h **** * Copyright 2016-2018, Cypress Semiconductor Corporation. All rights reserved.
  10:Generated_Source\PSoC6\pdl\drivers/peripheral/tcpwm/cy_tcpwm.h **** * You may use this file only in accordance with the license, terms, conditions,
  11:Generated_Source\PSoC6\pdl\drivers/peripheral/tcpwm/cy_tcpwm.h **** * disclaimers, and limitations in the end user license agreement accompanying
  12:Generated_Source\PSoC6\pdl\drivers/peripheral/tcpwm/cy_tcpwm.h **** * the software package with which this file was provided.
ARM GAS  C:\Users\louis\AppData\Local\Temp\ccj8Y2ua.s 			page 16


  13:Generated_Source\PSoC6\pdl\drivers/peripheral/tcpwm/cy_tcpwm.h **** *******************************************************************************/
  14:Generated_Source\PSoC6\pdl\drivers/peripheral/tcpwm/cy_tcpwm.h **** 
  15:Generated_Source\PSoC6\pdl\drivers/peripheral/tcpwm/cy_tcpwm.h **** /**
  16:Generated_Source\PSoC6\pdl\drivers/peripheral/tcpwm/cy_tcpwm.h **** * \addtogroup group_tcpwm
  17:Generated_Source\PSoC6\pdl\drivers/peripheral/tcpwm/cy_tcpwm.h **** * \{
  18:Generated_Source\PSoC6\pdl\drivers/peripheral/tcpwm/cy_tcpwm.h **** * \defgroup group_tcpwm_common  Common
  19:Generated_Source\PSoC6\pdl\drivers/peripheral/tcpwm/cy_tcpwm.h **** * \defgroup group_tcpwm_counter Timer/Counter (TCPWM)
  20:Generated_Source\PSoC6\pdl\drivers/peripheral/tcpwm/cy_tcpwm.h **** * \defgroup group_tcpwm_pwm     PWM (TCPWM)
  21:Generated_Source\PSoC6\pdl\drivers/peripheral/tcpwm/cy_tcpwm.h **** * \defgroup group_tcpwm_quaddec Quadrature Decoder (TCPWM)
  22:Generated_Source\PSoC6\pdl\drivers/peripheral/tcpwm/cy_tcpwm.h **** * \} */
  23:Generated_Source\PSoC6\pdl\drivers/peripheral/tcpwm/cy_tcpwm.h **** 
  24:Generated_Source\PSoC6\pdl\drivers/peripheral/tcpwm/cy_tcpwm.h **** /**
  25:Generated_Source\PSoC6\pdl\drivers/peripheral/tcpwm/cy_tcpwm.h **** * \addtogroup group_tcpwm
  26:Generated_Source\PSoC6\pdl\drivers/peripheral/tcpwm/cy_tcpwm.h **** * \{
  27:Generated_Source\PSoC6\pdl\drivers/peripheral/tcpwm/cy_tcpwm.h **** * 
  28:Generated_Source\PSoC6\pdl\drivers/peripheral/tcpwm/cy_tcpwm.h **** * The TCPWM driver is a multifunction driver that implements Timer Counter, 
  29:Generated_Source\PSoC6\pdl\drivers/peripheral/tcpwm/cy_tcpwm.h **** * PWM, and Quadrature Decoder functionality using the TCPWM block.
  30:Generated_Source\PSoC6\pdl\drivers/peripheral/tcpwm/cy_tcpwm.h **** *
  31:Generated_Source\PSoC6\pdl\drivers/peripheral/tcpwm/cy_tcpwm.h **** * The functions and other declarations used in this driver are in cy_tcpwm_counter.h, 
  32:Generated_Source\PSoC6\pdl\drivers/peripheral/tcpwm/cy_tcpwm.h **** * cy_tcpwm_pwm.h, cy_tcpwm_quaddec.h respectively. Include cy_pdl.h 
  33:Generated_Source\PSoC6\pdl\drivers/peripheral/tcpwm/cy_tcpwm.h **** * (ModusToolbox only) to get access to all functions and declarations in the PDL.
  34:Generated_Source\PSoC6\pdl\drivers/peripheral/tcpwm/cy_tcpwm.h **** *
  35:Generated_Source\PSoC6\pdl\drivers/peripheral/tcpwm/cy_tcpwm.h **** * Each TCPWM block is a collection of counters that can all be triggered 
  36:Generated_Source\PSoC6\pdl\drivers/peripheral/tcpwm/cy_tcpwm.h **** * simultaneously. For each function call, the base register address of 
  37:Generated_Source\PSoC6\pdl\drivers/peripheral/tcpwm/cy_tcpwm.h **** * the TCPWM being used must be passed first, followed by the index of 
  38:Generated_Source\PSoC6\pdl\drivers/peripheral/tcpwm/cy_tcpwm.h **** * the counter you want to touch next. 
  39:Generated_Source\PSoC6\pdl\drivers/peripheral/tcpwm/cy_tcpwm.h **** * For some functions, you can manage multiple counters simultaneously. You 
  40:Generated_Source\PSoC6\pdl\drivers/peripheral/tcpwm/cy_tcpwm.h **** * provide a bit field representing each counter, rather than the single counter 
  41:Generated_Source\PSoC6\pdl\drivers/peripheral/tcpwm/cy_tcpwm.h **** * index). 
  42:Generated_Source\PSoC6\pdl\drivers/peripheral/tcpwm/cy_tcpwm.h **** *
  43:Generated_Source\PSoC6\pdl\drivers/peripheral/tcpwm/cy_tcpwm.h **** * The TCPWM supports three operating modes:
  44:Generated_Source\PSoC6\pdl\drivers/peripheral/tcpwm/cy_tcpwm.h **** * * Timer/Counter
  45:Generated_Source\PSoC6\pdl\drivers/peripheral/tcpwm/cy_tcpwm.h **** * * PWM
  46:Generated_Source\PSoC6\pdl\drivers/peripheral/tcpwm/cy_tcpwm.h **** * * Quadrature Decoder
  47:Generated_Source\PSoC6\pdl\drivers/peripheral/tcpwm/cy_tcpwm.h **** *
  48:Generated_Source\PSoC6\pdl\drivers/peripheral/tcpwm/cy_tcpwm.h **** * \n
  49:Generated_Source\PSoC6\pdl\drivers/peripheral/tcpwm/cy_tcpwm.h **** * \b Timer/Counter
  50:Generated_Source\PSoC6\pdl\drivers/peripheral/tcpwm/cy_tcpwm.h **** *
  51:Generated_Source\PSoC6\pdl\drivers/peripheral/tcpwm/cy_tcpwm.h **** * Use this mode whenever a specific timing interval or measurement is 
  52:Generated_Source\PSoC6\pdl\drivers/peripheral/tcpwm/cy_tcpwm.h **** * needed. Examples include:
  53:Generated_Source\PSoC6\pdl\drivers/peripheral/tcpwm/cy_tcpwm.h **** * * Creating a periodic interrupt for running other system tasks
  54:Generated_Source\PSoC6\pdl\drivers/peripheral/tcpwm/cy_tcpwm.h **** * * Measuring frequency of an input signal
  55:Generated_Source\PSoC6\pdl\drivers/peripheral/tcpwm/cy_tcpwm.h **** * * Measuring pulse width of an input signal
  56:Generated_Source\PSoC6\pdl\drivers/peripheral/tcpwm/cy_tcpwm.h **** * * Measuring time between two external events
  57:Generated_Source\PSoC6\pdl\drivers/peripheral/tcpwm/cy_tcpwm.h **** * * Counting events
  58:Generated_Source\PSoC6\pdl\drivers/peripheral/tcpwm/cy_tcpwm.h **** * * Triggering other system resources after x number events
  59:Generated_Source\PSoC6\pdl\drivers/peripheral/tcpwm/cy_tcpwm.h **** * * Capturing time stamps when events occur
  60:Generated_Source\PSoC6\pdl\drivers/peripheral/tcpwm/cy_tcpwm.h **** *
  61:Generated_Source\PSoC6\pdl\drivers/peripheral/tcpwm/cy_tcpwm.h **** * The Timer/Counter has the following features:
  62:Generated_Source\PSoC6\pdl\drivers/peripheral/tcpwm/cy_tcpwm.h **** * * 16- or 32-bit Timer/Counter
  63:Generated_Source\PSoC6\pdl\drivers/peripheral/tcpwm/cy_tcpwm.h **** * * Programmable Period Register
  64:Generated_Source\PSoC6\pdl\drivers/peripheral/tcpwm/cy_tcpwm.h **** * * Programmable Compare Register. Compare value can be swapped with a 
  65:Generated_Source\PSoC6\pdl\drivers/peripheral/tcpwm/cy_tcpwm.h **** * buffered compare value on comparison event
  66:Generated_Source\PSoC6\pdl\drivers/peripheral/tcpwm/cy_tcpwm.h **** * * Capture with buffer register
  67:Generated_Source\PSoC6\pdl\drivers/peripheral/tcpwm/cy_tcpwm.h **** * * Count Up, Count Down, or Count Up and Down Counting modes
  68:Generated_Source\PSoC6\pdl\drivers/peripheral/tcpwm/cy_tcpwm.h **** * * Continuous or One Shot Run modes
  69:Generated_Source\PSoC6\pdl\drivers/peripheral/tcpwm/cy_tcpwm.h **** * * Interrupt and Output on Overflow, Underflow, Capture, or Compare 
ARM GAS  C:\Users\louis\AppData\Local\Temp\ccj8Y2ua.s 			page 17


  70:Generated_Source\PSoC6\pdl\drivers/peripheral/tcpwm/cy_tcpwm.h **** * * Start, Reload, Stop, Capture, and Count Inputs
  71:Generated_Source\PSoC6\pdl\drivers/peripheral/tcpwm/cy_tcpwm.h **** *
  72:Generated_Source\PSoC6\pdl\drivers/peripheral/tcpwm/cy_tcpwm.h **** * \n
  73:Generated_Source\PSoC6\pdl\drivers/peripheral/tcpwm/cy_tcpwm.h **** * \b PWM
  74:Generated_Source\PSoC6\pdl\drivers/peripheral/tcpwm/cy_tcpwm.h **** *
  75:Generated_Source\PSoC6\pdl\drivers/peripheral/tcpwm/cy_tcpwm.h **** * Use this mode when an output square wave is needed with a specific 
  76:Generated_Source\PSoC6\pdl\drivers/peripheral/tcpwm/cy_tcpwm.h **** * period and duty cycle, such as:
  77:Generated_Source\PSoC6\pdl\drivers/peripheral/tcpwm/cy_tcpwm.h **** * * Creating arbitrary square wave outputs
  78:Generated_Source\PSoC6\pdl\drivers/peripheral/tcpwm/cy_tcpwm.h **** * * Driving an LED (changing the brightness)
  79:Generated_Source\PSoC6\pdl\drivers/peripheral/tcpwm/cy_tcpwm.h **** * * Driving Motors (dead time assertion available)
  80:Generated_Source\PSoC6\pdl\drivers/peripheral/tcpwm/cy_tcpwm.h **** *
  81:Generated_Source\PSoC6\pdl\drivers/peripheral/tcpwm/cy_tcpwm.h **** * The PWM has the following features:
  82:Generated_Source\PSoC6\pdl\drivers/peripheral/tcpwm/cy_tcpwm.h **** * * 16- or 32-bit Counter
  83:Generated_Source\PSoC6\pdl\drivers/peripheral/tcpwm/cy_tcpwm.h **** * * Two Programmable Period registers that can be swapped
  84:Generated_Source\PSoC6\pdl\drivers/peripheral/tcpwm/cy_tcpwm.h **** * * Two Output Compare registers that can be swapped on overflow and/or 
  85:Generated_Source\PSoC6\pdl\drivers/peripheral/tcpwm/cy_tcpwm.h **** * underflow
  86:Generated_Source\PSoC6\pdl\drivers/peripheral/tcpwm/cy_tcpwm.h **** * * Left Aligned, Right Aligned, Center Aligned, and Asymmetric Aligned modes
  87:Generated_Source\PSoC6\pdl\drivers/peripheral/tcpwm/cy_tcpwm.h **** * * Continuous or One Shot run modes
  88:Generated_Source\PSoC6\pdl\drivers/peripheral/tcpwm/cy_tcpwm.h **** * * Pseudo Random mode
  89:Generated_Source\PSoC6\pdl\drivers/peripheral/tcpwm/cy_tcpwm.h **** * * Two PWM outputs with Dead Time insertion, and programmable polarity
  90:Generated_Source\PSoC6\pdl\drivers/peripheral/tcpwm/cy_tcpwm.h **** * * Interrupt and Output on Overflow, Underflow, or Compare 
  91:Generated_Source\PSoC6\pdl\drivers/peripheral/tcpwm/cy_tcpwm.h **** * * Start, Reload, Stop, Swap (Capture), and Count Inputs
  92:Generated_Source\PSoC6\pdl\drivers/peripheral/tcpwm/cy_tcpwm.h **** * * Multiple Components can be synchronized together for applications 
  93:Generated_Source\PSoC6\pdl\drivers/peripheral/tcpwm/cy_tcpwm.h **** * such as three phase motor control
  94:Generated_Source\PSoC6\pdl\drivers/peripheral/tcpwm/cy_tcpwm.h **** *
  95:Generated_Source\PSoC6\pdl\drivers/peripheral/tcpwm/cy_tcpwm.h **** * \n
  96:Generated_Source\PSoC6\pdl\drivers/peripheral/tcpwm/cy_tcpwm.h **** * \b Quadrature \b Decoder
  97:Generated_Source\PSoC6\pdl\drivers/peripheral/tcpwm/cy_tcpwm.h **** *
  98:Generated_Source\PSoC6\pdl\drivers/peripheral/tcpwm/cy_tcpwm.h **** * A quadrature decoder is used to decode the output of a quadrature encoder. 
  99:Generated_Source\PSoC6\pdl\drivers/peripheral/tcpwm/cy_tcpwm.h **** * A quadrature encoder senses the position, velocity, and direction of 
 100:Generated_Source\PSoC6\pdl\drivers/peripheral/tcpwm/cy_tcpwm.h **** * an object (for example a rotating axle, or a spinning mouse ball). 
 101:Generated_Source\PSoC6\pdl\drivers/peripheral/tcpwm/cy_tcpwm.h **** * A quadrature decoder can also be used for precision measurement of speed, 
 102:Generated_Source\PSoC6\pdl\drivers/peripheral/tcpwm/cy_tcpwm.h **** * acceleration, and position of a motor's rotor, or with a rotary switch to 
 103:Generated_Source\PSoC6\pdl\drivers/peripheral/tcpwm/cy_tcpwm.h **** * determine user input. \n
 104:Generated_Source\PSoC6\pdl\drivers/peripheral/tcpwm/cy_tcpwm.h **** * 
 105:Generated_Source\PSoC6\pdl\drivers/peripheral/tcpwm/cy_tcpwm.h **** * The Quadrature Decoder has the following features:
 106:Generated_Source\PSoC6\pdl\drivers/peripheral/tcpwm/cy_tcpwm.h **** * * 16- or 32-bit Counter
 107:Generated_Source\PSoC6\pdl\drivers/peripheral/tcpwm/cy_tcpwm.h **** * * Counter Resolution of x1, x2, and x4 the frequency of the phiA (Count) and 
 108:Generated_Source\PSoC6\pdl\drivers/peripheral/tcpwm/cy_tcpwm.h **** * phiB (Start) inputs
 109:Generated_Source\PSoC6\pdl\drivers/peripheral/tcpwm/cy_tcpwm.h **** * * Index Input to determine absolute position
 110:Generated_Source\PSoC6\pdl\drivers/peripheral/tcpwm/cy_tcpwm.h **** * * A positive edge on phiA increments the counter when phiB is 0 and decrements
 111:Generated_Source\PSoC6\pdl\drivers/peripheral/tcpwm/cy_tcpwm.h **** * the counter when phiB is 1
 112:Generated_Source\PSoC6\pdl\drivers/peripheral/tcpwm/cy_tcpwm.h **** *
 113:Generated_Source\PSoC6\pdl\drivers/peripheral/tcpwm/cy_tcpwm.h **** * \section group_tcpwm_configuration Configuration Considerations
 114:Generated_Source\PSoC6\pdl\drivers/peripheral/tcpwm/cy_tcpwm.h **** *
 115:Generated_Source\PSoC6\pdl\drivers/peripheral/tcpwm/cy_tcpwm.h **** * For each mode, the TCPWM driver has a configuration structure, an Init 
 116:Generated_Source\PSoC6\pdl\drivers/peripheral/tcpwm/cy_tcpwm.h **** * function, and an Enable function. 
 117:Generated_Source\PSoC6\pdl\drivers/peripheral/tcpwm/cy_tcpwm.h **** *
 118:Generated_Source\PSoC6\pdl\drivers/peripheral/tcpwm/cy_tcpwm.h **** * Provide the configuration parameters in the appropriate structure (see
 119:Generated_Source\PSoC6\pdl\drivers/peripheral/tcpwm/cy_tcpwm.h **** * Counter \ref group_tcpwm_data_structures_counter, PWM 
 120:Generated_Source\PSoC6\pdl\drivers/peripheral/tcpwm/cy_tcpwm.h **** * \ref group_tcpwm_data_structures_pwm, or QuadDec 
 121:Generated_Source\PSoC6\pdl\drivers/peripheral/tcpwm/cy_tcpwm.h **** * \ref group_tcpwm_data_structures_quaddec). 
 122:Generated_Source\PSoC6\pdl\drivers/peripheral/tcpwm/cy_tcpwm.h **** * Then call the appropriate Init function: 
 123:Generated_Source\PSoC6\pdl\drivers/peripheral/tcpwm/cy_tcpwm.h **** * \ref Cy_TCPWM_Counter_Init, \ref Cy_TCPWM_PWM_Init, or 
 124:Generated_Source\PSoC6\pdl\drivers/peripheral/tcpwm/cy_tcpwm.h **** * \ref Cy_TCPWM_QuadDec_Init. Provide the address of the filled structure as a 
 125:Generated_Source\PSoC6\pdl\drivers/peripheral/tcpwm/cy_tcpwm.h **** * parameter. To enable the counter, call the appropriate Enable function: 
 126:Generated_Source\PSoC6\pdl\drivers/peripheral/tcpwm/cy_tcpwm.h **** * \ref Cy_TCPWM_Counter_Enable, \ref Cy_TCPWM_PWM_Enable, or 
ARM GAS  C:\Users\louis\AppData\Local\Temp\ccj8Y2ua.s 			page 18


 127:Generated_Source\PSoC6\pdl\drivers/peripheral/tcpwm/cy_tcpwm.h **** * \ref Cy_TCPWM_QuadDec_Enable).
 128:Generated_Source\PSoC6\pdl\drivers/peripheral/tcpwm/cy_tcpwm.h **** *
 129:Generated_Source\PSoC6\pdl\drivers/peripheral/tcpwm/cy_tcpwm.h **** * Many functions work with an individual counter. You can also manage multiple 
 130:Generated_Source\PSoC6\pdl\drivers/peripheral/tcpwm/cy_tcpwm.h **** * counters simultaneously for certain functions. These are listed in the 
 131:Generated_Source\PSoC6\pdl\drivers/peripheral/tcpwm/cy_tcpwm.h **** * \ref group_tcpwm_functions_common 
 132:Generated_Source\PSoC6\pdl\drivers/peripheral/tcpwm/cy_tcpwm.h **** * section of the TCPWM. You can enable, disable, or trigger (in various ways) 
 133:Generated_Source\PSoC6\pdl\drivers/peripheral/tcpwm/cy_tcpwm.h **** * multiple counters simultaneously. For these functions you provide a bit field 
 134:Generated_Source\PSoC6\pdl\drivers/peripheral/tcpwm/cy_tcpwm.h **** * representing each counter in the TCPWM you want to control. You can 
 135:Generated_Source\PSoC6\pdl\drivers/peripheral/tcpwm/cy_tcpwm.h **** * represent the bit field as an ORed mask of each counter, like 
 136:Generated_Source\PSoC6\pdl\drivers/peripheral/tcpwm/cy_tcpwm.h **** * ((1U << cntNumX) | (1U << cntNumX) | (1U << cntNumX)), where X is the counter 
 137:Generated_Source\PSoC6\pdl\drivers/peripheral/tcpwm/cy_tcpwm.h **** * number from 0 to 31.
 138:Generated_Source\PSoC6\pdl\drivers/peripheral/tcpwm/cy_tcpwm.h **** *
 139:Generated_Source\PSoC6\pdl\drivers/peripheral/tcpwm/cy_tcpwm.h **** * \note
 140:Generated_Source\PSoC6\pdl\drivers/peripheral/tcpwm/cy_tcpwm.h **** * * If none of the input terminals (start, reload(index)) are used, the 
 141:Generated_Source\PSoC6\pdl\drivers/peripheral/tcpwm/cy_tcpwm.h **** * software event \ref Cy_TCPWM_TriggerStart or 
 142:Generated_Source\PSoC6\pdl\drivers/peripheral/tcpwm/cy_tcpwm.h **** * \ref Cy_TCPWM_TriggerReloadOrIndex must be called to start the counting.
 143:Generated_Source\PSoC6\pdl\drivers/peripheral/tcpwm/cy_tcpwm.h **** * * If count input terminal is not used, the \ref CY_TCPWM_INPUT_LEVEL macro 
 144:Generated_Source\PSoC6\pdl\drivers/peripheral/tcpwm/cy_tcpwm.h **** * should be set for the countInputMode parameter and the \ref CY_TCPWM_INPUT_1 
 145:Generated_Source\PSoC6\pdl\drivers/peripheral/tcpwm/cy_tcpwm.h **** * macro should be set for the countInput parameter in the configuration 
 146:Generated_Source\PSoC6\pdl\drivers/peripheral/tcpwm/cy_tcpwm.h **** * structure of the appropriate mode(Counter 
 147:Generated_Source\PSoC6\pdl\drivers/peripheral/tcpwm/cy_tcpwm.h **** * \ref group_tcpwm_data_structures_counter, PWM 
 148:Generated_Source\PSoC6\pdl\drivers/peripheral/tcpwm/cy_tcpwm.h **** * \ref group_tcpwm_data_structures_pwm, or QuadDec 
 149:Generated_Source\PSoC6\pdl\drivers/peripheral/tcpwm/cy_tcpwm.h **** * \ref group_tcpwm_data_structures_quaddec).
 150:Generated_Source\PSoC6\pdl\drivers/peripheral/tcpwm/cy_tcpwm.h **** *
 151:Generated_Source\PSoC6\pdl\drivers/peripheral/tcpwm/cy_tcpwm.h **** * \subsection group_tcpwm_pins Assign and Configure Pins
 152:Generated_Source\PSoC6\pdl\drivers/peripheral/tcpwm/cy_tcpwm.h **** * The dedicated TCPWM pins can be used. The HSIOM register must be configured to
 153:Generated_Source\PSoC6\pdl\drivers/peripheral/tcpwm/cy_tcpwm.h **** * connect the block to the pins. Use the \ref group_gpio driver API to do that.
 154:Generated_Source\PSoC6\pdl\drivers/peripheral/tcpwm/cy_tcpwm.h **** *
 155:Generated_Source\PSoC6\pdl\drivers/peripheral/tcpwm/cy_tcpwm.h **** * \snippet tcpwm\1.10\counter\snippet\main.c snippet_Cy_TCPWM_Pins
 156:Generated_Source\PSoC6\pdl\drivers/peripheral/tcpwm/cy_tcpwm.h **** *
 157:Generated_Source\PSoC6\pdl\drivers/peripheral/tcpwm/cy_tcpwm.h **** * \subsection group_tcpwm_clock Assign Clock Divider
 158:Generated_Source\PSoC6\pdl\drivers/peripheral/tcpwm/cy_tcpwm.h **** * The clock source must be connected to proper working.
 159:Generated_Source\PSoC6\pdl\drivers/peripheral/tcpwm/cy_tcpwm.h **** * Any of the peripheral clock dividers could be used. Use the  
 160:Generated_Source\PSoC6\pdl\drivers/peripheral/tcpwm/cy_tcpwm.h **** * \ref group_sysclk driver API to do that.
 161:Generated_Source\PSoC6\pdl\drivers/peripheral/tcpwm/cy_tcpwm.h **** *
 162:Generated_Source\PSoC6\pdl\drivers/peripheral/tcpwm/cy_tcpwm.h **** * \snippet tcpwm\1.10\counter\snippet\main.c snippet_Cy_TCPWM_Clock
 163:Generated_Source\PSoC6\pdl\drivers/peripheral/tcpwm/cy_tcpwm.h **** *
 164:Generated_Source\PSoC6\pdl\drivers/peripheral/tcpwm/cy_tcpwm.h **** * \section group_tcpwm_more_information More Information
 165:Generated_Source\PSoC6\pdl\drivers/peripheral/tcpwm/cy_tcpwm.h **** *
 166:Generated_Source\PSoC6\pdl\drivers/peripheral/tcpwm/cy_tcpwm.h **** * For more information on the TCPWM peripheral, refer to the technical 
 167:Generated_Source\PSoC6\pdl\drivers/peripheral/tcpwm/cy_tcpwm.h **** * reference manual (TRM).
 168:Generated_Source\PSoC6\pdl\drivers/peripheral/tcpwm/cy_tcpwm.h **** *
 169:Generated_Source\PSoC6\pdl\drivers/peripheral/tcpwm/cy_tcpwm.h **** * \section group_tcpwm_MISRA MISRA-C Compliance 
 170:Generated_Source\PSoC6\pdl\drivers/peripheral/tcpwm/cy_tcpwm.h **** * <table class="doxtable">
 171:Generated_Source\PSoC6\pdl\drivers/peripheral/tcpwm/cy_tcpwm.h **** *   <tr>
 172:Generated_Source\PSoC6\pdl\drivers/peripheral/tcpwm/cy_tcpwm.h **** *     <th>MISRA Rule</th>
 173:Generated_Source\PSoC6\pdl\drivers/peripheral/tcpwm/cy_tcpwm.h **** *     <th>Rule Class (Required/Advisory)</th>
 174:Generated_Source\PSoC6\pdl\drivers/peripheral/tcpwm/cy_tcpwm.h **** *     <th>Rule Description</th>
 175:Generated_Source\PSoC6\pdl\drivers/peripheral/tcpwm/cy_tcpwm.h **** *     <th>Description of Deviation(s)</th>
 176:Generated_Source\PSoC6\pdl\drivers/peripheral/tcpwm/cy_tcpwm.h **** *   </tr>
 177:Generated_Source\PSoC6\pdl\drivers/peripheral/tcpwm/cy_tcpwm.h **** *   <tr>
 178:Generated_Source\PSoC6\pdl\drivers/peripheral/tcpwm/cy_tcpwm.h **** *     <td>14.2</td>
 179:Generated_Source\PSoC6\pdl\drivers/peripheral/tcpwm/cy_tcpwm.h **** *     <td>R</td>
 180:Generated_Source\PSoC6\pdl\drivers/peripheral/tcpwm/cy_tcpwm.h **** *     <td>All non-null statements shall either: a) have at least one side-effect
 181:Generated_Source\PSoC6\pdl\drivers/peripheral/tcpwm/cy_tcpwm.h **** *         however executed, or b) cause control flow to change.</td>
 182:Generated_Source\PSoC6\pdl\drivers/peripheral/tcpwm/cy_tcpwm.h **** *     <td>The unused function parameters are cast to void. This statement
 183:Generated_Source\PSoC6\pdl\drivers/peripheral/tcpwm/cy_tcpwm.h **** *         has no side-effect and is used to suppress a compiler warning.</td>
ARM GAS  C:\Users\louis\AppData\Local\Temp\ccj8Y2ua.s 			page 19


 184:Generated_Source\PSoC6\pdl\drivers/peripheral/tcpwm/cy_tcpwm.h **** *   </tr>
 185:Generated_Source\PSoC6\pdl\drivers/peripheral/tcpwm/cy_tcpwm.h **** * </table>
 186:Generated_Source\PSoC6\pdl\drivers/peripheral/tcpwm/cy_tcpwm.h **** *
 187:Generated_Source\PSoC6\pdl\drivers/peripheral/tcpwm/cy_tcpwm.h **** * \section group_tcpwm_changelog Changelog
 188:Generated_Source\PSoC6\pdl\drivers/peripheral/tcpwm/cy_tcpwm.h **** * <table class="doxtable">
 189:Generated_Source\PSoC6\pdl\drivers/peripheral/tcpwm/cy_tcpwm.h **** *   <tr><th>Version</th><th>Changes</th><th>Reason for Change</th></tr>
 190:Generated_Source\PSoC6\pdl\drivers/peripheral/tcpwm/cy_tcpwm.h **** *   <tr>
 191:Generated_Source\PSoC6\pdl\drivers/peripheral/tcpwm/cy_tcpwm.h **** *     <td rowspan="2">1.10</td>
 192:Generated_Source\PSoC6\pdl\drivers/peripheral/tcpwm/cy_tcpwm.h **** *     <td>Flattened the organization of the driver source code into the single 
 193:Generated_Source\PSoC6\pdl\drivers/peripheral/tcpwm/cy_tcpwm.h **** *         source directory and the single include directory.
 194:Generated_Source\PSoC6\pdl\drivers/peripheral/tcpwm/cy_tcpwm.h **** *     </td>
 195:Generated_Source\PSoC6\pdl\drivers/peripheral/tcpwm/cy_tcpwm.h **** *     <td>Driver library directory-structure simplification.</td>
 196:Generated_Source\PSoC6\pdl\drivers/peripheral/tcpwm/cy_tcpwm.h **** *   </tr>
 197:Generated_Source\PSoC6\pdl\drivers/peripheral/tcpwm/cy_tcpwm.h **** *   <tr>
 198:Generated_Source\PSoC6\pdl\drivers/peripheral/tcpwm/cy_tcpwm.h **** *     <td>Added register access layer. Use register access macros instead
 199:Generated_Source\PSoC6\pdl\drivers/peripheral/tcpwm/cy_tcpwm.h **** *         of direct register access using dereferenced pointers.</td>
 200:Generated_Source\PSoC6\pdl\drivers/peripheral/tcpwm/cy_tcpwm.h **** *     <td>Makes register access device-independent, so that the PDL does 
 201:Generated_Source\PSoC6\pdl\drivers/peripheral/tcpwm/cy_tcpwm.h **** *         not need to be recompiled for each supported part number.</td>
 202:Generated_Source\PSoC6\pdl\drivers/peripheral/tcpwm/cy_tcpwm.h **** *   </tr>
 203:Generated_Source\PSoC6\pdl\drivers/peripheral/tcpwm/cy_tcpwm.h **** *   <tr>
 204:Generated_Source\PSoC6\pdl\drivers/peripheral/tcpwm/cy_tcpwm.h **** *     <td>1.0.1</td>
 205:Generated_Source\PSoC6\pdl\drivers/peripheral/tcpwm/cy_tcpwm.h **** *     <td>Added a deviation to the MISRA Compliance section.
 206:Generated_Source\PSoC6\pdl\drivers/peripheral/tcpwm/cy_tcpwm.h **** *         Added function-level code snippets.</td>
 207:Generated_Source\PSoC6\pdl\drivers/peripheral/tcpwm/cy_tcpwm.h **** *     <td>Documentation update and clarification</td>
 208:Generated_Source\PSoC6\pdl\drivers/peripheral/tcpwm/cy_tcpwm.h **** *   </tr>
 209:Generated_Source\PSoC6\pdl\drivers/peripheral/tcpwm/cy_tcpwm.h **** *   <tr>
 210:Generated_Source\PSoC6\pdl\drivers/peripheral/tcpwm/cy_tcpwm.h **** *     <td>1.0</td>
 211:Generated_Source\PSoC6\pdl\drivers/peripheral/tcpwm/cy_tcpwm.h **** *     <td>Initial version</td>
 212:Generated_Source\PSoC6\pdl\drivers/peripheral/tcpwm/cy_tcpwm.h **** *     <td></td>
 213:Generated_Source\PSoC6\pdl\drivers/peripheral/tcpwm/cy_tcpwm.h **** *   </tr>
 214:Generated_Source\PSoC6\pdl\drivers/peripheral/tcpwm/cy_tcpwm.h **** * </table>
 215:Generated_Source\PSoC6\pdl\drivers/peripheral/tcpwm/cy_tcpwm.h **** */
 216:Generated_Source\PSoC6\pdl\drivers/peripheral/tcpwm/cy_tcpwm.h **** 
 217:Generated_Source\PSoC6\pdl\drivers/peripheral/tcpwm/cy_tcpwm.h **** /** \} group_tcpwm */
 218:Generated_Source\PSoC6\pdl\drivers/peripheral/tcpwm/cy_tcpwm.h **** 
 219:Generated_Source\PSoC6\pdl\drivers/peripheral/tcpwm/cy_tcpwm.h **** /**
 220:Generated_Source\PSoC6\pdl\drivers/peripheral/tcpwm/cy_tcpwm.h **** * \addtogroup group_tcpwm_common
 221:Generated_Source\PSoC6\pdl\drivers/peripheral/tcpwm/cy_tcpwm.h **** * Common API for the Timer Counter PWM Block.
 222:Generated_Source\PSoC6\pdl\drivers/peripheral/tcpwm/cy_tcpwm.h **** *
 223:Generated_Source\PSoC6\pdl\drivers/peripheral/tcpwm/cy_tcpwm.h **** * This is the common API that provides an interface to the TCPWM hardware.
 224:Generated_Source\PSoC6\pdl\drivers/peripheral/tcpwm/cy_tcpwm.h **** * The Timer Counter, PWM, and Quadrature Decoder drivers use this common API.
 225:Generated_Source\PSoC6\pdl\drivers/peripheral/tcpwm/cy_tcpwm.h **** * Most users will use individual drivers and do not need to use the common
 226:Generated_Source\PSoC6\pdl\drivers/peripheral/tcpwm/cy_tcpwm.h **** * API for the TCPWM.
 227:Generated_Source\PSoC6\pdl\drivers/peripheral/tcpwm/cy_tcpwm.h **** *
 228:Generated_Source\PSoC6\pdl\drivers/peripheral/tcpwm/cy_tcpwm.h **** * The functions and other declarations used in this part of the driver are in cy_tcpwm.h. 
 229:Generated_Source\PSoC6\pdl\drivers/peripheral/tcpwm/cy_tcpwm.h **** * Include either of cy_tcpwm_counter.h, cy_tcpwm_pwm.h, cy_tcpwm_quaddec.h 
 230:Generated_Source\PSoC6\pdl\drivers/peripheral/tcpwm/cy_tcpwm.h **** * depending on the desired functionality. You can also include cy_pdl.h 
 231:Generated_Source\PSoC6\pdl\drivers/peripheral/tcpwm/cy_tcpwm.h **** * to get access to all functions and declarations in the PDL.
 232:Generated_Source\PSoC6\pdl\drivers/peripheral/tcpwm/cy_tcpwm.h **** *
 233:Generated_Source\PSoC6\pdl\drivers/peripheral/tcpwm/cy_tcpwm.h **** * \{
 234:Generated_Source\PSoC6\pdl\drivers/peripheral/tcpwm/cy_tcpwm.h **** * \defgroup group_tcpwm_macros_common           Macros
 235:Generated_Source\PSoC6\pdl\drivers/peripheral/tcpwm/cy_tcpwm.h **** * \defgroup group_tcpwm_functions_common        Functions
 236:Generated_Source\PSoC6\pdl\drivers/peripheral/tcpwm/cy_tcpwm.h **** * \defgroup group_tcpwm_data_structures_common  Data Structures
 237:Generated_Source\PSoC6\pdl\drivers/peripheral/tcpwm/cy_tcpwm.h **** * \defgroup group_tcpwm_enums Enumerated Types
 238:Generated_Source\PSoC6\pdl\drivers/peripheral/tcpwm/cy_tcpwm.h **** */
 239:Generated_Source\PSoC6\pdl\drivers/peripheral/tcpwm/cy_tcpwm.h **** 
 240:Generated_Source\PSoC6\pdl\drivers/peripheral/tcpwm/cy_tcpwm.h **** 
ARM GAS  C:\Users\louis\AppData\Local\Temp\ccj8Y2ua.s 			page 20


 241:Generated_Source\PSoC6\pdl\drivers/peripheral/tcpwm/cy_tcpwm.h **** #if !defined(CY_TCPWM_H)
 242:Generated_Source\PSoC6\pdl\drivers/peripheral/tcpwm/cy_tcpwm.h **** #define CY_TCPWM_H
 243:Generated_Source\PSoC6\pdl\drivers/peripheral/tcpwm/cy_tcpwm.h **** 
 244:Generated_Source\PSoC6\pdl\drivers/peripheral/tcpwm/cy_tcpwm.h **** #include <stdint.h>
 245:Generated_Source\PSoC6\pdl\drivers/peripheral/tcpwm/cy_tcpwm.h **** #include <stdbool.h>
 246:Generated_Source\PSoC6\pdl\drivers/peripheral/tcpwm/cy_tcpwm.h **** #include <stddef.h>
 247:Generated_Source\PSoC6\pdl\drivers/peripheral/tcpwm/cy_tcpwm.h **** #include "cy_syslib.h"
 248:Generated_Source\PSoC6\pdl\drivers/peripheral/tcpwm/cy_tcpwm.h **** #include "cy_device_headers.h"
 249:Generated_Source\PSoC6\pdl\drivers/peripheral/tcpwm/cy_tcpwm.h **** #include "cy_device.h"
 250:Generated_Source\PSoC6\pdl\drivers/peripheral/tcpwm/cy_tcpwm.h **** 
 251:Generated_Source\PSoC6\pdl\drivers/peripheral/tcpwm/cy_tcpwm.h **** #ifdef CY_IP_MXTCPWM
 252:Generated_Source\PSoC6\pdl\drivers/peripheral/tcpwm/cy_tcpwm.h **** 
 253:Generated_Source\PSoC6\pdl\drivers/peripheral/tcpwm/cy_tcpwm.h **** #if defined(__cplusplus)
 254:Generated_Source\PSoC6\pdl\drivers/peripheral/tcpwm/cy_tcpwm.h **** extern "C" {
 255:Generated_Source\PSoC6\pdl\drivers/peripheral/tcpwm/cy_tcpwm.h **** #endif
 256:Generated_Source\PSoC6\pdl\drivers/peripheral/tcpwm/cy_tcpwm.h **** 
 257:Generated_Source\PSoC6\pdl\drivers/peripheral/tcpwm/cy_tcpwm.h **** /**
 258:Generated_Source\PSoC6\pdl\drivers/peripheral/tcpwm/cy_tcpwm.h **** * \addtogroup group_tcpwm_macros_common
 259:Generated_Source\PSoC6\pdl\drivers/peripheral/tcpwm/cy_tcpwm.h **** * \{
 260:Generated_Source\PSoC6\pdl\drivers/peripheral/tcpwm/cy_tcpwm.h **** */
 261:Generated_Source\PSoC6\pdl\drivers/peripheral/tcpwm/cy_tcpwm.h **** 
 262:Generated_Source\PSoC6\pdl\drivers/peripheral/tcpwm/cy_tcpwm.h **** /** Driver major version */
 263:Generated_Source\PSoC6\pdl\drivers/peripheral/tcpwm/cy_tcpwm.h **** #define CY_TCPWM_DRV_VERSION_MAJOR       1
 264:Generated_Source\PSoC6\pdl\drivers/peripheral/tcpwm/cy_tcpwm.h **** 
 265:Generated_Source\PSoC6\pdl\drivers/peripheral/tcpwm/cy_tcpwm.h **** /** Driver minor version */
 266:Generated_Source\PSoC6\pdl\drivers/peripheral/tcpwm/cy_tcpwm.h **** #define CY_TCPWM_DRV_VERSION_MINOR       10
 267:Generated_Source\PSoC6\pdl\drivers/peripheral/tcpwm/cy_tcpwm.h **** 
 268:Generated_Source\PSoC6\pdl\drivers/peripheral/tcpwm/cy_tcpwm.h **** 
 269:Generated_Source\PSoC6\pdl\drivers/peripheral/tcpwm/cy_tcpwm.h **** /******************************************************************************
 270:Generated_Source\PSoC6\pdl\drivers/peripheral/tcpwm/cy_tcpwm.h **** * API Constants
 271:Generated_Source\PSoC6\pdl\drivers/peripheral/tcpwm/cy_tcpwm.h **** ******************************************************************************/
 272:Generated_Source\PSoC6\pdl\drivers/peripheral/tcpwm/cy_tcpwm.h **** 
 273:Generated_Source\PSoC6\pdl\drivers/peripheral/tcpwm/cy_tcpwm.h **** /** TCPWM driver identifier */
 274:Generated_Source\PSoC6\pdl\drivers/peripheral/tcpwm/cy_tcpwm.h **** #define CY_TCPWM_ID                     (CY_PDL_DRV_ID(0x2DU))
 275:Generated_Source\PSoC6\pdl\drivers/peripheral/tcpwm/cy_tcpwm.h **** 
 276:Generated_Source\PSoC6\pdl\drivers/peripheral/tcpwm/cy_tcpwm.h **** /** \defgroup group_tcpwm_input_selection  TCPWM Input Selection
 277:Generated_Source\PSoC6\pdl\drivers/peripheral/tcpwm/cy_tcpwm.h **** * \{
 278:Generated_Source\PSoC6\pdl\drivers/peripheral/tcpwm/cy_tcpwm.h **** * Selects which input to use
 279:Generated_Source\PSoC6\pdl\drivers/peripheral/tcpwm/cy_tcpwm.h **** */
 280:Generated_Source\PSoC6\pdl\drivers/peripheral/tcpwm/cy_tcpwm.h **** #define CY_TCPWM_INPUT_0                (0U)  /**< Input is tied to logic 0 */
 281:Generated_Source\PSoC6\pdl\drivers/peripheral/tcpwm/cy_tcpwm.h **** #define CY_TCPWM_INPUT_1                (1U)  /**< Input is tied to logic 1 */
 282:Generated_Source\PSoC6\pdl\drivers/peripheral/tcpwm/cy_tcpwm.h **** #define CY_TCPWM_INPUT_TRIG_0           (2U)  /**< Input is connected to the trigger input 0 */
 283:Generated_Source\PSoC6\pdl\drivers/peripheral/tcpwm/cy_tcpwm.h **** #define CY_TCPWM_INPUT_TRIG_1           (3U)  /**< Input is connected to the trigger input 1 */
 284:Generated_Source\PSoC6\pdl\drivers/peripheral/tcpwm/cy_tcpwm.h **** #define CY_TCPWM_INPUT_TRIG_2           (4U)  /**< Input is connected to the trigger input 2 */
 285:Generated_Source\PSoC6\pdl\drivers/peripheral/tcpwm/cy_tcpwm.h **** #define CY_TCPWM_INPUT_TRIG_3           (5U)  /**< Input is connected to the trigger input 3 */
 286:Generated_Source\PSoC6\pdl\drivers/peripheral/tcpwm/cy_tcpwm.h **** #define CY_TCPWM_INPUT_TRIG_4           (6U)  /**< Input is connected to the trigger input 4 */
 287:Generated_Source\PSoC6\pdl\drivers/peripheral/tcpwm/cy_tcpwm.h **** #define CY_TCPWM_INPUT_TRIG_5           (7U)  /**< Input is connected to the trigger input 5 */
 288:Generated_Source\PSoC6\pdl\drivers/peripheral/tcpwm/cy_tcpwm.h **** #define CY_TCPWM_INPUT_TRIG_6           (8U)  /**< Input is connected to the trigger input 6 */
 289:Generated_Source\PSoC6\pdl\drivers/peripheral/tcpwm/cy_tcpwm.h **** #define CY_TCPWM_INPUT_TRIG_7           (9U)  /**< Input is connected to the trigger input 7 */
 290:Generated_Source\PSoC6\pdl\drivers/peripheral/tcpwm/cy_tcpwm.h **** #define CY_TCPWM_INPUT_TRIG_8           (10U) /**< Input is connected to the trigger input 8 */
 291:Generated_Source\PSoC6\pdl\drivers/peripheral/tcpwm/cy_tcpwm.h **** #define CY_TCPWM_INPUT_TRIG_9           (11U) /**< Input is connected to the trigger input 9 */
 292:Generated_Source\PSoC6\pdl\drivers/peripheral/tcpwm/cy_tcpwm.h **** #define CY_TCPWM_INPUT_TRIG_10          (12U) /**< Input is connected to the trigger input 10 */
 293:Generated_Source\PSoC6\pdl\drivers/peripheral/tcpwm/cy_tcpwm.h **** #define CY_TCPWM_INPUT_TRIG_11          (13U) /**< Input is connected to the trigger input 11 */
 294:Generated_Source\PSoC6\pdl\drivers/peripheral/tcpwm/cy_tcpwm.h **** #define CY_TCPWM_INPUT_TRIG_12          (14U) /**< Input is connected to the trigger input 12 */
 295:Generated_Source\PSoC6\pdl\drivers/peripheral/tcpwm/cy_tcpwm.h **** #define CY_TCPWM_INPUT_TRIG_13          (15U) /**< Input is connected to the trigger input 13 */
 296:Generated_Source\PSoC6\pdl\drivers/peripheral/tcpwm/cy_tcpwm.h **** 
 297:Generated_Source\PSoC6\pdl\drivers/peripheral/tcpwm/cy_tcpwm.h **** /** Input is defined by Creator, and Init() function does not need to configure input */
ARM GAS  C:\Users\louis\AppData\Local\Temp\ccj8Y2ua.s 			page 21


 298:Generated_Source\PSoC6\pdl\drivers/peripheral/tcpwm/cy_tcpwm.h **** #define CY_TCPWM_INPUT_CREATOR          (0xFFFFFFFFU)
 299:Generated_Source\PSoC6\pdl\drivers/peripheral/tcpwm/cy_tcpwm.h **** /** \} group_tcpwm_input_selection */
 300:Generated_Source\PSoC6\pdl\drivers/peripheral/tcpwm/cy_tcpwm.h **** 
 301:Generated_Source\PSoC6\pdl\drivers/peripheral/tcpwm/cy_tcpwm.h **** /**
 302:Generated_Source\PSoC6\pdl\drivers/peripheral/tcpwm/cy_tcpwm.h **** * \defgroup group_tcpwm_input_modes  Input Modes
 303:Generated_Source\PSoC6\pdl\drivers/peripheral/tcpwm/cy_tcpwm.h **** * \{
 304:Generated_Source\PSoC6\pdl\drivers/peripheral/tcpwm/cy_tcpwm.h **** * Configures how TCPWM inputs behave
 305:Generated_Source\PSoC6\pdl\drivers/peripheral/tcpwm/cy_tcpwm.h **** */
 306:Generated_Source\PSoC6\pdl\drivers/peripheral/tcpwm/cy_tcpwm.h **** /** A rising edge triggers the event (Capture, Start, Reload, etc..) */
 307:Generated_Source\PSoC6\pdl\drivers/peripheral/tcpwm/cy_tcpwm.h **** #define CY_TCPWM_INPUT_RISINGEDGE       (0U)
 308:Generated_Source\PSoC6\pdl\drivers/peripheral/tcpwm/cy_tcpwm.h **** /** A falling edge triggers the event (Capture, Start, Reload, etc..) */
 309:Generated_Source\PSoC6\pdl\drivers/peripheral/tcpwm/cy_tcpwm.h **** #define CY_TCPWM_INPUT_FALLINGEDGE      (1U)
 310:Generated_Source\PSoC6\pdl\drivers/peripheral/tcpwm/cy_tcpwm.h **** /** A rising edge or falling edge triggers the event (Capture, Start, Reload, etc..) */
 311:Generated_Source\PSoC6\pdl\drivers/peripheral/tcpwm/cy_tcpwm.h **** #define CY_TCPWM_INPUT_EITHEREDGE       (2U)
 312:Generated_Source\PSoC6\pdl\drivers/peripheral/tcpwm/cy_tcpwm.h **** /** The event is triggered on each edge of the TCPWM clock if the input is high */
 313:Generated_Source\PSoC6\pdl\drivers/peripheral/tcpwm/cy_tcpwm.h **** #define CY_TCPWM_INPUT_LEVEL            (3U)
 314:Generated_Source\PSoC6\pdl\drivers/peripheral/tcpwm/cy_tcpwm.h **** /** \} group_tcpwm_input_modes */
 315:Generated_Source\PSoC6\pdl\drivers/peripheral/tcpwm/cy_tcpwm.h **** 
 316:Generated_Source\PSoC6\pdl\drivers/peripheral/tcpwm/cy_tcpwm.h **** /**
 317:Generated_Source\PSoC6\pdl\drivers/peripheral/tcpwm/cy_tcpwm.h **** * \defgroup group_tcpwm_interrupt_sources  Interrupt Sources
 318:Generated_Source\PSoC6\pdl\drivers/peripheral/tcpwm/cy_tcpwm.h **** * \{
 319:Generated_Source\PSoC6\pdl\drivers/peripheral/tcpwm/cy_tcpwm.h **** * Interrupt Sources 
 320:Generated_Source\PSoC6\pdl\drivers/peripheral/tcpwm/cy_tcpwm.h **** */
 321:Generated_Source\PSoC6\pdl\drivers/peripheral/tcpwm/cy_tcpwm.h **** #define CY_TCPWM_INT_ON_TC              (1U) /**< Interrupt on Terminal count(TC) */
 322:Generated_Source\PSoC6\pdl\drivers/peripheral/tcpwm/cy_tcpwm.h **** #define CY_TCPWM_INT_ON_CC              (2U) /**< Interrupt on Compare/Capture(CC) */
 323:Generated_Source\PSoC6\pdl\drivers/peripheral/tcpwm/cy_tcpwm.h **** #define CY_TCPWM_INT_NONE               (0U) /**< No Interrupt */
 324:Generated_Source\PSoC6\pdl\drivers/peripheral/tcpwm/cy_tcpwm.h **** #define CY_TCPWM_INT_ON_CC_OR_TC        (3U) /**< Interrupt on TC or CC */
 325:Generated_Source\PSoC6\pdl\drivers/peripheral/tcpwm/cy_tcpwm.h **** /** \} group_tcpwm_interrupt_sources */
 326:Generated_Source\PSoC6\pdl\drivers/peripheral/tcpwm/cy_tcpwm.h **** 
 327:Generated_Source\PSoC6\pdl\drivers/peripheral/tcpwm/cy_tcpwm.h **** 
 328:Generated_Source\PSoC6\pdl\drivers/peripheral/tcpwm/cy_tcpwm.h **** /***************************************
 329:Generated_Source\PSoC6\pdl\drivers/peripheral/tcpwm/cy_tcpwm.h **** *        Registers Constants
 330:Generated_Source\PSoC6\pdl\drivers/peripheral/tcpwm/cy_tcpwm.h **** ***************************************/
 331:Generated_Source\PSoC6\pdl\drivers/peripheral/tcpwm/cy_tcpwm.h **** 
 332:Generated_Source\PSoC6\pdl\drivers/peripheral/tcpwm/cy_tcpwm.h **** /**
 333:Generated_Source\PSoC6\pdl\drivers/peripheral/tcpwm/cy_tcpwm.h **** * \defgroup group_tcpwm_reg_const Default registers constants
 334:Generated_Source\PSoC6\pdl\drivers/peripheral/tcpwm/cy_tcpwm.h **** * \{
 335:Generated_Source\PSoC6\pdl\drivers/peripheral/tcpwm/cy_tcpwm.h **** * Default constants for CNT Registers
 336:Generated_Source\PSoC6\pdl\drivers/peripheral/tcpwm/cy_tcpwm.h **** */
 337:Generated_Source\PSoC6\pdl\drivers/peripheral/tcpwm/cy_tcpwm.h **** #define CY_TCPWM_CNT_CTRL_DEFAULT           (0x0U) /**< Default value for CTRL register */
 338:Generated_Source\PSoC6\pdl\drivers/peripheral/tcpwm/cy_tcpwm.h **** #define CY_TCPWM_CNT_COUNTER_DEFAULT        (0x0U) /**< Default value for COUNTER register */
 339:Generated_Source\PSoC6\pdl\drivers/peripheral/tcpwm/cy_tcpwm.h **** #define CY_TCPWM_CNT_CC_DEFAULT             (0xFFFFFFFFU) /**< Default value for CC register */
 340:Generated_Source\PSoC6\pdl\drivers/peripheral/tcpwm/cy_tcpwm.h **** #define CY_TCPWM_CNT_CC_BUFF_DEFAULT        (0xFFFFFFFFU) /**< Default value for CC_BUFF register *
 341:Generated_Source\PSoC6\pdl\drivers/peripheral/tcpwm/cy_tcpwm.h **** #define CY_TCPWM_CNT_PERIOD_DEFAULT         (0xFFFFFFFFU) /**< Default value for PERIOD register */
 342:Generated_Source\PSoC6\pdl\drivers/peripheral/tcpwm/cy_tcpwm.h **** #define CY_TCPWM_CNT_PERIOD_BUFF_DEFAULT    (0xFFFFFFFFU) /**< Default value for PERIOD_BUFF regist
 343:Generated_Source\PSoC6\pdl\drivers/peripheral/tcpwm/cy_tcpwm.h **** #define CY_TCPWM_CNT_TR_CTRL0_DEFAULT       (0x10U)  /**< Default value for TR_CTRL0 register */
 344:Generated_Source\PSoC6\pdl\drivers/peripheral/tcpwm/cy_tcpwm.h **** #define CY_TCPWM_CNT_TR_CTRL1_DEFAULT       (0x3FFU) /**< Default value for TR_CTRL1 register */
 345:Generated_Source\PSoC6\pdl\drivers/peripheral/tcpwm/cy_tcpwm.h **** #define CY_TCPWM_CNT_TR_CTRL2_DEFAULT       (0x3FU)  /**< Default value for TR_CTRL2 register */
 346:Generated_Source\PSoC6\pdl\drivers/peripheral/tcpwm/cy_tcpwm.h **** #define CY_TCPWM_CNT_INTR_DEFAULT           (0x3U)   /**< Default value for INTR register */
 347:Generated_Source\PSoC6\pdl\drivers/peripheral/tcpwm/cy_tcpwm.h **** #define CY_TCPWM_CNT_INTR_SET_DEFAULT       (0x0U)   /**< Default value for INTR_SET register */
 348:Generated_Source\PSoC6\pdl\drivers/peripheral/tcpwm/cy_tcpwm.h **** #define CY_TCPWM_CNT_INTR_MASK_DEFAULT      (0x0U)   /**< Default value for INTR_MASK register */
 349:Generated_Source\PSoC6\pdl\drivers/peripheral/tcpwm/cy_tcpwm.h **** /** \} group_tcpwm_reg_const */
 350:Generated_Source\PSoC6\pdl\drivers/peripheral/tcpwm/cy_tcpwm.h **** 
 351:Generated_Source\PSoC6\pdl\drivers/peripheral/tcpwm/cy_tcpwm.h **** /** Position of Up counting counter status */
 352:Generated_Source\PSoC6\pdl\drivers/peripheral/tcpwm/cy_tcpwm.h **** #define CY_TCPWM_CNT_STATUS_UP_POS          (0x1U)
 353:Generated_Source\PSoC6\pdl\drivers/peripheral/tcpwm/cy_tcpwm.h **** /** Initial value for the counter in the Up counting mode */
 354:Generated_Source\PSoC6\pdl\drivers/peripheral/tcpwm/cy_tcpwm.h **** #define CY_TCPWM_CNT_UP_INIT_VAL            (0x0U)
ARM GAS  C:\Users\louis\AppData\Local\Temp\ccj8Y2ua.s 			page 22


 355:Generated_Source\PSoC6\pdl\drivers/peripheral/tcpwm/cy_tcpwm.h **** /** Initial value for the counter in the Up/Down counting modes */
 356:Generated_Source\PSoC6\pdl\drivers/peripheral/tcpwm/cy_tcpwm.h **** #define CY_TCPWM_CNT_UP_DOWN_INIT_VAL       (0x1U)
 357:Generated_Source\PSoC6\pdl\drivers/peripheral/tcpwm/cy_tcpwm.h **** /** \} group_tcpwm_macros_common */
 358:Generated_Source\PSoC6\pdl\drivers/peripheral/tcpwm/cy_tcpwm.h **** 
 359:Generated_Source\PSoC6\pdl\drivers/peripheral/tcpwm/cy_tcpwm.h **** 
 360:Generated_Source\PSoC6\pdl\drivers/peripheral/tcpwm/cy_tcpwm.h **** /*******************************************************************************
 361:Generated_Source\PSoC6\pdl\drivers/peripheral/tcpwm/cy_tcpwm.h ****  * Enumerations
 362:Generated_Source\PSoC6\pdl\drivers/peripheral/tcpwm/cy_tcpwm.h ****  ******************************************************************************/
 363:Generated_Source\PSoC6\pdl\drivers/peripheral/tcpwm/cy_tcpwm.h **** 
 364:Generated_Source\PSoC6\pdl\drivers/peripheral/tcpwm/cy_tcpwm.h ****  /**
 365:Generated_Source\PSoC6\pdl\drivers/peripheral/tcpwm/cy_tcpwm.h **** * \addtogroup group_tcpwm_enums
 366:Generated_Source\PSoC6\pdl\drivers/peripheral/tcpwm/cy_tcpwm.h **** * \{
 367:Generated_Source\PSoC6\pdl\drivers/peripheral/tcpwm/cy_tcpwm.h **** */
 368:Generated_Source\PSoC6\pdl\drivers/peripheral/tcpwm/cy_tcpwm.h **** 
 369:Generated_Source\PSoC6\pdl\drivers/peripheral/tcpwm/cy_tcpwm.h **** /** TCPWM status definitions */
 370:Generated_Source\PSoC6\pdl\drivers/peripheral/tcpwm/cy_tcpwm.h **** typedef enum 
 371:Generated_Source\PSoC6\pdl\drivers/peripheral/tcpwm/cy_tcpwm.h **** {
 372:Generated_Source\PSoC6\pdl\drivers/peripheral/tcpwm/cy_tcpwm.h ****     CY_TCPWM_SUCCESS = 0x00U,                                           /**< Successful */
 373:Generated_Source\PSoC6\pdl\drivers/peripheral/tcpwm/cy_tcpwm.h ****     CY_TCPWM_BAD_PARAM = CY_TCPWM_ID | CY_PDL_STATUS_ERROR | 0x01U,     /**< One or more invalid pa
 374:Generated_Source\PSoC6\pdl\drivers/peripheral/tcpwm/cy_tcpwm.h **** } cy_en_tcpwm_status_t;
 375:Generated_Source\PSoC6\pdl\drivers/peripheral/tcpwm/cy_tcpwm.h **** /** \} group_tcpwm_enums */
 376:Generated_Source\PSoC6\pdl\drivers/peripheral/tcpwm/cy_tcpwm.h ****  
 377:Generated_Source\PSoC6\pdl\drivers/peripheral/tcpwm/cy_tcpwm.h **** /*******************************************************************************
 378:Generated_Source\PSoC6\pdl\drivers/peripheral/tcpwm/cy_tcpwm.h **** *        Function Prototypes
 379:Generated_Source\PSoC6\pdl\drivers/peripheral/tcpwm/cy_tcpwm.h **** *******************************************************************************/
 380:Generated_Source\PSoC6\pdl\drivers/peripheral/tcpwm/cy_tcpwm.h **** 
 381:Generated_Source\PSoC6\pdl\drivers/peripheral/tcpwm/cy_tcpwm.h **** /**
 382:Generated_Source\PSoC6\pdl\drivers/peripheral/tcpwm/cy_tcpwm.h **** * \addtogroup group_tcpwm_functions_common
 383:Generated_Source\PSoC6\pdl\drivers/peripheral/tcpwm/cy_tcpwm.h **** * \{
 384:Generated_Source\PSoC6\pdl\drivers/peripheral/tcpwm/cy_tcpwm.h **** */
 385:Generated_Source\PSoC6\pdl\drivers/peripheral/tcpwm/cy_tcpwm.h **** 
 386:Generated_Source\PSoC6\pdl\drivers/peripheral/tcpwm/cy_tcpwm.h **** __STATIC_INLINE void Cy_TCPWM_Enable_Multiple(TCPWM_Type *base, uint32_t counters);
 387:Generated_Source\PSoC6\pdl\drivers/peripheral/tcpwm/cy_tcpwm.h **** __STATIC_INLINE void Cy_TCPWM_Disable_Multiple(TCPWM_Type *base, uint32_t counters);
 388:Generated_Source\PSoC6\pdl\drivers/peripheral/tcpwm/cy_tcpwm.h **** __STATIC_INLINE void Cy_TCPWM_TriggerStart(TCPWM_Type *base, uint32_t counters);
 389:Generated_Source\PSoC6\pdl\drivers/peripheral/tcpwm/cy_tcpwm.h **** __STATIC_INLINE void Cy_TCPWM_TriggerReloadOrIndex(TCPWM_Type *base, uint32_t counters);
 390:Generated_Source\PSoC6\pdl\drivers/peripheral/tcpwm/cy_tcpwm.h **** __STATIC_INLINE void Cy_TCPWM_TriggerStopOrKill(TCPWM_Type *base, uint32_t counters);
 391:Generated_Source\PSoC6\pdl\drivers/peripheral/tcpwm/cy_tcpwm.h **** __STATIC_INLINE void Cy_TCPWM_TriggerCaptureOrSwap(TCPWM_Type *base, uint32_t counters);
 392:Generated_Source\PSoC6\pdl\drivers/peripheral/tcpwm/cy_tcpwm.h **** __STATIC_INLINE uint32_t Cy_TCPWM_GetInterruptStatus(TCPWM_Type const *base, uint32_t cntNum);
 393:Generated_Source\PSoC6\pdl\drivers/peripheral/tcpwm/cy_tcpwm.h **** __STATIC_INLINE void Cy_TCPWM_ClearInterrupt(TCPWM_Type *base, uint32_t cntNum, uint32_t source);
 394:Generated_Source\PSoC6\pdl\drivers/peripheral/tcpwm/cy_tcpwm.h **** __STATIC_INLINE void Cy_TCPWM_SetInterrupt(TCPWM_Type *base, uint32_t cntNum, uint32_t source);
 395:Generated_Source\PSoC6\pdl\drivers/peripheral/tcpwm/cy_tcpwm.h **** __STATIC_INLINE void Cy_TCPWM_SetInterruptMask(TCPWM_Type *base, uint32_t cntNum, uint32_t mask);
 396:Generated_Source\PSoC6\pdl\drivers/peripheral/tcpwm/cy_tcpwm.h **** __STATIC_INLINE uint32_t Cy_TCPWM_GetInterruptMask(TCPWM_Type const *base, uint32_t cntNum);
 397:Generated_Source\PSoC6\pdl\drivers/peripheral/tcpwm/cy_tcpwm.h **** __STATIC_INLINE uint32_t Cy_TCPWM_GetInterruptStatusMasked(TCPWM_Type const *base, uint32_t cntNum)
 398:Generated_Source\PSoC6\pdl\drivers/peripheral/tcpwm/cy_tcpwm.h **** 
 399:Generated_Source\PSoC6\pdl\drivers/peripheral/tcpwm/cy_tcpwm.h **** 
 400:Generated_Source\PSoC6\pdl\drivers/peripheral/tcpwm/cy_tcpwm.h **** /*******************************************************************************
 401:Generated_Source\PSoC6\pdl\drivers/peripheral/tcpwm/cy_tcpwm.h **** * Function Name: Cy_TCPWM_Enable_Multiple
 402:Generated_Source\PSoC6\pdl\drivers/peripheral/tcpwm/cy_tcpwm.h **** ****************************************************************************//**
 403:Generated_Source\PSoC6\pdl\drivers/peripheral/tcpwm/cy_tcpwm.h **** *
 404:Generated_Source\PSoC6\pdl\drivers/peripheral/tcpwm/cy_tcpwm.h **** * Enables the counter(s) in the TCPWM block. Multiple blocks can be started 
 405:Generated_Source\PSoC6\pdl\drivers/peripheral/tcpwm/cy_tcpwm.h **** * simultaneously.
 406:Generated_Source\PSoC6\pdl\drivers/peripheral/tcpwm/cy_tcpwm.h **** *
 407:Generated_Source\PSoC6\pdl\drivers/peripheral/tcpwm/cy_tcpwm.h **** * \param base
 408:Generated_Source\PSoC6\pdl\drivers/peripheral/tcpwm/cy_tcpwm.h **** * The pointer to a TCPWM instance.
 409:Generated_Source\PSoC6\pdl\drivers/peripheral/tcpwm/cy_tcpwm.h **** *
 410:Generated_Source\PSoC6\pdl\drivers/peripheral/tcpwm/cy_tcpwm.h **** * \param counters
 411:Generated_Source\PSoC6\pdl\drivers/peripheral/tcpwm/cy_tcpwm.h **** * A bit field representing each counter in the TCPWM block.
ARM GAS  C:\Users\louis\AppData\Local\Temp\ccj8Y2ua.s 			page 23


 412:Generated_Source\PSoC6\pdl\drivers/peripheral/tcpwm/cy_tcpwm.h **** *
 413:Generated_Source\PSoC6\pdl\drivers/peripheral/tcpwm/cy_tcpwm.h **** * \funcusage
 414:Generated_Source\PSoC6\pdl\drivers/peripheral/tcpwm/cy_tcpwm.h **** * \snippet tcpwm\1.10\counter\snippet\main.c snippet_Cy_TCPWM_Enable_Multiple
 415:Generated_Source\PSoC6\pdl\drivers/peripheral/tcpwm/cy_tcpwm.h **** *
 416:Generated_Source\PSoC6\pdl\drivers/peripheral/tcpwm/cy_tcpwm.h **** *******************************************************************************/
 417:Generated_Source\PSoC6\pdl\drivers/peripheral/tcpwm/cy_tcpwm.h **** __STATIC_INLINE void Cy_TCPWM_Enable_Multiple(TCPWM_Type *base, uint32_t counters)
 418:Generated_Source\PSoC6\pdl\drivers/peripheral/tcpwm/cy_tcpwm.h **** {
 419:Generated_Source\PSoC6\pdl\drivers/peripheral/tcpwm/cy_tcpwm.h ****     TCPWM_CTRL_SET(base) = counters;
 420:Generated_Source\PSoC6\pdl\drivers/peripheral/tcpwm/cy_tcpwm.h **** }
 421:Generated_Source\PSoC6\pdl\drivers/peripheral/tcpwm/cy_tcpwm.h **** 
 422:Generated_Source\PSoC6\pdl\drivers/peripheral/tcpwm/cy_tcpwm.h **** 
 423:Generated_Source\PSoC6\pdl\drivers/peripheral/tcpwm/cy_tcpwm.h **** /*******************************************************************************
 424:Generated_Source\PSoC6\pdl\drivers/peripheral/tcpwm/cy_tcpwm.h **** * Function Name: Cy_TCPWM_Disable_Multiple
 425:Generated_Source\PSoC6\pdl\drivers/peripheral/tcpwm/cy_tcpwm.h **** ****************************************************************************//**
 426:Generated_Source\PSoC6\pdl\drivers/peripheral/tcpwm/cy_tcpwm.h **** *
 427:Generated_Source\PSoC6\pdl\drivers/peripheral/tcpwm/cy_tcpwm.h **** * Disables the counter(s) in the TCPWM block. Multiple TCPWM can be disabled 
 428:Generated_Source\PSoC6\pdl\drivers/peripheral/tcpwm/cy_tcpwm.h **** * simultaneously.
 429:Generated_Source\PSoC6\pdl\drivers/peripheral/tcpwm/cy_tcpwm.h **** *
 430:Generated_Source\PSoC6\pdl\drivers/peripheral/tcpwm/cy_tcpwm.h **** * \param base
 431:Generated_Source\PSoC6\pdl\drivers/peripheral/tcpwm/cy_tcpwm.h **** * The pointer to a TCPWM instance.
 432:Generated_Source\PSoC6\pdl\drivers/peripheral/tcpwm/cy_tcpwm.h **** *
 433:Generated_Source\PSoC6\pdl\drivers/peripheral/tcpwm/cy_tcpwm.h **** * \param counters
 434:Generated_Source\PSoC6\pdl\drivers/peripheral/tcpwm/cy_tcpwm.h **** * A bit field representing each counter in the TCPWM block.
 435:Generated_Source\PSoC6\pdl\drivers/peripheral/tcpwm/cy_tcpwm.h **** *
 436:Generated_Source\PSoC6\pdl\drivers/peripheral/tcpwm/cy_tcpwm.h **** * \funcusage
 437:Generated_Source\PSoC6\pdl\drivers/peripheral/tcpwm/cy_tcpwm.h **** * \snippet tcpwm\1.10\counter\snippet\main.c snippet_Cy_TCPWM_Disable_Multiple
 438:Generated_Source\PSoC6\pdl\drivers/peripheral/tcpwm/cy_tcpwm.h **** *
 439:Generated_Source\PSoC6\pdl\drivers/peripheral/tcpwm/cy_tcpwm.h **** *******************************************************************************/
 440:Generated_Source\PSoC6\pdl\drivers/peripheral/tcpwm/cy_tcpwm.h **** __STATIC_INLINE void Cy_TCPWM_Disable_Multiple(TCPWM_Type *base, uint32_t counters)
 441:Generated_Source\PSoC6\pdl\drivers/peripheral/tcpwm/cy_tcpwm.h **** {
 442:Generated_Source\PSoC6\pdl\drivers/peripheral/tcpwm/cy_tcpwm.h ****     TCPWM_CTRL_CLR(base) = counters;
 482              		.loc 2 442 0
 483 00f8 4022     		movs	r2, #64
 484 00fa 104B     		ldr	r3, .L17+44
 485 00fc 5A60     		str	r2, [r3, #4]
 486              	.LVL82:
 487 00fe 02E0     		b	.L12
 488              	.L15:
 489              	.LVL83:
 490              	.LBE31:
 491              	.LBE30:
 492              	.LBE29:
 493              	.LBB32:
 494              	.LBB33:
 495              	.LBB34:
 496 0100 4022     		movs	r2, #64
 497 0102 0E4B     		ldr	r3, .L17+44
 498 0104 5A60     		str	r2, [r3, #4]
 499              	.LVL84:
 500              	.L12:
 501              	.LBE34:
 502              	.LBE33:
 503              	.LBE32:
 363:main_cm4.c    ****                PWM_Disable(); 
 364:main_cm4.c    ****         }
 365:main_cm4.c    ****         else {
 366:main_cm4.c    ****             PWM_Disable();
ARM GAS  C:\Users\louis\AppData\Local\Temp\ccj8Y2ua.s 			page 24


 367:main_cm4.c    ****         }
 368:main_cm4.c    ****        
 369:main_cm4.c    ****         CyDelay(2000);
 504              		.loc 1 369 0
 505 0106 4FF4FA60 		mov	r0, #2000
 506 010a FFF7FEFF 		bl	Cy_SysLib_Delay
 507              	.LVL85:
 508              	.LBE28:
 370:main_cm4.c    ****          
 371:main_cm4.c    ****         
 372:main_cm4.c    ****       }  
 509              		.loc 1 372 0
 510 010e 83E7     		b	.L13
 511              	.L18:
 512              		.align	3
 513              	.L17:
 514 0110 33333333 		.word	858993459
 515 0114 3333D33F 		.word	1070805811
 516 0118 00001D41 		.word	1092419584
 517 011c 28000000 		.word	.LC8
 518 0120 48000000 		.word	.LC11
 519 0124 4C000000 		.word	.LC12
 520 0128 00000000 		.word	GUI_Font20_1
 521 012c 64000000 		.word	.LC13
 522 0130 00000000 		.word	GUI_FontD32
 523 0134 70000000 		.word	.LC14
 524 0138 74000000 		.word	.LC15
 525 013c 00003840 		.word	1077411840
 526              		.cfi_endproc
 527              	.LFE687:
 528              		.size	GasSensor, .-GasSensor
 529              		.section	.text.EggTimer,"ax",%progbits
 530              		.align	2
 531              		.global	EggTimer
 532              		.thumb
 533              		.thumb_func
 534              		.type	EggTimer, %function
 535              	EggTimer:
 536              	.LFB688:
 373:main_cm4.c    **** 
 374:main_cm4.c    **** }
 375:main_cm4.c    **** 
 376:main_cm4.c    **** 
 377:main_cm4.c    **** void EggTimer(void) {
 537              		.loc 1 377 0
 538              		.cfi_startproc
 539              		@ args = 0, pretend = 0, frame = 24
 540              		@ frame_needed = 0, uses_anonymous_args = 0
 541 0000 30B5     		push	{r4, r5, lr}
 542              		.cfi_def_cfa_offset 12
 543              		.cfi_offset 4, -12
 544              		.cfi_offset 5, -8
 545              		.cfi_offset 14, -4
 546 0002 87B0     		sub	sp, sp, #28
 547              		.cfi_def_cfa_offset 40
 378:main_cm4.c    ****     GUI_SetColor(GUI_BLACK);
 548              		.loc 1 378 0
ARM GAS  C:\Users\louis\AppData\Local\Temp\ccj8Y2ua.s 			page 25


 549 0004 0020     		movs	r0, #0
 550 0006 FFF7FEFF 		bl	GUI_SetColor
 551              	.LVL86:
 379:main_cm4.c    ****     GUI_SetBkColor(GUI_WHITE);
 552              		.loc 1 379 0
 553 000a 6FF07F40 		mvn	r0, #-16777216
 554 000e FFF7FEFF 		bl	GUI_SetBkColor
 555              	.LVL87:
 380:main_cm4.c    ****     GUI_SetTextMode(GUI_TM_NORMAL);
 556              		.loc 1 380 0
 557 0012 0020     		movs	r0, #0
 558 0014 FFF7FEFF 		bl	GUI_SetTextMode
 559              	.LVL88:
 381:main_cm4.c    ****     GUI_SetTextStyle(GUI_TS_NORMAL);
 560              		.loc 1 381 0
 561 0018 0020     		movs	r0, #0
 562 001a FFF7FEFF 		bl	GUI_SetTextStyle
 563              	.LVL89:
 382:main_cm4.c    ****     
 383:main_cm4.c    **** 
 384:main_cm4.c    ****     /* Clear the screen */
 385:main_cm4.c    ****     GUI_Clear();
 564              		.loc 1 385 0
 565 001e FFF7FEFF 		bl	GUI_Clear
 566              	.LVL90:
 386:main_cm4.c    ****     
 387:main_cm4.c    ****     /* Display page title */
 388:main_cm4.c    ****     GUI_SetFont(GUI_FONT_20_1);
 567              		.loc 1 388 0
 568 0022 4C48     		ldr	r0, .L27
 569 0024 FFF7FEFF 		bl	GUI_SetFont
 570              	.LVL91:
 389:main_cm4.c    ****     GUI_SetTextAlign(GUI_TA_HCENTER);
 571              		.loc 1 389 0
 572 0028 0220     		movs	r0, #2
 573 002a FFF7FEFF 		bl	GUI_SetTextAlign
 574              	.LVL92:
 390:main_cm4.c    ****     GUI_DispStringAt("Egg Timer", 132, 5);
 575              		.loc 1 390 0
 576 002e 0522     		movs	r2, #5
 577 0030 8421     		movs	r1, #132
 578 0032 4948     		ldr	r0, .L27+4
 579 0034 FFF7FEFF 		bl	GUI_DispStringAt
 580              	.LVL93:
 391:main_cm4.c    ****     
 392:main_cm4.c    ****     GUI_DispStringAt("Timer started now", 132, 25);
 581              		.loc 1 392 0
 582 0038 1922     		movs	r2, #25
 583 003a 8421     		movs	r1, #132
 584 003c 4748     		ldr	r0, .L27+8
 585 003e FFF7FEFF 		bl	GUI_DispStringAt
 586              	.LVL94:
 393:main_cm4.c    ****     
 394:main_cm4.c    ****     int i;
 395:main_cm4.c    ****     int time_left = 120;
 587              		.loc 1 395 0
 588 0042 7824     		movs	r4, #120
ARM GAS  C:\Users\louis\AppData\Local\Temp\ccj8Y2ua.s 			page 26


 396:main_cm4.c    ****     
 397:main_cm4.c    ****     while (time_left >= 0) {
 589              		.loc 1 397 0
 590 0044 45E0     		b	.L20
 591              	.LVL95:
 592              	.L23:
 593              	.LBB35:
 398:main_cm4.c    ****         
 399:main_cm4.c    ****         time_left = time_left - 20;
 594              		.loc 1 399 0
 595 0046 143C     		subs	r4, r4, #20
 596              	.LVL96:
 400:main_cm4.c    ****         
 401:main_cm4.c    ****         if (time_left <= 0) {
 597              		.loc 1 401 0
 598 0048 002C     		cmp	r4, #0
 599 004a 44DD     		ble	.L22
 402:main_cm4.c    ****             break;
 403:main_cm4.c    ****         }
 404:main_cm4.c    ****         
 405:main_cm4.c    ****         
 406:main_cm4.c    ****         GUI_SetColor(GUI_BLACK);
 600              		.loc 1 406 0
 601 004c 0020     		movs	r0, #0
 602 004e FFF7FEFF 		bl	GUI_SetColor
 603              	.LVL97:
 407:main_cm4.c    ****         GUI_SetBkColor(GUI_WHITE);
 604              		.loc 1 407 0
 605 0052 6FF07F40 		mvn	r0, #-16777216
 606 0056 FFF7FEFF 		bl	GUI_SetBkColor
 607              	.LVL98:
 408:main_cm4.c    ****         GUI_SetTextMode(GUI_TM_NORMAL);
 608              		.loc 1 408 0
 609 005a 0020     		movs	r0, #0
 610 005c FFF7FEFF 		bl	GUI_SetTextMode
 611              	.LVL99:
 409:main_cm4.c    ****         GUI_SetTextStyle(GUI_TS_NORMAL);
 612              		.loc 1 409 0
 613 0060 0020     		movs	r0, #0
 614 0062 FFF7FEFF 		bl	GUI_SetTextStyle
 615              	.LVL100:
 410:main_cm4.c    ****         
 411:main_cm4.c    ****         /* Clear the screen */
 412:main_cm4.c    ****         GUI_Clear();
 616              		.loc 1 412 0
 617 0066 FFF7FEFF 		bl	GUI_Clear
 618              	.LVL101:
 413:main_cm4.c    ****         /* Display page title */
 414:main_cm4.c    ****         GUI_SetFont(GUI_FONT_20_1);
 619              		.loc 1 414 0
 620 006a 3A4D     		ldr	r5, .L27
 621 006c 2846     		mov	r0, r5
 622 006e FFF7FEFF 		bl	GUI_SetFont
 623              	.LVL102:
 415:main_cm4.c    ****         GUI_SetTextAlign(GUI_TA_HCENTER);
 624              		.loc 1 415 0
 625 0072 0220     		movs	r0, #2
ARM GAS  C:\Users\louis\AppData\Local\Temp\ccj8Y2ua.s 			page 27


 626 0074 FFF7FEFF 		bl	GUI_SetTextAlign
 627              	.LVL103:
 416:main_cm4.c    ****         GUI_DispStringAt("Egg Timer", 130, 5);
 628              		.loc 1 416 0
 629 0078 0522     		movs	r2, #5
 630 007a 8221     		movs	r1, #130
 631 007c 3648     		ldr	r0, .L27+4
 632 007e FFF7FEFF 		bl	GUI_DispStringAt
 633              	.LVL104:
 417:main_cm4.c    ****     
 418:main_cm4.c    ****         GUI_DispStringAt("Timer started now", 60, 25);
 634              		.loc 1 418 0
 635 0082 1922     		movs	r2, #25
 636 0084 3C21     		movs	r1, #60
 637 0086 3548     		ldr	r0, .L27+8
 638 0088 FFF7FEFF 		bl	GUI_DispStringAt
 639              	.LVL105:
 419:main_cm4.c    ****         
 420:main_cm4.c    ****         char c[20];
 421:main_cm4.c    ****         sprintf(c, "%d", time_left);
 640              		.loc 1 421 0
 641 008c 2246     		mov	r2, r4
 642 008e 3449     		ldr	r1, .L27+12
 643 0090 01A8     		add	r0, sp, #4
 644 0092 FFF7FEFF 		bl	sprintf
 645              	.LVL106:
 422:main_cm4.c    ****         
 423:main_cm4.c    ****             
 424:main_cm4.c    ****         GUI_SetFont(GUI_FONT_D64);
 646              		.loc 1 424 0
 647 0096 3348     		ldr	r0, .L27+16
 648 0098 FFF7FEFF 		bl	GUI_SetFont
 649              	.LVL107:
 425:main_cm4.c    ****         GUI_SetTextAlign(GUI_TA_HCENTER);
 650              		.loc 1 425 0
 651 009c 0220     		movs	r0, #2
 652 009e FFF7FEFF 		bl	GUI_SetTextAlign
 653              	.LVL108:
 426:main_cm4.c    ****         GUI_DispStringAt(c, 132, 70);
 654              		.loc 1 426 0
 655 00a2 4622     		movs	r2, #70
 656 00a4 8421     		movs	r1, #132
 657 00a6 01A8     		add	r0, sp, #4
 658 00a8 FFF7FEFF 		bl	GUI_DispStringAt
 659              	.LVL109:
 427:main_cm4.c    ****         
 428:main_cm4.c    ****         GUI_SetFont(GUI_FONT_20_1);
 660              		.loc 1 428 0
 661 00ac 2846     		mov	r0, r5
 662 00ae FFF7FEFF 		bl	GUI_SetFont
 663              	.LVL110:
 429:main_cm4.c    ****         GUI_SetTextAlign(GUI_TA_HCENTER);
 664              		.loc 1 429 0
 665 00b2 0220     		movs	r0, #2
 666 00b4 FFF7FEFF 		bl	GUI_SetTextAlign
 667              	.LVL111:
 430:main_cm4.c    ****         GUI_DispStringAt("Seconds Left", 135, 150);
ARM GAS  C:\Users\louis\AppData\Local\Temp\ccj8Y2ua.s 			page 28


 668              		.loc 1 430 0
 669 00b8 9622     		movs	r2, #150
 670 00ba 8721     		movs	r1, #135
 671 00bc 2A48     		ldr	r0, .L27+20
 672 00be FFF7FEFF 		bl	GUI_DispStringAt
 673              	.LVL112:
 431:main_cm4.c    ****         
 432:main_cm4.c    ****         
 433:main_cm4.c    ****         
 434:main_cm4.c    ****         UpdateDisplay(CY_EINK_FULL_4STAGE, true);
 674              		.loc 1 434 0
 675 00c2 0121     		movs	r1, #1
 676 00c4 0846     		mov	r0, r1
 677 00c6 FFF7FEFF 		bl	UpdateDisplay
 678              	.LVL113:
 435:main_cm4.c    ****         
 436:main_cm4.c    ****         CyDelay(2000);
 679              		.loc 1 436 0
 680 00ca 4FF4FA60 		mov	r0, #2000
 681 00ce FFF7FEFF 		bl	Cy_SysLib_Delay
 682              	.LVL114:
 683              	.L20:
 684              	.LBE35:
 397:main_cm4.c    ****         
 685              		.loc 1 397 0
 686 00d2 002C     		cmp	r4, #0
 687 00d4 B7DA     		bge	.L23
 688              	.L22:
 437:main_cm4.c    ****         
 438:main_cm4.c    ****         
 439:main_cm4.c    ****         
 440:main_cm4.c    ****     
 441:main_cm4.c    ****     
 442:main_cm4.c    ****     }
 443:main_cm4.c    ****     
 444:main_cm4.c    ****     
 445:main_cm4.c    ****     GUI_Clear();
 689              		.loc 1 445 0
 690 00d6 FFF7FEFF 		bl	GUI_Clear
 691              	.LVL115:
 446:main_cm4.c    ****         /* Display page title */
 447:main_cm4.c    ****     GUI_SetFont(GUI_FONT_20_1);
 692              		.loc 1 447 0
 693 00da 1E4C     		ldr	r4, .L27
 694              	.LVL116:
 695 00dc 2046     		mov	r0, r4
 696 00de FFF7FEFF 		bl	GUI_SetFont
 697              	.LVL117:
 448:main_cm4.c    ****     GUI_SetTextAlign(GUI_TA_HCENTER);
 698              		.loc 1 448 0
 699 00e2 0220     		movs	r0, #2
 700 00e4 FFF7FEFF 		bl	GUI_SetTextAlign
 701              	.LVL118:
 449:main_cm4.c    ****     GUI_DispStringAt("Egg Timer", 130, 5);
 702              		.loc 1 449 0
 703 00e8 0522     		movs	r2, #5
 704 00ea 8221     		movs	r1, #130
ARM GAS  C:\Users\louis\AppData\Local\Temp\ccj8Y2ua.s 			page 29


 705 00ec 1A48     		ldr	r0, .L27+4
 706 00ee FFF7FEFF 		bl	GUI_DispStringAt
 707              	.LVL119:
 450:main_cm4.c    **** 
 451:main_cm4.c    ****     GUI_DispStringAt("Timer started now", 60, 25);
 708              		.loc 1 451 0
 709 00f2 1922     		movs	r2, #25
 710 00f4 3C21     		movs	r1, #60
 711 00f6 1948     		ldr	r0, .L27+8
 712 00f8 FFF7FEFF 		bl	GUI_DispStringAt
 713              	.LVL120:
 452:main_cm4.c    ****             
 453:main_cm4.c    ****     GUI_SetFont(GUI_FONT_D64);
 714              		.loc 1 453 0
 715 00fc 1948     		ldr	r0, .L27+16
 716 00fe FFF7FEFF 		bl	GUI_SetFont
 717              	.LVL121:
 454:main_cm4.c    ****     GUI_SetTextAlign(GUI_TA_HCENTER);
 718              		.loc 1 454 0
 719 0102 0220     		movs	r0, #2
 720 0104 FFF7FEFF 		bl	GUI_SetTextAlign
 721              	.LVL122:
 455:main_cm4.c    ****     GUI_DispStringAt("0", 132, 70);
 722              		.loc 1 455 0
 723 0108 4622     		movs	r2, #70
 724 010a 8421     		movs	r1, #132
 725 010c 1748     		ldr	r0, .L27+24
 726 010e FFF7FEFF 		bl	GUI_DispStringAt
 727              	.LVL123:
 456:main_cm4.c    ****     
 457:main_cm4.c    ****     GUI_SetFont(GUI_FONT_20_1);
 728              		.loc 1 457 0
 729 0112 2046     		mov	r0, r4
 730 0114 FFF7FEFF 		bl	GUI_SetFont
 731              	.LVL124:
 458:main_cm4.c    ****     GUI_SetTextAlign(GUI_TA_HCENTER);
 732              		.loc 1 458 0
 733 0118 0220     		movs	r0, #2
 734 011a FFF7FEFF 		bl	GUI_SetTextAlign
 735              	.LVL125:
 459:main_cm4.c    ****     GUI_DispStringAt("Seconds Left", 135, 150);
 736              		.loc 1 459 0
 737 011e 9622     		movs	r2, #150
 738 0120 8721     		movs	r1, #135
 739 0122 1148     		ldr	r0, .L27+20
 740 0124 FFF7FEFF 		bl	GUI_DispStringAt
 741              	.LVL126:
 460:main_cm4.c    **** 
 461:main_cm4.c    ****     UpdateDisplay(CY_EINK_FULL_4STAGE, true);
 742              		.loc 1 461 0
 743 0128 0121     		movs	r1, #1
 744 012a 0846     		mov	r0, r1
 745 012c FFF7FEFF 		bl	UpdateDisplay
 746              	.LVL127:
 462:main_cm4.c    ****     
 463:main_cm4.c    ****     
 464:main_cm4.c    ****     int x;
ARM GAS  C:\Users\louis\AppData\Local\Temp\ccj8Y2ua.s 			page 30


 465:main_cm4.c    ****     for (x = 0; x < 50; x = x + 1) {
 747              		.loc 1 465 0
 748 0130 0024     		movs	r4, #0
 749 0132 0BE0     		b	.L24
 750              	.LVL128:
 751              	.L25:
 466:main_cm4.c    ****     PWM_Start();
 752              		.loc 1 466 0 discriminator 3
 753 0134 FFF7FEFF 		bl	PWM_Start
 754              	.LVL129:
 467:main_cm4.c    ****     CyDelay(100);
 755              		.loc 1 467 0 discriminator 3
 756 0138 6420     		movs	r0, #100
 757 013a FFF7FEFF 		bl	Cy_SysLib_Delay
 758              	.LVL130:
 759              	.LBB36:
 760              	.LBB37:
 761              	.LBB38:
 762              		.loc 2 442 0 discriminator 3
 763 013e 4022     		movs	r2, #64
 764 0140 0B4B     		ldr	r3, .L27+28
 765 0142 5A60     		str	r2, [r3, #4]
 766              	.LVL131:
 767              	.LBE38:
 768              	.LBE37:
 769              	.LBE36:
 468:main_cm4.c    ****     PWM_Disable();
 469:main_cm4.c    ****     CyDelay(100);
 770              		.loc 1 469 0 discriminator 3
 771 0144 6420     		movs	r0, #100
 772 0146 FFF7FEFF 		bl	Cy_SysLib_Delay
 773              	.LVL132:
 465:main_cm4.c    ****     PWM_Start();
 774              		.loc 1 465 0 discriminator 3
 775 014a 0134     		adds	r4, r4, #1
 776              	.LVL133:
 777              	.L24:
 465:main_cm4.c    ****     PWM_Start();
 778              		.loc 1 465 0 is_stmt 0 discriminator 1
 779 014c 312C     		cmp	r4, #49
 780 014e F1DD     		ble	.L25
 470:main_cm4.c    ****     }
 471:main_cm4.c    ****     
 472:main_cm4.c    ****         
 473:main_cm4.c    **** }
 781              		.loc 1 473 0 is_stmt 1
 782 0150 07B0     		add	sp, sp, #28
 783              		.cfi_def_cfa_offset 12
 784              		@ sp needed
 785 0152 30BD     		pop	{r4, r5, pc}
 786              	.LVL134:
 787              	.L28:
 788              		.align	2
 789              	.L27:
 790 0154 00000000 		.word	GUI_Font20_1
 791 0158 7C000000 		.word	.LC16
 792 015c 88000000 		.word	.LC17
ARM GAS  C:\Users\louis\AppData\Local\Temp\ccj8Y2ua.s 			page 31


 793 0160 9C000000 		.word	.LC18
 794 0164 00000000 		.word	GUI_FontD64
 795 0168 A0000000 		.word	.LC19
 796 016c B0000000 		.word	.LC20
 797 0170 00003840 		.word	1077411840
 798              		.cfi_endproc
 799              	.LFE688:
 800              		.size	EggTimer, .-EggTimer
 801              		.section	.text.CampingActivity,"ax",%progbits
 802              		.align	2
 803              		.global	CampingActivity
 804              		.thumb
 805              		.thumb_func
 806              		.type	CampingActivity, %function
 807              	CampingActivity:
 808              	.LFB689:
 474:main_cm4.c    **** 
 475:main_cm4.c    **** 
 476:main_cm4.c    **** void CampingActivity(void){
 809              		.loc 1 476 0
 810              		.cfi_startproc
 811              		@ args = 0, pretend = 0, frame = 48
 812              		@ frame_needed = 0, uses_anonymous_args = 0
 813 0000 30B5     		push	{r4, r5, lr}
 814              		.cfi_def_cfa_offset 12
 815              		.cfi_offset 4, -12
 816              		.cfi_offset 5, -8
 817              		.cfi_offset 14, -4
 818 0002 8DB0     		sub	sp, sp, #52
 819              		.cfi_def_cfa_offset 64
 477:main_cm4.c    ****      UART_1_Start();
 820              		.loc 1 477 0
 821 0004 FFF7FEFF 		bl	UART_1_Start
 822              	.LVL135:
 823              	.LBB39:
 824              	.LBB40:
 825              		.file 3 "Generated_Source\\PSoC6\\pdl\\cmsis/include/cmsis_gcc.h"
   1:Generated_Source\PSoC6\pdl\cmsis/include/cmsis_gcc.h **** /**************************************************************************//**
   2:Generated_Source\PSoC6\pdl\cmsis/include/cmsis_gcc.h ****  * @file     cmsis_gcc.h
   3:Generated_Source\PSoC6\pdl\cmsis/include/cmsis_gcc.h ****  * @brief    CMSIS compiler GCC header file
   4:Generated_Source\PSoC6\pdl\cmsis/include/cmsis_gcc.h ****  * @version  V5.0.3
   5:Generated_Source\PSoC6\pdl\cmsis/include/cmsis_gcc.h ****  * @date     16. January 2018
   6:Generated_Source\PSoC6\pdl\cmsis/include/cmsis_gcc.h ****  ******************************************************************************/
   7:Generated_Source\PSoC6\pdl\cmsis/include/cmsis_gcc.h **** /*
   8:Generated_Source\PSoC6\pdl\cmsis/include/cmsis_gcc.h ****  * Copyright (c) 2009-2017 ARM Limited. All rights reserved.
   9:Generated_Source\PSoC6\pdl\cmsis/include/cmsis_gcc.h ****  *
  10:Generated_Source\PSoC6\pdl\cmsis/include/cmsis_gcc.h ****  * SPDX-License-Identifier: Apache-2.0
  11:Generated_Source\PSoC6\pdl\cmsis/include/cmsis_gcc.h ****  *
  12:Generated_Source\PSoC6\pdl\cmsis/include/cmsis_gcc.h ****  * Licensed under the Apache License, Version 2.0 (the License); you may
  13:Generated_Source\PSoC6\pdl\cmsis/include/cmsis_gcc.h ****  * not use this file except in compliance with the License.
  14:Generated_Source\PSoC6\pdl\cmsis/include/cmsis_gcc.h ****  * You may obtain a copy of the License at
  15:Generated_Source\PSoC6\pdl\cmsis/include/cmsis_gcc.h ****  *
  16:Generated_Source\PSoC6\pdl\cmsis/include/cmsis_gcc.h ****  * www.apache.org/licenses/LICENSE-2.0
  17:Generated_Source\PSoC6\pdl\cmsis/include/cmsis_gcc.h ****  *
  18:Generated_Source\PSoC6\pdl\cmsis/include/cmsis_gcc.h ****  * Unless required by applicable law or agreed to in writing, software
  19:Generated_Source\PSoC6\pdl\cmsis/include/cmsis_gcc.h ****  * distributed under the License is distributed on an AS IS BASIS, WITHOUT
  20:Generated_Source\PSoC6\pdl\cmsis/include/cmsis_gcc.h ****  * WARRANTIES OR CONDITIONS OF ANY KIND, either express or implied.
ARM GAS  C:\Users\louis\AppData\Local\Temp\ccj8Y2ua.s 			page 32


  21:Generated_Source\PSoC6\pdl\cmsis/include/cmsis_gcc.h ****  * See the License for the specific language governing permissions and
  22:Generated_Source\PSoC6\pdl\cmsis/include/cmsis_gcc.h ****  * limitations under the License.
  23:Generated_Source\PSoC6\pdl\cmsis/include/cmsis_gcc.h ****  */
  24:Generated_Source\PSoC6\pdl\cmsis/include/cmsis_gcc.h **** 
  25:Generated_Source\PSoC6\pdl\cmsis/include/cmsis_gcc.h **** #ifndef __CMSIS_GCC_H
  26:Generated_Source\PSoC6\pdl\cmsis/include/cmsis_gcc.h **** #define __CMSIS_GCC_H
  27:Generated_Source\PSoC6\pdl\cmsis/include/cmsis_gcc.h **** 
  28:Generated_Source\PSoC6\pdl\cmsis/include/cmsis_gcc.h **** /* ignore some GCC warnings */
  29:Generated_Source\PSoC6\pdl\cmsis/include/cmsis_gcc.h **** #pragma GCC diagnostic push
  30:Generated_Source\PSoC6\pdl\cmsis/include/cmsis_gcc.h **** #pragma GCC diagnostic ignored "-Wsign-conversion"
  31:Generated_Source\PSoC6\pdl\cmsis/include/cmsis_gcc.h **** #pragma GCC diagnostic ignored "-Wconversion"
  32:Generated_Source\PSoC6\pdl\cmsis/include/cmsis_gcc.h **** #pragma GCC diagnostic ignored "-Wunused-parameter"
  33:Generated_Source\PSoC6\pdl\cmsis/include/cmsis_gcc.h **** 
  34:Generated_Source\PSoC6\pdl\cmsis/include/cmsis_gcc.h **** /* Fallback for __has_builtin */
  35:Generated_Source\PSoC6\pdl\cmsis/include/cmsis_gcc.h **** #ifndef __has_builtin
  36:Generated_Source\PSoC6\pdl\cmsis/include/cmsis_gcc.h ****   #define __has_builtin(x) (0)
  37:Generated_Source\PSoC6\pdl\cmsis/include/cmsis_gcc.h **** #endif
  38:Generated_Source\PSoC6\pdl\cmsis/include/cmsis_gcc.h **** 
  39:Generated_Source\PSoC6\pdl\cmsis/include/cmsis_gcc.h **** /* CMSIS compiler specific defines */
  40:Generated_Source\PSoC6\pdl\cmsis/include/cmsis_gcc.h **** #ifndef   __ASM
  41:Generated_Source\PSoC6\pdl\cmsis/include/cmsis_gcc.h ****   #define __ASM                                  __asm
  42:Generated_Source\PSoC6\pdl\cmsis/include/cmsis_gcc.h **** #endif
  43:Generated_Source\PSoC6\pdl\cmsis/include/cmsis_gcc.h **** #ifndef   __INLINE
  44:Generated_Source\PSoC6\pdl\cmsis/include/cmsis_gcc.h ****   #define __INLINE                               inline
  45:Generated_Source\PSoC6\pdl\cmsis/include/cmsis_gcc.h **** #endif
  46:Generated_Source\PSoC6\pdl\cmsis/include/cmsis_gcc.h **** #ifndef   __STATIC_INLINE
  47:Generated_Source\PSoC6\pdl\cmsis/include/cmsis_gcc.h ****   #define __STATIC_INLINE                        static inline
  48:Generated_Source\PSoC6\pdl\cmsis/include/cmsis_gcc.h **** #endif
  49:Generated_Source\PSoC6\pdl\cmsis/include/cmsis_gcc.h **** #ifndef   __STATIC_FORCEINLINE                 
  50:Generated_Source\PSoC6\pdl\cmsis/include/cmsis_gcc.h ****   #define __STATIC_FORCEINLINE                   __attribute__((always_inline)) static inline
  51:Generated_Source\PSoC6\pdl\cmsis/include/cmsis_gcc.h **** #endif                                           
  52:Generated_Source\PSoC6\pdl\cmsis/include/cmsis_gcc.h **** #ifndef   __NO_RETURN
  53:Generated_Source\PSoC6\pdl\cmsis/include/cmsis_gcc.h ****   #define __NO_RETURN                            __attribute__((__noreturn__))
  54:Generated_Source\PSoC6\pdl\cmsis/include/cmsis_gcc.h **** #endif
  55:Generated_Source\PSoC6\pdl\cmsis/include/cmsis_gcc.h **** #ifndef   __USED
  56:Generated_Source\PSoC6\pdl\cmsis/include/cmsis_gcc.h ****   #define __USED                                 __attribute__((used))
  57:Generated_Source\PSoC6\pdl\cmsis/include/cmsis_gcc.h **** #endif
  58:Generated_Source\PSoC6\pdl\cmsis/include/cmsis_gcc.h **** #ifndef   __WEAK
  59:Generated_Source\PSoC6\pdl\cmsis/include/cmsis_gcc.h ****   #define __WEAK                                 __attribute__((weak))
  60:Generated_Source\PSoC6\pdl\cmsis/include/cmsis_gcc.h **** #endif
  61:Generated_Source\PSoC6\pdl\cmsis/include/cmsis_gcc.h **** #ifndef   __PACKED
  62:Generated_Source\PSoC6\pdl\cmsis/include/cmsis_gcc.h ****   #define __PACKED                               __attribute__((packed, aligned(1)))
  63:Generated_Source\PSoC6\pdl\cmsis/include/cmsis_gcc.h **** #endif
  64:Generated_Source\PSoC6\pdl\cmsis/include/cmsis_gcc.h **** #ifndef   __PACKED_STRUCT
  65:Generated_Source\PSoC6\pdl\cmsis/include/cmsis_gcc.h ****   #define __PACKED_STRUCT                        struct __attribute__((packed, aligned(1)))
  66:Generated_Source\PSoC6\pdl\cmsis/include/cmsis_gcc.h **** #endif
  67:Generated_Source\PSoC6\pdl\cmsis/include/cmsis_gcc.h **** #ifndef   __PACKED_UNION
  68:Generated_Source\PSoC6\pdl\cmsis/include/cmsis_gcc.h ****   #define __PACKED_UNION                         union __attribute__((packed, aligned(1)))
  69:Generated_Source\PSoC6\pdl\cmsis/include/cmsis_gcc.h **** #endif
  70:Generated_Source\PSoC6\pdl\cmsis/include/cmsis_gcc.h **** #ifndef   __UNALIGNED_UINT32        /* deprecated */
  71:Generated_Source\PSoC6\pdl\cmsis/include/cmsis_gcc.h ****   #pragma GCC diagnostic push
  72:Generated_Source\PSoC6\pdl\cmsis/include/cmsis_gcc.h ****   #pragma GCC diagnostic ignored "-Wpacked"
  73:Generated_Source\PSoC6\pdl\cmsis/include/cmsis_gcc.h ****   #pragma GCC diagnostic ignored "-Wattributes"
  74:Generated_Source\PSoC6\pdl\cmsis/include/cmsis_gcc.h ****   struct __attribute__((packed)) T_UINT32 { uint32_t v; };
  75:Generated_Source\PSoC6\pdl\cmsis/include/cmsis_gcc.h ****   #pragma GCC diagnostic pop
  76:Generated_Source\PSoC6\pdl\cmsis/include/cmsis_gcc.h ****   #define __UNALIGNED_UINT32(x)                  (((struct T_UINT32 *)(x))->v)
  77:Generated_Source\PSoC6\pdl\cmsis/include/cmsis_gcc.h **** #endif
ARM GAS  C:\Users\louis\AppData\Local\Temp\ccj8Y2ua.s 			page 33


  78:Generated_Source\PSoC6\pdl\cmsis/include/cmsis_gcc.h **** #ifndef   __UNALIGNED_UINT16_WRITE
  79:Generated_Source\PSoC6\pdl\cmsis/include/cmsis_gcc.h ****   #pragma GCC diagnostic push
  80:Generated_Source\PSoC6\pdl\cmsis/include/cmsis_gcc.h ****   #pragma GCC diagnostic ignored "-Wpacked"
  81:Generated_Source\PSoC6\pdl\cmsis/include/cmsis_gcc.h ****   #pragma GCC diagnostic ignored "-Wattributes"
  82:Generated_Source\PSoC6\pdl\cmsis/include/cmsis_gcc.h ****   __PACKED_STRUCT T_UINT16_WRITE { uint16_t v; };
  83:Generated_Source\PSoC6\pdl\cmsis/include/cmsis_gcc.h ****   #pragma GCC diagnostic pop
  84:Generated_Source\PSoC6\pdl\cmsis/include/cmsis_gcc.h ****   #define __UNALIGNED_UINT16_WRITE(addr, val)    (void)((((struct T_UINT16_WRITE *)(void *)(addr))-
  85:Generated_Source\PSoC6\pdl\cmsis/include/cmsis_gcc.h **** #endif
  86:Generated_Source\PSoC6\pdl\cmsis/include/cmsis_gcc.h **** #ifndef   __UNALIGNED_UINT16_READ
  87:Generated_Source\PSoC6\pdl\cmsis/include/cmsis_gcc.h ****   #pragma GCC diagnostic push
  88:Generated_Source\PSoC6\pdl\cmsis/include/cmsis_gcc.h ****   #pragma GCC diagnostic ignored "-Wpacked"
  89:Generated_Source\PSoC6\pdl\cmsis/include/cmsis_gcc.h ****   #pragma GCC diagnostic ignored "-Wattributes"
  90:Generated_Source\PSoC6\pdl\cmsis/include/cmsis_gcc.h ****   __PACKED_STRUCT T_UINT16_READ { uint16_t v; };
  91:Generated_Source\PSoC6\pdl\cmsis/include/cmsis_gcc.h ****   #pragma GCC diagnostic pop
  92:Generated_Source\PSoC6\pdl\cmsis/include/cmsis_gcc.h ****   #define __UNALIGNED_UINT16_READ(addr)          (((const struct T_UINT16_READ *)(const void *)(add
  93:Generated_Source\PSoC6\pdl\cmsis/include/cmsis_gcc.h **** #endif
  94:Generated_Source\PSoC6\pdl\cmsis/include/cmsis_gcc.h **** #ifndef   __UNALIGNED_UINT32_WRITE
  95:Generated_Source\PSoC6\pdl\cmsis/include/cmsis_gcc.h ****   #pragma GCC diagnostic push
  96:Generated_Source\PSoC6\pdl\cmsis/include/cmsis_gcc.h ****   #pragma GCC diagnostic ignored "-Wpacked"
  97:Generated_Source\PSoC6\pdl\cmsis/include/cmsis_gcc.h ****   #pragma GCC diagnostic ignored "-Wattributes"
  98:Generated_Source\PSoC6\pdl\cmsis/include/cmsis_gcc.h ****   __PACKED_STRUCT T_UINT32_WRITE { uint32_t v; };
  99:Generated_Source\PSoC6\pdl\cmsis/include/cmsis_gcc.h ****   #pragma GCC diagnostic pop
 100:Generated_Source\PSoC6\pdl\cmsis/include/cmsis_gcc.h ****   #define __UNALIGNED_UINT32_WRITE(addr, val)    (void)((((struct T_UINT32_WRITE *)(void *)(addr))-
 101:Generated_Source\PSoC6\pdl\cmsis/include/cmsis_gcc.h **** #endif
 102:Generated_Source\PSoC6\pdl\cmsis/include/cmsis_gcc.h **** #ifndef   __UNALIGNED_UINT32_READ
 103:Generated_Source\PSoC6\pdl\cmsis/include/cmsis_gcc.h ****   #pragma GCC diagnostic push
 104:Generated_Source\PSoC6\pdl\cmsis/include/cmsis_gcc.h ****   #pragma GCC diagnostic ignored "-Wpacked"
 105:Generated_Source\PSoC6\pdl\cmsis/include/cmsis_gcc.h ****   #pragma GCC diagnostic ignored "-Wattributes"
 106:Generated_Source\PSoC6\pdl\cmsis/include/cmsis_gcc.h ****   __PACKED_STRUCT T_UINT32_READ { uint32_t v; };
 107:Generated_Source\PSoC6\pdl\cmsis/include/cmsis_gcc.h ****   #pragma GCC diagnostic pop
 108:Generated_Source\PSoC6\pdl\cmsis/include/cmsis_gcc.h ****   #define __UNALIGNED_UINT32_READ(addr)          (((const struct T_UINT32_READ *)(const void *)(add
 109:Generated_Source\PSoC6\pdl\cmsis/include/cmsis_gcc.h **** #endif
 110:Generated_Source\PSoC6\pdl\cmsis/include/cmsis_gcc.h **** #ifndef   __ALIGNED
 111:Generated_Source\PSoC6\pdl\cmsis/include/cmsis_gcc.h ****   #define __ALIGNED(x)                           __attribute__((aligned(x)))
 112:Generated_Source\PSoC6\pdl\cmsis/include/cmsis_gcc.h **** #endif
 113:Generated_Source\PSoC6\pdl\cmsis/include/cmsis_gcc.h **** #ifndef   __RESTRICT
 114:Generated_Source\PSoC6\pdl\cmsis/include/cmsis_gcc.h ****   #define __RESTRICT                             __restrict
 115:Generated_Source\PSoC6\pdl\cmsis/include/cmsis_gcc.h **** #endif
 116:Generated_Source\PSoC6\pdl\cmsis/include/cmsis_gcc.h **** 
 117:Generated_Source\PSoC6\pdl\cmsis/include/cmsis_gcc.h **** 
 118:Generated_Source\PSoC6\pdl\cmsis/include/cmsis_gcc.h **** /* ###########################  Core Function Access  ########################### */
 119:Generated_Source\PSoC6\pdl\cmsis/include/cmsis_gcc.h **** /** \ingroup  CMSIS_Core_FunctionInterface
 120:Generated_Source\PSoC6\pdl\cmsis/include/cmsis_gcc.h ****     \defgroup CMSIS_Core_RegAccFunctions CMSIS Core Register Access Functions
 121:Generated_Source\PSoC6\pdl\cmsis/include/cmsis_gcc.h ****   @{
 122:Generated_Source\PSoC6\pdl\cmsis/include/cmsis_gcc.h ****  */
 123:Generated_Source\PSoC6\pdl\cmsis/include/cmsis_gcc.h **** 
 124:Generated_Source\PSoC6\pdl\cmsis/include/cmsis_gcc.h **** /**
 125:Generated_Source\PSoC6\pdl\cmsis/include/cmsis_gcc.h ****   \brief   Enable IRQ Interrupts
 126:Generated_Source\PSoC6\pdl\cmsis/include/cmsis_gcc.h ****   \details Enables IRQ interrupts by clearing the I-bit in the CPSR.
 127:Generated_Source\PSoC6\pdl\cmsis/include/cmsis_gcc.h ****            Can only be executed in Privileged modes.
 128:Generated_Source\PSoC6\pdl\cmsis/include/cmsis_gcc.h ****  */
 129:Generated_Source\PSoC6\pdl\cmsis/include/cmsis_gcc.h **** __STATIC_FORCEINLINE void __enable_irq(void)
 130:Generated_Source\PSoC6\pdl\cmsis/include/cmsis_gcc.h **** {
 131:Generated_Source\PSoC6\pdl\cmsis/include/cmsis_gcc.h ****   __ASM volatile ("cpsie i" : : : "memory");
 826              		.loc 3 131 0
 827              		.syntax unified
 828              	@ 131 "Generated_Source\PSoC6\pdl\cmsis/include/cmsis_gcc.h" 1
ARM GAS  C:\Users\louis\AppData\Local\Temp\ccj8Y2ua.s 			page 34


 829 0008 62B6     		cpsie i
 830              	@ 0 "" 2
 831              		.thumb
 832              		.syntax unified
 833              	.LBE40:
 834              	.LBE39:
 478:main_cm4.c    ****     __enable_irq();
 479:main_cm4.c    ****     /* Set font size, foreground and background colors */
 480:main_cm4.c    ****     GUI_SetColor(GUI_BLACK);
 835              		.loc 1 480 0
 836 000a 0020     		movs	r0, #0
 837 000c FFF7FEFF 		bl	GUI_SetColor
 838              	.LVL136:
 481:main_cm4.c    ****     GUI_SetBkColor(GUI_WHITE);
 839              		.loc 1 481 0
 840 0010 6FF07F40 		mvn	r0, #-16777216
 841 0014 FFF7FEFF 		bl	GUI_SetBkColor
 842              	.LVL137:
 482:main_cm4.c    ****     GUI_SetTextMode(GUI_TM_NORMAL);
 843              		.loc 1 482 0
 844 0018 0020     		movs	r0, #0
 845 001a FFF7FEFF 		bl	GUI_SetTextMode
 846              	.LVL138:
 483:main_cm4.c    ****     GUI_SetTextStyle(GUI_TS_NORMAL);
 847              		.loc 1 483 0
 848 001e 0020     		movs	r0, #0
 849 0020 FFF7FEFF 		bl	GUI_SetTextStyle
 850              	.LVL139:
 484:main_cm4.c    ****     
 485:main_cm4.c    ****     const char *activities[] = {"Card Game", "Eat a boiled egg", "scavenger hunt", "Brave the camps
 851              		.loc 1 485 0
 852 0024 06AC     		add	r4, sp, #24
 853 0026 224D     		ldr	r5, .L31
 854 0028 0FCD     		ldmia	r5!, {r0, r1, r2, r3}
 855 002a 0FC4     		stmia	r4!, {r0, r1, r2, r3}
 856 002c 95E80300 		ldmia	r5, {r0, r1}
 857 0030 84E80300 		stmia	r4, {r0, r1}
 486:main_cm4.c    ****     
 487:main_cm4.c    ****     int choice = rand() % 7;
 858              		.loc 1 487 0
 859 0034 FFF7FEFF 		bl	rand
 860              	.LVL140:
 861 0038 1E4A     		ldr	r2, .L31+4
 862 003a 80FB0223 		smull	r2, r3, r0, r2
 863 003e C418     		adds	r4, r0, r3
 864 0040 C317     		asrs	r3, r0, #31
 865 0042 C3EBA404 		rsb	r4, r3, r4, asr #2
 866 0046 C4EBC404 		rsb	r4, r4, r4, lsl #3
 867 004a 041B     		subs	r4, r0, r4
 868              	.LVL141:
 488:main_cm4.c    ****     
 489:main_cm4.c    ****     
 490:main_cm4.c    ****     /* Clear the screen */
 491:main_cm4.c    ****     GUI_Clear();
 869              		.loc 1 491 0
 870 004c FFF7FEFF 		bl	GUI_Clear
 871              	.LVL142:
ARM GAS  C:\Users\louis\AppData\Local\Temp\ccj8Y2ua.s 			page 35


 492:main_cm4.c    ****     
 493:main_cm4.c    ****         /* Display page title */
 494:main_cm4.c    ****     GUI_SetFont(GUI_FONT_20_1);
 872              		.loc 1 494 0
 873 0050 194D     		ldr	r5, .L31+8
 874 0052 2846     		mov	r0, r5
 875 0054 FFF7FEFF 		bl	GUI_SetFont
 876              	.LVL143:
 495:main_cm4.c    ****     GUI_SetTextAlign(GUI_TA_HCENTER);
 877              		.loc 1 495 0
 878 0058 0220     		movs	r0, #2
 879 005a FFF7FEFF 		bl	GUI_SetTextAlign
 880              	.LVL144:
 496:main_cm4.c    ****     GUI_DispStringAt("Random camping activity", 132, 5);
 881              		.loc 1 496 0
 882 005e 0522     		movs	r2, #5
 883 0060 8421     		movs	r1, #132
 884 0062 1648     		ldr	r0, .L31+12
 885 0064 FFF7FEFF 		bl	GUI_DispStringAt
 886              	.LVL145:
 497:main_cm4.c    ****     
 498:main_cm4.c    ****     char c[20];
 499:main_cm4.c    ****     sprintf(c, "%s", activities[choice]);
 887              		.loc 1 499 0
 888 0068 0CAB     		add	r3, sp, #48
 889 006a 03EB8404 		add	r4, r3, r4, lsl #2
 890              	.LVL146:
 891 006e 54F8181C 		ldr	r1, [r4, #-24]
 892 0072 01A8     		add	r0, sp, #4
 893 0074 FFF7FEFF 		bl	strcpy
 894              	.LVL147:
 500:main_cm4.c    **** 
 501:main_cm4.c    ****     /* Display labels */	
 502:main_cm4.c    ****     GUI_SetFont(GUI_FONT_32B_1);
 895              		.loc 1 502 0
 896 0078 1148     		ldr	r0, .L31+16
 897 007a FFF7FEFF 		bl	GUI_SetFont
 898              	.LVL148:
 503:main_cm4.c    ****     GUI_SetTextAlign(GUI_TA_HCENTER);
 899              		.loc 1 503 0
 900 007e 0220     		movs	r0, #2
 901 0080 FFF7FEFF 		bl	GUI_SetTextAlign
 902              	.LVL149:
 504:main_cm4.c    ****     GUI_DispStringAt(c, 132, 83);
 903              		.loc 1 504 0
 904 0084 5322     		movs	r2, #83
 905 0086 8421     		movs	r1, #132
 906 0088 01A8     		add	r0, sp, #4
 907 008a FFF7FEFF 		bl	GUI_DispStringAt
 908              	.LVL150:
 505:main_cm4.c    ****    // printf(activities[choice]);
 506:main_cm4.c    ****     GUI_SetFont(GUI_FONT_20_1);
 909              		.loc 1 506 0
 910 008e 2846     		mov	r0, r5
 911 0090 FFF7FEFF 		bl	GUI_SetFont
 912              	.LVL151:
 507:main_cm4.c    ****     GUI_SetTextAlign(GUI_TA_HCENTER);
ARM GAS  C:\Users\louis\AppData\Local\Temp\ccj8Y2ua.s 			page 36


 913              		.loc 1 507 0
 914 0094 0220     		movs	r0, #2
 915 0096 FFF7FEFF 		bl	GUI_SetTextAlign
 916              	.LVL152:
 508:main_cm4.c    ****     GUI_DispStringAt("Have fun!", 132, 150);
 917              		.loc 1 508 0
 918 009a 9622     		movs	r2, #150
 919 009c 8421     		movs	r1, #132
 920 009e 0948     		ldr	r0, .L31+20
 921 00a0 FFF7FEFF 		bl	GUI_DispStringAt
 922              	.LVL153:
 509:main_cm4.c    ****     
 510:main_cm4.c    ****     
 511:main_cm4.c    ****     
 512:main_cm4.c    ****     UpdateDisplay(CY_EINK_FULL_4STAGE, true);
 923              		.loc 1 512 0
 924 00a4 0121     		movs	r1, #1
 925 00a6 0846     		mov	r0, r1
 926 00a8 FFF7FEFF 		bl	UpdateDisplay
 927              	.LVL154:
 513:main_cm4.c    **** 
 514:main_cm4.c    ****     
 515:main_cm4.c    **** }
 928              		.loc 1 515 0
 929 00ac 0DB0     		add	sp, sp, #52
 930              		.cfi_def_cfa_offset 12
 931              		@ sp needed
 932 00ae 30BD     		pop	{r4, r5, pc}
 933              	.L32:
 934              		.align	2
 935              	.L31:
 936 00b0 00000000 		.word	.LANCHOR1
 937 00b4 93244992 		.word	-1840700269
 938 00b8 00000000 		.word	GUI_Font20_1
 939 00bc B4000000 		.word	.LC22
 940 00c0 00000000 		.word	GUI_Font32B_1
 941 00c4 CC000000 		.word	.LC23
 942              		.cfi_endproc
 943              	.LFE689:
 944              		.size	CampingActivity, .-CampingActivity
 945              		.section	.text.ShowStartupScreen,"ax",%progbits
 946              		.align	2
 947              		.global	ShowStartupScreen
 948              		.thumb
 949              		.thumb_func
 950              		.type	ShowStartupScreen, %function
 951              	ShowStartupScreen:
 952              	.LFB682:
 130:main_cm4.c    ****     /* Set foreground and background color and font size */
 953              		.loc 1 130 0
 954              		.cfi_startproc
 955              		@ args = 0, pretend = 0, frame = 0
 956              		@ frame_needed = 0, uses_anonymous_args = 0
 957 0000 08B5     		push	{r3, lr}
 958              		.cfi_def_cfa_offset 8
 959              		.cfi_offset 3, -8
 960              		.cfi_offset 14, -4
ARM GAS  C:\Users\louis\AppData\Local\Temp\ccj8Y2ua.s 			page 37


 132:main_cm4.c    ****     GUI_SetColor(GUI_BLACK);
 961              		.loc 1 132 0
 962 0002 1348     		ldr	r0, .L35
 963 0004 FFF7FEFF 		bl	GUI_SetFont
 964              	.LVL155:
 133:main_cm4.c    ****     GUI_SetBkColor(GUI_WHITE);
 965              		.loc 1 133 0
 966 0008 0020     		movs	r0, #0
 967 000a FFF7FEFF 		bl	GUI_SetColor
 968              	.LVL156:
 134:main_cm4.c    ****     GUI_Clear();
 969              		.loc 1 134 0
 970 000e 6FF07F40 		mvn	r0, #-16777216
 971 0012 FFF7FEFF 		bl	GUI_SetBkColor
 972              	.LVL157:
 135:main_cm4.c    **** 
 973              		.loc 1 135 0
 974 0016 FFF7FEFF 		bl	GUI_Clear
 975              	.LVL158:
 137:main_cm4.c    ****     GUI_SetTextAlign(GUI_TA_HCENTER);
 976              		.loc 1 137 0
 977 001a 0222     		movs	r2, #2
 978 001c 1146     		mov	r1, r2
 979 001e 0D48     		ldr	r0, .L35+4
 980 0020 FFF7FEFF 		bl	GUI_DrawBitmap
 981              	.LVL159:
 138:main_cm4.c    ****     GUI_DispStringAt("Campanion", 132, 105);
 982              		.loc 1 138 0
 983 0024 0220     		movs	r0, #2
 984 0026 FFF7FEFF 		bl	GUI_SetTextAlign
 985              	.LVL160:
 139:main_cm4.c    ****     GUI_SetTextAlign(GUI_TA_HCENTER);
 986              		.loc 1 139 0
 987 002a 6922     		movs	r2, #105
 988 002c 8421     		movs	r1, #132
 989 002e 0A48     		ldr	r0, .L35+8
 990 0030 FFF7FEFF 		bl	GUI_DispStringAt
 991              	.LVL161:
 140:main_cm4.c    ****     GUI_DispStringAt("Your Camping Buddy", 132, 125);
 992              		.loc 1 140 0
 993 0034 0220     		movs	r0, #2
 994 0036 FFF7FEFF 		bl	GUI_SetTextAlign
 995              	.LVL162:
 141:main_cm4.c    ****    // GUI_SetTextAlign(GUI_TA_HCENTER);
 996              		.loc 1 141 0
 997 003a 7D22     		movs	r2, #125
 998 003c 8421     		movs	r1, #132
 999 003e 0748     		ldr	r0, .L35+12
 1000 0040 FFF7FEFF 		bl	GUI_DispStringAt
 1001              	.LVL163:
 146:main_cm4.c    **** }
 1002              		.loc 1 146 0
 1003 0044 0121     		movs	r1, #1
 1004 0046 0846     		mov	r0, r1
 1005 0048 FFF7FEFF 		bl	UpdateDisplay
 1006              	.LVL164:
 1007 004c 08BD     		pop	{r3, pc}
ARM GAS  C:\Users\louis\AppData\Local\Temp\ccj8Y2ua.s 			page 38


 1008              	.L36:
 1009 004e 00BF     		.align	2
 1010              	.L35:
 1011 0050 00000000 		.word	GUI_Font20_1
 1012 0054 00000000 		.word	bmCypressLogoFullColor_PNG_1bpp
 1013 0058 D8000000 		.word	.LC24
 1014 005c E4000000 		.word	.LC25
 1015              		.cfi_endproc
 1016              	.LFE682:
 1017              		.size	ShowStartupScreen, .-ShowStartupScreen
 1018              		.section	.text.ShowInstructionsScreen,"ax",%progbits
 1019              		.align	2
 1020              		.global	ShowInstructionsScreen
 1021              		.thumb
 1022              		.thumb_func
 1023              		.type	ShowInstructionsScreen, %function
 1024              	ShowInstructionsScreen:
 1025              	.LFB683:
 165:main_cm4.c    ****     /* Set font size, background color and text mode */
 1026              		.loc 1 165 0
 1027              		.cfi_startproc
 1028              		@ args = 0, pretend = 0, frame = 0
 1029              		@ frame_needed = 0, uses_anonymous_args = 0
 1030 0000 08B5     		push	{r3, lr}
 1031              		.cfi_def_cfa_offset 8
 1032              		.cfi_offset 3, -8
 1033              		.cfi_offset 14, -4
 167:main_cm4.c    ****     GUI_SetBkColor(GUI_WHITE);
 1034              		.loc 1 167 0
 1035 0002 1648     		ldr	r0, .L39
 1036 0004 FFF7FEFF 		bl	GUI_SetFont
 1037              	.LVL165:
 168:main_cm4.c    ****     GUI_SetColor(GUI_BLACK);	
 1038              		.loc 1 168 0
 1039 0008 6FF07F40 		mvn	r0, #-16777216
 1040 000c FFF7FEFF 		bl	GUI_SetBkColor
 1041              	.LVL166:
 169:main_cm4.c    ****     GUI_SetTextMode(GUI_TM_NORMAL);
 1042              		.loc 1 169 0
 1043 0010 0020     		movs	r0, #0
 1044 0012 FFF7FEFF 		bl	GUI_SetColor
 1045              	.LVL167:
 170:main_cm4.c    **** 
 1046              		.loc 1 170 0
 1047 0016 0020     		movs	r0, #0
 1048 0018 FFF7FEFF 		bl	GUI_SetTextMode
 1049              	.LVL168:
 173:main_cm4.c    **** 
 1050              		.loc 1 173 0
 1051 001c FFF7FEFF 		bl	GUI_Clear
 1052              	.LVL169:
 176:main_cm4.c    ****     GUI_DispStringAt("PRESS THE PUSH BUTTON", 132, 58);
 1053              		.loc 1 176 0
 1054 0020 0220     		movs	r0, #2
 1055 0022 FFF7FEFF 		bl	GUI_SetTextAlign
 1056              	.LVL170:
 177:main_cm4.c    ****     GUI_SetTextAlign(GUI_TA_HCENTER);
ARM GAS  C:\Users\louis\AppData\Local\Temp\ccj8Y2ua.s 			page 39


 1057              		.loc 1 177 0
 1058 0026 3A22     		movs	r2, #58
 1059 0028 8421     		movs	r1, #132
 1060 002a 0D48     		ldr	r0, .L39+4
 1061 002c FFF7FEFF 		bl	GUI_DispStringAt
 1062              	.LVL171:
 178:main_cm4.c    ****     GUI_DispStringAt("TO SCROLL THROUGH ", 132, 78);
 1063              		.loc 1 178 0
 1064 0030 0220     		movs	r0, #2
 1065 0032 FFF7FEFF 		bl	GUI_SetTextAlign
 1066              	.LVL172:
 179:main_cm4.c    ****     GUI_SetTextAlign(GUI_TA_HCENTER);
 1067              		.loc 1 179 0
 1068 0036 4E22     		movs	r2, #78
 1069 0038 8421     		movs	r1, #132
 1070 003a 0A48     		ldr	r0, .L39+8
 1071 003c FFF7FEFF 		bl	GUI_DispStringAt
 1072              	.LVL173:
 180:main_cm4.c    ****     GUI_DispStringAt("THE PAGES!", 132, 98);
 1073              		.loc 1 180 0
 1074 0040 0220     		movs	r0, #2
 1075 0042 FFF7FEFF 		bl	GUI_SetTextAlign
 1076              	.LVL174:
 181:main_cm4.c    **** 
 1077              		.loc 1 181 0
 1078 0046 6222     		movs	r2, #98
 1079 0048 8421     		movs	r1, #132
 1080 004a 0748     		ldr	r0, .L39+12
 1081 004c FFF7FEFF 		bl	GUI_DispStringAt
 1082              	.LVL175:
 184:main_cm4.c    **** }
 1083              		.loc 1 184 0
 1084 0050 0121     		movs	r1, #1
 1085 0052 0846     		mov	r0, r1
 1086 0054 FFF7FEFF 		bl	UpdateDisplay
 1087              	.LVL176:
 1088 0058 08BD     		pop	{r3, pc}
 1089              	.L40:
 1090 005a 00BF     		.align	2
 1091              	.L39:
 1092 005c 00000000 		.word	GUI_Font16B_1
 1093 0060 F8000000 		.word	.LC26
 1094 0064 10010000 		.word	.LC27
 1095 0068 24010000 		.word	.LC28
 1096              		.cfi_endproc
 1097              	.LFE683:
 1098              		.size	ShowInstructionsScreen, .-ShowInstructionsScreen
 1099              		.section	.text.ClearScreen,"ax",%progbits
 1100              		.align	2
 1101              		.global	ClearScreen
 1102              		.thumb
 1103              		.thumb_func
 1104              		.type	ClearScreen, %function
 1105              	ClearScreen:
 1106              	.LFB684:
 202:main_cm4.c    ****     GUI_SetColor(GUI_BLACK);
 1107              		.loc 1 202 0
ARM GAS  C:\Users\louis\AppData\Local\Temp\ccj8Y2ua.s 			page 40


 1108              		.cfi_startproc
 1109              		@ args = 0, pretend = 0, frame = 0
 1110              		@ frame_needed = 0, uses_anonymous_args = 0
 1111 0000 08B5     		push	{r3, lr}
 1112              		.cfi_def_cfa_offset 8
 1113              		.cfi_offset 3, -8
 1114              		.cfi_offset 14, -4
 203:main_cm4.c    ****     GUI_SetBkColor(GUI_WHITE);
 1115              		.loc 1 203 0
 1116 0002 0020     		movs	r0, #0
 1117 0004 FFF7FEFF 		bl	GUI_SetColor
 1118              	.LVL177:
 204:main_cm4.c    ****     GUI_Clear();
 1119              		.loc 1 204 0
 1120 0008 6FF07F40 		mvn	r0, #-16777216
 1121 000c FFF7FEFF 		bl	GUI_SetBkColor
 1122              	.LVL178:
 205:main_cm4.c    ****     UpdateDisplay(CY_EINK_FULL_4STAGE, true);
 1123              		.loc 1 205 0
 1124 0010 FFF7FEFF 		bl	GUI_Clear
 1125              	.LVL179:
 206:main_cm4.c    **** }
 1126              		.loc 1 206 0
 1127 0014 0121     		movs	r1, #1
 1128 0016 0846     		mov	r0, r1
 1129 0018 FFF7FEFF 		bl	UpdateDisplay
 1130              	.LVL180:
 1131 001c 08BD     		pop	{r3, pc}
 1132              		.cfi_endproc
 1133              	.LFE684:
 1134              		.size	ClearScreen, .-ClearScreen
 1135 001e 00BF     		.section	.text.WaitforSwitchPressAndRelease,"ax",%progbits
 1136              		.align	2
 1137              		.global	WaitforSwitchPressAndRelease
 1138              		.thumb
 1139              		.thumb_func
 1140              		.type	WaitforSwitchPressAndRelease, %function
 1141              	WaitforSwitchPressAndRelease:
 1142              	.LFB685:
 229:main_cm4.c    ****     /* Wait for SW2 to be pressed */
 1143              		.loc 1 229 0
 1144              		.cfi_startproc
 1145              		@ args = 0, pretend = 0, frame = 0
 1146              		@ frame_needed = 0, uses_anonymous_args = 0
 1147 0000 08B5     		push	{r3, lr}
 1148              		.cfi_def_cfa_offset 8
 1149              		.cfi_offset 3, -8
 1150              		.cfi_offset 14, -4
 1151              	.L44:
 231:main_cm4.c    ****     
 1152              		.loc 1 231 0 discriminator 1
 1153 0002 FFF7FEFF 		bl	Status_SW2_Read
 1154              	.LVL181:
 1155 0006 0028     		cmp	r0, #0
 1156 0008 FBD1     		bne	.L44
 1157              	.L45:
 234:main_cm4.c    **** }
ARM GAS  C:\Users\louis\AppData\Local\Temp\ccj8Y2ua.s 			page 41


 1158              		.loc 1 234 0 discriminator 1
 1159 000a FFF7FEFF 		bl	Status_SW2_Read
 1160              	.LVL182:
 1161 000e 0028     		cmp	r0, #0
 1162 0010 FBD0     		beq	.L45
 235:main_cm4.c    **** 
 1163              		.loc 1 235 0
 1164 0012 08BD     		pop	{r3, pc}
 1165              		.cfi_endproc
 1166              	.LFE685:
 1167              		.size	WaitforSwitchPressAndRelease, .-WaitforSwitchPressAndRelease
 1168              		.section	.text.main,"ax",%progbits
 1169              		.align	2
 1170              		.global	main
 1171              		.thumb
 1172              		.thumb_func
 1173              		.type	main, %function
 1174              	main:
 1175              	.LFB690:
 516:main_cm4.c    **** /*******************************************************************************
 517:main_cm4.c    **** * Function Name: int main(void)
 518:main_cm4.c    **** ********************************************************************************
 519:main_cm4.c    **** *
 520:main_cm4.c    **** * Summary: This is the main function.  Following functions are performed
 521:main_cm4.c    **** *			1. Initialize the EmWin library
 522:main_cm4.c    **** *			2. Display the startup screen for 3 seconds
 523:main_cm4.c    **** *			3. Display the instruction screen and wait for key press and release
 524:main_cm4.c    **** *			4. Inside a while loop scroll through the 6 demo pages on every
 525:main_cm4.c    **** *				key press and release
 526:main_cm4.c    **** *
 527:main_cm4.c    **** * Parameters:
 528:main_cm4.c    **** *  None
 529:main_cm4.c    **** *
 530:main_cm4.c    **** * Return:
 531:main_cm4.c    **** *  None
 532:main_cm4.c    **** *
 533:main_cm4.c    **** *******************************************************************************/
 534:main_cm4.c    **** int main(void)
 535:main_cm4.c    **** {
 1176              		.loc 1 535 0
 1177              		.cfi_startproc
 1178              		@ args = 0, pretend = 0, frame = 0
 1179              		@ frame_needed = 0, uses_anonymous_args = 0
 1180 0000 70B5     		push	{r4, r5, r6, lr}
 1181              		.cfi_def_cfa_offset 16
 1182              		.cfi_offset 4, -16
 1183              		.cfi_offset 5, -12
 1184              		.cfi_offset 6, -8
 1185              		.cfi_offset 14, -4
 1186              	.LVL183:
 1187              	.LBB41:
 1188              	.LBB42:
 1189              		.loc 3 131 0
 1190              		.syntax unified
 1191              	@ 131 "Generated_Source\PSoC6\pdl\cmsis/include/cmsis_gcc.h" 1
 1192 0002 62B6     		cpsie i
 1193              	@ 0 "" 2
ARM GAS  C:\Users\louis\AppData\Local\Temp\ccj8Y2ua.s 			page 42


 1194              		.thumb
 1195              		.syntax unified
 1196              	.LBE42:
 1197              	.LBE41:
 536:main_cm4.c    ****     
 537:main_cm4.c    ****     uint8 pageNumber = 0;
 538:main_cm4.c    ****     
 539:main_cm4.c    ****     __enable_irq(); /* Enable global interrupts. */
 540:main_cm4.c    ****     
 541:main_cm4.c    ****     /* Initialize emWin Graphics */
 542:main_cm4.c    ****     GUI_Init();
 1198              		.loc 1 542 0
 1199 0004 FFF7FEFF 		bl	GUI_Init
 1200              	.LVL184:
 543:main_cm4.c    **** 
 544:main_cm4.c    ****     /* Start the eInk display interface and turn on the display power */
 545:main_cm4.c    ****     Cy_EINK_Start(20);
 1201              		.loc 1 545 0
 1202 0008 1420     		movs	r0, #20
 1203 000a FFF7FEFF 		bl	Cy_EINK_Start
 1204              	.LVL185:
 546:main_cm4.c    ****     Cy_EINK_Power(1);
 1205              		.loc 1 546 0
 1206 000e 0120     		movs	r0, #1
 1207 0010 FFF7FEFF 		bl	Cy_EINK_Power
 1208              	.LVL186:
 547:main_cm4.c    ****     
 548:main_cm4.c    ****     UART_1_Start();
 1209              		.loc 1 548 0
 1210 0014 FFF7FEFF 		bl	UART_1_Start
 1211              	.LVL187:
 549:main_cm4.c    ****     ADC_1_Start();
 1212              		.loc 1 549 0
 1213 0018 FFF7FEFF 		bl	ADC_1_Start
 1214              	.LVL188:
 550:main_cm4.c    ****     
 551:main_cm4.c    ****     
 552:main_cm4.c    ****     
 553:main_cm4.c    ****     Cy_SAR_StartConvert(SAR,CY_SAR_START_CONVERT_CONTINUOUS);
 1215              		.loc 1 553 0
 1216 001c 1E4C     		ldr	r4, .L50
 1217 001e 0121     		movs	r1, #1
 1218 0020 2046     		mov	r0, r4
 1219 0022 FFF7FEFF 		bl	Cy_SAR_StartConvert
 1220              	.LVL189:
 554:main_cm4.c    ****     
 555:main_cm4.c    ****     float v1,v2;
 556:main_cm4.c    ****     int16_t countThermistor, countReference;
 557:main_cm4.c    **** 
 558:main_cm4.c    ****     /* Read the ADC count values */
 559:main_cm4.c    ****     countReference  = Cy_SAR_GetResult16(SAR,0);
 1221              		.loc 1 559 0
 1222 0026 0021     		movs	r1, #0
 1223 0028 2046     		mov	r0, r4
 1224 002a FFF7FEFF 		bl	Cy_SAR_GetResult16
 1225              	.LVL190:
 1226 002e 0546     		mov	r5, r0
ARM GAS  C:\Users\louis\AppData\Local\Temp\ccj8Y2ua.s 			page 43


 1227              	.LVL191:
 560:main_cm4.c    ****     countThermistor = Cy_SAR_GetResult16(SAR,1);
 1228              		.loc 1 560 0
 1229 0030 0121     		movs	r1, #1
 1230 0032 2046     		mov	r0, r4
 1231 0034 FFF7FEFF 		bl	Cy_SAR_GetResult16
 1232              	.LVL192:
 1233 0038 0646     		mov	r6, r0
 1234              	.LVL193:
 561:main_cm4.c    **** 
 562:main_cm4.c    ****     v1 = Cy_SAR_CountsTo_Volts(SAR,0,countReference);
 1235              		.loc 1 562 0
 1236 003a 2A46     		mov	r2, r5
 1237 003c 0021     		movs	r1, #0
 1238 003e 2046     		mov	r0, r4
 1239 0040 FFF7FEFF 		bl	Cy_SAR_CountsTo_Volts
 1240              	.LVL194:
 563:main_cm4.c    ****     v2 = Cy_SAR_CountsTo_Volts(SAR,1,countThermistor);
 1241              		.loc 1 563 0
 1242 0044 3246     		mov	r2, r6
 1243 0046 0121     		movs	r1, #1
 1244 0048 2046     		mov	r0, r4
 1245 004a FFF7FEFF 		bl	Cy_SAR_CountsTo_Volts
 1246              	.LVL195:
 564:main_cm4.c    **** 
 565:main_cm4.c    ****     uint32 resT = Thermistor_GetResistance(countReference, countThermistor);
 1247              		.loc 1 565 0
 1248 004e 3146     		mov	r1, r6
 1249 0050 2846     		mov	r0, r5
 1250 0052 FFF7FEFF 		bl	Thermistor_GetResistance
 1251              	.LVL196:
 566:main_cm4.c    ****     float temperature = (float)Thermistor_GetTemperature(resT) / 100.0 ;
 1252              		.loc 1 566 0
 1253 0056 FFF7FEFF 		bl	Thermistor_GetTemperature
 1254              	.LVL197:
 567:main_cm4.c    **** 
 568:main_cm4.c    ****     /* Show the startup screen */
 569:main_cm4.c    ****     ShowStartupScreen();
 1255              		.loc 1 569 0
 1256 005a FFF7FEFF 		bl	ShowStartupScreen
 1257              	.LVL198:
 570:main_cm4.c    ****     CyDelay(2000);
 1258              		.loc 1 570 0
 1259 005e 4FF4FA60 		mov	r0, #2000
 1260 0062 FFF7FEFF 		bl	Cy_SysLib_Delay
 1261              	.LVL199:
 571:main_cm4.c    **** 
 572:main_cm4.c    ****     /* Show the instructions screen */
 573:main_cm4.c    ****     ShowInstructionsScreen();
 1262              		.loc 1 573 0
 1263 0066 FFF7FEFF 		bl	ShowInstructionsScreen
 1264              	.LVL200:
 574:main_cm4.c    ****     CyDelay(4000);
 1265              		.loc 1 574 0
 1266 006a 4FF47A60 		mov	r0, #4000
 1267 006e FFF7FEFF 		bl	Cy_SysLib_Delay
 1268              	.LVL201:
ARM GAS  C:\Users\louis\AppData\Local\Temp\ccj8Y2ua.s 			page 44


 575:main_cm4.c    ****     ShowStartupScreen();
 1269              		.loc 1 575 0
 1270 0072 FFF7FEFF 		bl	ShowStartupScreen
 1271              	.LVL202:
 576:main_cm4.c    ****     WaitforSwitchPressAndRelease();
 1272              		.loc 1 576 0
 1273 0076 FFF7FEFF 		bl	WaitforSwitchPressAndRelease
 1274              	.LVL203:
 537:main_cm4.c    ****     
 1275              		.loc 1 537 0
 1276 007a 0024     		movs	r4, #0
 1277              	.LVL204:
 1278              	.L48:
 1279              	.LBB43:
 1280              	.LBB44:
 1281              		.file 4 "Generated_Source\\PSoC6\\pdl\\drivers/peripheral/gpio/cy_gpio.h"
   1:Generated_Source\PSoC6\pdl\drivers/peripheral/gpio/cy_gpio.h **** /***************************************************************************//**
   2:Generated_Source\PSoC6\pdl\drivers/peripheral/gpio/cy_gpio.h **** * \file cy_gpio.h
   3:Generated_Source\PSoC6\pdl\drivers/peripheral/gpio/cy_gpio.h **** * \version 1.20
   4:Generated_Source\PSoC6\pdl\drivers/peripheral/gpio/cy_gpio.h **** *
   5:Generated_Source\PSoC6\pdl\drivers/peripheral/gpio/cy_gpio.h **** * Provides an API declaration of the GPIO driver
   6:Generated_Source\PSoC6\pdl\drivers/peripheral/gpio/cy_gpio.h **** *
   7:Generated_Source\PSoC6\pdl\drivers/peripheral/gpio/cy_gpio.h **** ********************************************************************************
   8:Generated_Source\PSoC6\pdl\drivers/peripheral/gpio/cy_gpio.h **** * \copyright
   9:Generated_Source\PSoC6\pdl\drivers/peripheral/gpio/cy_gpio.h **** * Copyright 2016-2018, Cypress Semiconductor Corporation. All rights reserved.
  10:Generated_Source\PSoC6\pdl\drivers/peripheral/gpio/cy_gpio.h **** * You may use this file only in accordance with the license, terms, conditions,
  11:Generated_Source\PSoC6\pdl\drivers/peripheral/gpio/cy_gpio.h **** * disclaimers, and limitations in the end user license agreement accompanying
  12:Generated_Source\PSoC6\pdl\drivers/peripheral/gpio/cy_gpio.h **** * the software package with which this file was provided.
  13:Generated_Source\PSoC6\pdl\drivers/peripheral/gpio/cy_gpio.h **** *******************************************************************************/
  14:Generated_Source\PSoC6\pdl\drivers/peripheral/gpio/cy_gpio.h **** 
  15:Generated_Source\PSoC6\pdl\drivers/peripheral/gpio/cy_gpio.h **** /**
  16:Generated_Source\PSoC6\pdl\drivers/peripheral/gpio/cy_gpio.h **** * \addtogroup group_gpio
  17:Generated_Source\PSoC6\pdl\drivers/peripheral/gpio/cy_gpio.h **** * \{
  18:Generated_Source\PSoC6\pdl\drivers/peripheral/gpio/cy_gpio.h **** * The GPIO driver provides an API to configure and access device Input/Output pins.
  19:Generated_Source\PSoC6\pdl\drivers/peripheral/gpio/cy_gpio.h **** *
  20:Generated_Source\PSoC6\pdl\drivers/peripheral/gpio/cy_gpio.h **** * The functions and other declarations used in this driver are in cy_gpio.h. 
  21:Generated_Source\PSoC6\pdl\drivers/peripheral/gpio/cy_gpio.h **** * You can include cy_pdl.h (ModusToolbox only) to get access to all functions 
  22:Generated_Source\PSoC6\pdl\drivers/peripheral/gpio/cy_gpio.h **** * and declarations in the PDL.
  23:Generated_Source\PSoC6\pdl\drivers/peripheral/gpio/cy_gpio.h **** *
  24:Generated_Source\PSoC6\pdl\drivers/peripheral/gpio/cy_gpio.h **** * IO pins include all general purpose types such as GPIO, SIO, HSIO, AUXIO, and
  25:Generated_Source\PSoC6\pdl\drivers/peripheral/gpio/cy_gpio.h **** * their variants.
  26:Generated_Source\PSoC6\pdl\drivers/peripheral/gpio/cy_gpio.h **** *
  27:Generated_Source\PSoC6\pdl\drivers/peripheral/gpio/cy_gpio.h **** * Initialization can be performed either at the port level or by configuring the
  28:Generated_Source\PSoC6\pdl\drivers/peripheral/gpio/cy_gpio.h **** * individual pins. For efficient use of code space, port
  29:Generated_Source\PSoC6\pdl\drivers/peripheral/gpio/cy_gpio.h **** * configuration should be used in the field. Refer to the product device header files 
  30:Generated_Source\PSoC6\pdl\drivers/peripheral/gpio/cy_gpio.h **** * for the list of supported ports and pins.
  31:Generated_Source\PSoC6\pdl\drivers/peripheral/gpio/cy_gpio.h **** * 
  32:Generated_Source\PSoC6\pdl\drivers/peripheral/gpio/cy_gpio.h **** * - Single pin configuration is performed by using \ref Cy_GPIO_Pin_FastInit 
  33:Generated_Source\PSoC6\pdl\drivers/peripheral/gpio/cy_gpio.h **** *   (provide specific values) or \ref Cy_GPIO_Pin_Init (provide a filled
  34:Generated_Source\PSoC6\pdl\drivers/peripheral/gpio/cy_gpio.h **** *   cy_stc_gpio_pin_config_t structure).
  35:Generated_Source\PSoC6\pdl\drivers/peripheral/gpio/cy_gpio.h **** * - An entire port can be configured using \ref Cy_GPIO_Port_Init. Provide a filled 
  36:Generated_Source\PSoC6\pdl\drivers/peripheral/gpio/cy_gpio.h **** *   cy_stc_gpio_prt_config_t structure. The values in the structure are 
  37:Generated_Source\PSoC6\pdl\drivers/peripheral/gpio/cy_gpio.h **** *   bitfields representing the desired value for each pin in the port.
  38:Generated_Source\PSoC6\pdl\drivers/peripheral/gpio/cy_gpio.h **** * - Pin configuration and management is based on the port address and pin number.
  39:Generated_Source\PSoC6\pdl\drivers/peripheral/gpio/cy_gpio.h **** *   \ref Cy_GPIO_PortToAddr function can optionally be used to calculate the port
  40:Generated_Source\PSoC6\pdl\drivers/peripheral/gpio/cy_gpio.h **** *   address from the port number at run-time.
  41:Generated_Source\PSoC6\pdl\drivers/peripheral/gpio/cy_gpio.h **** *
ARM GAS  C:\Users\louis\AppData\Local\Temp\ccj8Y2ua.s 			page 45


  42:Generated_Source\PSoC6\pdl\drivers/peripheral/gpio/cy_gpio.h **** * Once the pin/port initialization is complete, each pin can be accessed by 
  43:Generated_Source\PSoC6\pdl\drivers/peripheral/gpio/cy_gpio.h **** * specifying the port (GPIO_PRT_Type) and the pin (0-7) in the provided API 
  44:Generated_Source\PSoC6\pdl\drivers/peripheral/gpio/cy_gpio.h **** * functions.
  45:Generated_Source\PSoC6\pdl\drivers/peripheral/gpio/cy_gpio.h **** *
  46:Generated_Source\PSoC6\pdl\drivers/peripheral/gpio/cy_gpio.h **** * \section group_gpio_configuration Configuration Considerations
  47:Generated_Source\PSoC6\pdl\drivers/peripheral/gpio/cy_gpio.h **** *
  48:Generated_Source\PSoC6\pdl\drivers/peripheral/gpio/cy_gpio.h **** * 1. Pin multiplexing is controlled through the High-Speed IO Matrix (HSIOM) selection.
  49:Generated_Source\PSoC6\pdl\drivers/peripheral/gpio/cy_gpio.h **** *    This allows the pin to connect to signal sources/sinks throughout the device,
  50:Generated_Source\PSoC6\pdl\drivers/peripheral/gpio/cy_gpio.h **** *    as defined by the pin HSIOM selection options (en_hsiom_sel_t).
  51:Generated_Source\PSoC6\pdl\drivers/peripheral/gpio/cy_gpio.h **** * 2. All pins are initialized to High-Z drive mode with HSIOM connected to CPU (SW
  52:Generated_Source\PSoC6\pdl\drivers/peripheral/gpio/cy_gpio.h **** *    control digital pin only) at Power-On-Reset(POR).
  53:Generated_Source\PSoC6\pdl\drivers/peripheral/gpio/cy_gpio.h **** * 3. Some API functions perform read-modify-write operations on shared port
  54:Generated_Source\PSoC6\pdl\drivers/peripheral/gpio/cy_gpio.h **** *    registers. These functions are not thread safe and care must be taken when
  55:Generated_Source\PSoC6\pdl\drivers/peripheral/gpio/cy_gpio.h **** *    called by the application.
  56:Generated_Source\PSoC6\pdl\drivers/peripheral/gpio/cy_gpio.h **** * 4. Digital input buffer provides a high-impedance buffer for the external 
  57:Generated_Source\PSoC6\pdl\drivers/peripheral/gpio/cy_gpio.h **** *    digital input. The input buffer is connected to the HSIOM for routing to 
  58:Generated_Source\PSoC6\pdl\drivers/peripheral/gpio/cy_gpio.h **** *    the CPU port registers and selected peripheral. Enabling the input 
  59:Generated_Source\PSoC6\pdl\drivers/peripheral/gpio/cy_gpio.h **** *    buffer provides possibility to read the pin state via the CPU.
  60:Generated_Source\PSoC6\pdl\drivers/peripheral/gpio/cy_gpio.h **** *    If pin is connected to an analog signal, the input buffer should be 
  61:Generated_Source\PSoC6\pdl\drivers/peripheral/gpio/cy_gpio.h **** *    disabled to avoid crowbar currents. For more information refer to device 
  62:Generated_Source\PSoC6\pdl\drivers/peripheral/gpio/cy_gpio.h **** *    TRM and the device datasheet.
  63:Generated_Source\PSoC6\pdl\drivers/peripheral/gpio/cy_gpio.h **** *
  64:Generated_Source\PSoC6\pdl\drivers/peripheral/gpio/cy_gpio.h **** * Multiple pins on a port can be updated using direct port register writes with an
  65:Generated_Source\PSoC6\pdl\drivers/peripheral/gpio/cy_gpio.h **** * appropriate port mask. An example is shown below, highlighting the different ways of 
  66:Generated_Source\PSoC6\pdl\drivers/peripheral/gpio/cy_gpio.h **** * configuring Port 1 pins using:
  67:Generated_Source\PSoC6\pdl\drivers/peripheral/gpio/cy_gpio.h **** * 
  68:Generated_Source\PSoC6\pdl\drivers/peripheral/gpio/cy_gpio.h **** * - Port output data register
  69:Generated_Source\PSoC6\pdl\drivers/peripheral/gpio/cy_gpio.h **** * - Port output data set register
  70:Generated_Source\PSoC6\pdl\drivers/peripheral/gpio/cy_gpio.h **** * - Port output data clear register
  71:Generated_Source\PSoC6\pdl\drivers/peripheral/gpio/cy_gpio.h **** *
  72:Generated_Source\PSoC6\pdl\drivers/peripheral/gpio/cy_gpio.h **** * \snippet gpio/gpio_v1_10_sut_01.cydsn/main_cm4.c Cy_GPIO_Snippet
  73:Generated_Source\PSoC6\pdl\drivers/peripheral/gpio/cy_gpio.h **** *
  74:Generated_Source\PSoC6\pdl\drivers/peripheral/gpio/cy_gpio.h **** * \section group_gpio_more_information More Information
  75:Generated_Source\PSoC6\pdl\drivers/peripheral/gpio/cy_gpio.h **** *
  76:Generated_Source\PSoC6\pdl\drivers/peripheral/gpio/cy_gpio.h **** * Refer to the technical reference manual (TRM) and the device datasheet.
  77:Generated_Source\PSoC6\pdl\drivers/peripheral/gpio/cy_gpio.h **** *
  78:Generated_Source\PSoC6\pdl\drivers/peripheral/gpio/cy_gpio.h **** * \section group_gpio_MISRA MISRA-C Compliance
  79:Generated_Source\PSoC6\pdl\drivers/peripheral/gpio/cy_gpio.h **** * The GPIO driver has the following specific deviations:
  80:Generated_Source\PSoC6\pdl\drivers/peripheral/gpio/cy_gpio.h **** *
  81:Generated_Source\PSoC6\pdl\drivers/peripheral/gpio/cy_gpio.h **** * <table class="doxtable">
  82:Generated_Source\PSoC6\pdl\drivers/peripheral/gpio/cy_gpio.h **** *   <tr>
  83:Generated_Source\PSoC6\pdl\drivers/peripheral/gpio/cy_gpio.h **** *     <th>MISRA Rule</th>
  84:Generated_Source\PSoC6\pdl\drivers/peripheral/gpio/cy_gpio.h **** *     <th>Rule Class (Required/Advisory)</th>
  85:Generated_Source\PSoC6\pdl\drivers/peripheral/gpio/cy_gpio.h **** *     <th>Rule Description</th>
  86:Generated_Source\PSoC6\pdl\drivers/peripheral/gpio/cy_gpio.h **** *     <th>Description of Deviation(s)</th>
  87:Generated_Source\PSoC6\pdl\drivers/peripheral/gpio/cy_gpio.h **** *   </tr>
  88:Generated_Source\PSoC6\pdl\drivers/peripheral/gpio/cy_gpio.h **** *   <tr>
  89:Generated_Source\PSoC6\pdl\drivers/peripheral/gpio/cy_gpio.h **** *     <td>11.4</td>
  90:Generated_Source\PSoC6\pdl\drivers/peripheral/gpio/cy_gpio.h **** *     <td>A</td>
  91:Generated_Source\PSoC6\pdl\drivers/peripheral/gpio/cy_gpio.h **** *     <td>A cast should not be performed between a pointer to object type and
  92:Generated_Source\PSoC6\pdl\drivers/peripheral/gpio/cy_gpio.h **** *         a different pointer to object type.</td>
  93:Generated_Source\PSoC6\pdl\drivers/peripheral/gpio/cy_gpio.h **** *     <td> This code is safe because the elements of both GPIO_PRT_V1_Type and GPIO_PRT_V2_Type 
  94:Generated_Source\PSoC6\pdl\drivers/peripheral/gpio/cy_gpio.h **** *          types have identical alignment.</td>
  95:Generated_Source\PSoC6\pdl\drivers/peripheral/gpio/cy_gpio.h **** *   </tr>
  96:Generated_Source\PSoC6\pdl\drivers/peripheral/gpio/cy_gpio.h **** *   <tr>
  97:Generated_Source\PSoC6\pdl\drivers/peripheral/gpio/cy_gpio.h **** *     <td>16.7</td>
  98:Generated_Source\PSoC6\pdl\drivers/peripheral/gpio/cy_gpio.h **** *     <td>A</td>
ARM GAS  C:\Users\louis\AppData\Local\Temp\ccj8Y2ua.s 			page 46


  99:Generated_Source\PSoC6\pdl\drivers/peripheral/gpio/cy_gpio.h **** *     <td>A pointer parameter in a function prototype should be declared as pointer 
 100:Generated_Source\PSoC6\pdl\drivers/peripheral/gpio/cy_gpio.h **** *         to const if the pointer is not used to modify the addressed object.</td>
 101:Generated_Source\PSoC6\pdl\drivers/peripheral/gpio/cy_gpio.h **** *     <td>The objects pointed to by the base addresses of the GPIO port are not always modified.
 102:Generated_Source\PSoC6\pdl\drivers/peripheral/gpio/cy_gpio.h **** *         While a const qualifier can be used in select scenarios, it brings little benefit
 103:Generated_Source\PSoC6\pdl\drivers/peripheral/gpio/cy_gpio.h **** *         in adding this to the affected functions. </td>
 104:Generated_Source\PSoC6\pdl\drivers/peripheral/gpio/cy_gpio.h **** *   </tr>
 105:Generated_Source\PSoC6\pdl\drivers/peripheral/gpio/cy_gpio.h **** * </table>
 106:Generated_Source\PSoC6\pdl\drivers/peripheral/gpio/cy_gpio.h **** *
 107:Generated_Source\PSoC6\pdl\drivers/peripheral/gpio/cy_gpio.h **** * \section group_gpio_changelog Changelog
 108:Generated_Source\PSoC6\pdl\drivers/peripheral/gpio/cy_gpio.h **** * <table class="doxtable">
 109:Generated_Source\PSoC6\pdl\drivers/peripheral/gpio/cy_gpio.h **** *   <tr><th>Version</th><th>Changes</th><th>Reason for Change</th></tr>
 110:Generated_Source\PSoC6\pdl\drivers/peripheral/gpio/cy_gpio.h **** *   <tr>
 111:Generated_Source\PSoC6\pdl\drivers/peripheral/gpio/cy_gpio.h **** *     <td rowspan="3">1.20</td>
 112:Generated_Source\PSoC6\pdl\drivers/peripheral/gpio/cy_gpio.h **** *     <td>Flattened the organization of the driver source code into the single source directory and
 113:Generated_Source\PSoC6\pdl\drivers/peripheral/gpio/cy_gpio.h **** *     <td>Driver library directory-structure simplification.</td>
 114:Generated_Source\PSoC6\pdl\drivers/peripheral/gpio/cy_gpio.h **** *   </tr>
 115:Generated_Source\PSoC6\pdl\drivers/peripheral/gpio/cy_gpio.h **** *   <tr>
 116:Generated_Source\PSoC6\pdl\drivers/peripheral/gpio/cy_gpio.h **** *     <td>Added the functions for configuring the AMux bus splitter switch cells:
 117:Generated_Source\PSoC6\pdl\drivers/peripheral/gpio/cy_gpio.h **** *     - \ref Cy_GPIO_SetAmuxSplit
 118:Generated_Source\PSoC6\pdl\drivers/peripheral/gpio/cy_gpio.h **** *     - \ref Cy_GPIO_GetAmuxSplit
 119:Generated_Source\PSoC6\pdl\drivers/peripheral/gpio/cy_gpio.h **** *     </td>
 120:Generated_Source\PSoC6\pdl\drivers/peripheral/gpio/cy_gpio.h **** *     <td>Added a new functionality related to AMux bus.</td>
 121:Generated_Source\PSoC6\pdl\drivers/peripheral/gpio/cy_gpio.h **** *   </tr>
 122:Generated_Source\PSoC6\pdl\drivers/peripheral/gpio/cy_gpio.h **** *   <tr>
 123:Generated_Source\PSoC6\pdl\drivers/peripheral/gpio/cy_gpio.h **** *     <td>Added register access layer. Use register access macros instead
 124:Generated_Source\PSoC6\pdl\drivers/peripheral/gpio/cy_gpio.h **** *         of direct register access using dereferenced pointers.</td>
 125:Generated_Source\PSoC6\pdl\drivers/peripheral/gpio/cy_gpio.h **** *     <td>Makes register access device-independent, so that the PDL does 
 126:Generated_Source\PSoC6\pdl\drivers/peripheral/gpio/cy_gpio.h **** *         not need to be recompiled for each supported part number.</td>
 127:Generated_Source\PSoC6\pdl\drivers/peripheral/gpio/cy_gpio.h **** *   </tr>
 128:Generated_Source\PSoC6\pdl\drivers/peripheral/gpio/cy_gpio.h **** *   <tr>
 129:Generated_Source\PSoC6\pdl\drivers/peripheral/gpio/cy_gpio.h **** *     <td>1.10.1</td>
 130:Generated_Source\PSoC6\pdl\drivers/peripheral/gpio/cy_gpio.h **** *     <td>Updated description for the functions: \ref Cy_GPIO_GetInterruptStatus, 
 131:Generated_Source\PSoC6\pdl\drivers/peripheral/gpio/cy_gpio.h **** *         \ref Cy_GPIO_GetInterruptMask, \ref Cy_GPIO_GetInterruptStatusMasked.
 132:Generated_Source\PSoC6\pdl\drivers/peripheral/gpio/cy_gpio.h **** *
 133:Generated_Source\PSoC6\pdl\drivers/peripheral/gpio/cy_gpio.h **** *         Minor documentation edits.
 134:Generated_Source\PSoC6\pdl\drivers/peripheral/gpio/cy_gpio.h **** *     </td>
 135:Generated_Source\PSoC6\pdl\drivers/peripheral/gpio/cy_gpio.h **** *     <td>Documentation update and clarification</td>
 136:Generated_Source\PSoC6\pdl\drivers/peripheral/gpio/cy_gpio.h **** *   </tr>
 137:Generated_Source\PSoC6\pdl\drivers/peripheral/gpio/cy_gpio.h **** *   <tr>
 138:Generated_Source\PSoC6\pdl\drivers/peripheral/gpio/cy_gpio.h **** *     <td>1.10</td>
 139:Generated_Source\PSoC6\pdl\drivers/peripheral/gpio/cy_gpio.h **** *     <td>Added input parameter validation to the API functions</td>
 140:Generated_Source\PSoC6\pdl\drivers/peripheral/gpio/cy_gpio.h **** *     <td></td>
 141:Generated_Source\PSoC6\pdl\drivers/peripheral/gpio/cy_gpio.h **** *   </tr>
 142:Generated_Source\PSoC6\pdl\drivers/peripheral/gpio/cy_gpio.h **** *   <tr>
 143:Generated_Source\PSoC6\pdl\drivers/peripheral/gpio/cy_gpio.h **** *     <td>1.0</td>
 144:Generated_Source\PSoC6\pdl\drivers/peripheral/gpio/cy_gpio.h **** *     <td>Initial version</td>
 145:Generated_Source\PSoC6\pdl\drivers/peripheral/gpio/cy_gpio.h **** *     <td></td>
 146:Generated_Source\PSoC6\pdl\drivers/peripheral/gpio/cy_gpio.h **** *   </tr>
 147:Generated_Source\PSoC6\pdl\drivers/peripheral/gpio/cy_gpio.h **** * </table>
 148:Generated_Source\PSoC6\pdl\drivers/peripheral/gpio/cy_gpio.h **** *
 149:Generated_Source\PSoC6\pdl\drivers/peripheral/gpio/cy_gpio.h **** * \defgroup group_gpio_macros Macros
 150:Generated_Source\PSoC6\pdl\drivers/peripheral/gpio/cy_gpio.h **** * \defgroup group_gpio_functions Functions
 151:Generated_Source\PSoC6\pdl\drivers/peripheral/gpio/cy_gpio.h **** * \{
 152:Generated_Source\PSoC6\pdl\drivers/peripheral/gpio/cy_gpio.h **** *   \defgroup group_gpio_functions_init       Initialization Functions
 153:Generated_Source\PSoC6\pdl\drivers/peripheral/gpio/cy_gpio.h **** *   \defgroup group_gpio_functions_gpio       GPIO Functions
 154:Generated_Source\PSoC6\pdl\drivers/peripheral/gpio/cy_gpio.h **** *   \defgroup group_gpio_functions_sio        SIO Functions
 155:Generated_Source\PSoC6\pdl\drivers/peripheral/gpio/cy_gpio.h **** *   \defgroup group_gpio_functions_interrupt  Port Interrupt Functions
ARM GAS  C:\Users\louis\AppData\Local\Temp\ccj8Y2ua.s 			page 47


 156:Generated_Source\PSoC6\pdl\drivers/peripheral/gpio/cy_gpio.h **** * \}
 157:Generated_Source\PSoC6\pdl\drivers/peripheral/gpio/cy_gpio.h **** * \defgroup group_gpio_data_structures Data Structures
 158:Generated_Source\PSoC6\pdl\drivers/peripheral/gpio/cy_gpio.h **** * \defgroup group_gpio_enums Enumerated Types
 159:Generated_Source\PSoC6\pdl\drivers/peripheral/gpio/cy_gpio.h **** */
 160:Generated_Source\PSoC6\pdl\drivers/peripheral/gpio/cy_gpio.h **** 
 161:Generated_Source\PSoC6\pdl\drivers/peripheral/gpio/cy_gpio.h **** #if !defined(CY_GPIO_H)
 162:Generated_Source\PSoC6\pdl\drivers/peripheral/gpio/cy_gpio.h **** #define CY_GPIO_H
 163:Generated_Source\PSoC6\pdl\drivers/peripheral/gpio/cy_gpio.h **** 
 164:Generated_Source\PSoC6\pdl\drivers/peripheral/gpio/cy_gpio.h **** #include <stddef.h>
 165:Generated_Source\PSoC6\pdl\drivers/peripheral/gpio/cy_gpio.h **** #include "cy_device.h"
 166:Generated_Source\PSoC6\pdl\drivers/peripheral/gpio/cy_gpio.h **** #include "cy_device_headers.h"
 167:Generated_Source\PSoC6\pdl\drivers/peripheral/gpio/cy_gpio.h **** #include "cy_syslib.h"
 168:Generated_Source\PSoC6\pdl\drivers/peripheral/gpio/cy_gpio.h **** 
 169:Generated_Source\PSoC6\pdl\drivers/peripheral/gpio/cy_gpio.h **** #if defined(__cplusplus)
 170:Generated_Source\PSoC6\pdl\drivers/peripheral/gpio/cy_gpio.h **** extern "C" {
 171:Generated_Source\PSoC6\pdl\drivers/peripheral/gpio/cy_gpio.h **** #endif
 172:Generated_Source\PSoC6\pdl\drivers/peripheral/gpio/cy_gpio.h **** 
 173:Generated_Source\PSoC6\pdl\drivers/peripheral/gpio/cy_gpio.h **** /** \addtogroup group_gpio_macros
 174:Generated_Source\PSoC6\pdl\drivers/peripheral/gpio/cy_gpio.h **** * \{
 175:Generated_Source\PSoC6\pdl\drivers/peripheral/gpio/cy_gpio.h **** */
 176:Generated_Source\PSoC6\pdl\drivers/peripheral/gpio/cy_gpio.h **** 
 177:Generated_Source\PSoC6\pdl\drivers/peripheral/gpio/cy_gpio.h **** /** Driver major version */
 178:Generated_Source\PSoC6\pdl\drivers/peripheral/gpio/cy_gpio.h **** #define CY_GPIO_DRV_VERSION_MAJOR       1
 179:Generated_Source\PSoC6\pdl\drivers/peripheral/gpio/cy_gpio.h **** 
 180:Generated_Source\PSoC6\pdl\drivers/peripheral/gpio/cy_gpio.h **** /** Driver minor version */
 181:Generated_Source\PSoC6\pdl\drivers/peripheral/gpio/cy_gpio.h **** #define CY_GPIO_DRV_VERSION_MINOR       20
 182:Generated_Source\PSoC6\pdl\drivers/peripheral/gpio/cy_gpio.h **** 
 183:Generated_Source\PSoC6\pdl\drivers/peripheral/gpio/cy_gpio.h **** /** GPIO driver ID */
 184:Generated_Source\PSoC6\pdl\drivers/peripheral/gpio/cy_gpio.h **** #define CY_GPIO_ID CY_PDL_DRV_ID(0x16U)
 185:Generated_Source\PSoC6\pdl\drivers/peripheral/gpio/cy_gpio.h **** 
 186:Generated_Source\PSoC6\pdl\drivers/peripheral/gpio/cy_gpio.h **** /** \} group_gpio_macros */
 187:Generated_Source\PSoC6\pdl\drivers/peripheral/gpio/cy_gpio.h **** 
 188:Generated_Source\PSoC6\pdl\drivers/peripheral/gpio/cy_gpio.h **** 
 189:Generated_Source\PSoC6\pdl\drivers/peripheral/gpio/cy_gpio.h **** /***************************************
 190:Generated_Source\PSoC6\pdl\drivers/peripheral/gpio/cy_gpio.h **** *       Enumerations
 191:Generated_Source\PSoC6\pdl\drivers/peripheral/gpio/cy_gpio.h **** ***************************************/
 192:Generated_Source\PSoC6\pdl\drivers/peripheral/gpio/cy_gpio.h **** /**
 193:Generated_Source\PSoC6\pdl\drivers/peripheral/gpio/cy_gpio.h **** * \addtogroup group_gpio_enums
 194:Generated_Source\PSoC6\pdl\drivers/peripheral/gpio/cy_gpio.h **** * \{
 195:Generated_Source\PSoC6\pdl\drivers/peripheral/gpio/cy_gpio.h **** */
 196:Generated_Source\PSoC6\pdl\drivers/peripheral/gpio/cy_gpio.h **** 
 197:Generated_Source\PSoC6\pdl\drivers/peripheral/gpio/cy_gpio.h **** /** GPIO Driver error codes */
 198:Generated_Source\PSoC6\pdl\drivers/peripheral/gpio/cy_gpio.h **** typedef enum 
 199:Generated_Source\PSoC6\pdl\drivers/peripheral/gpio/cy_gpio.h **** {
 200:Generated_Source\PSoC6\pdl\drivers/peripheral/gpio/cy_gpio.h ****     CY_GPIO_SUCCESS   = 0x00U,                                    /**< Returned successful */
 201:Generated_Source\PSoC6\pdl\drivers/peripheral/gpio/cy_gpio.h ****     CY_GPIO_BAD_PARAM = CY_GPIO_ID | CY_PDL_STATUS_ERROR | 0x01U, /**< Bad parameter was passed */
 202:Generated_Source\PSoC6\pdl\drivers/peripheral/gpio/cy_gpio.h **** } cy_en_gpio_status_t;
 203:Generated_Source\PSoC6\pdl\drivers/peripheral/gpio/cy_gpio.h **** 
 204:Generated_Source\PSoC6\pdl\drivers/peripheral/gpio/cy_gpio.h **** /** AMux switch open/close config */
 205:Generated_Source\PSoC6\pdl\drivers/peripheral/gpio/cy_gpio.h **** typedef enum
 206:Generated_Source\PSoC6\pdl\drivers/peripheral/gpio/cy_gpio.h **** {
 207:Generated_Source\PSoC6\pdl\drivers/peripheral/gpio/cy_gpio.h ****     CY_GPIO_AMUX_OPENALL,   /**< Open ground switch. Open right switch. Open left switch */
 208:Generated_Source\PSoC6\pdl\drivers/peripheral/gpio/cy_gpio.h ****     CY_GPIO_AMUX_L,         /**< Open ground switch. Open right switch. Close left switch */
 209:Generated_Source\PSoC6\pdl\drivers/peripheral/gpio/cy_gpio.h ****     CY_GPIO_AMUX_R,         /**< Open ground switch. Close right switch. Open left switch */
 210:Generated_Source\PSoC6\pdl\drivers/peripheral/gpio/cy_gpio.h ****     CY_GPIO_AMUX_LR,        /**< Open ground switch. Close right switch. Close left switch */
 211:Generated_Source\PSoC6\pdl\drivers/peripheral/gpio/cy_gpio.h ****     CY_GPIO_AMUX_G,         /**< Close ground switch. Open right switch. Open left switch */
 212:Generated_Source\PSoC6\pdl\drivers/peripheral/gpio/cy_gpio.h ****     CY_GPIO_AMUX_GL,        /**< Close ground switch. Open right switch. Close left switch */
ARM GAS  C:\Users\louis\AppData\Local\Temp\ccj8Y2ua.s 			page 48


 213:Generated_Source\PSoC6\pdl\drivers/peripheral/gpio/cy_gpio.h ****     CY_GPIO_AMUX_GR,        /**< Close ground switch. Close right switch. Open left switch */
 214:Generated_Source\PSoC6\pdl\drivers/peripheral/gpio/cy_gpio.h ****     CY_GPIO_AMUX_GLR,       /**< Close ground switch. Close right switch. Close left switch */
 215:Generated_Source\PSoC6\pdl\drivers/peripheral/gpio/cy_gpio.h **** }cy_en_gpio_amuxconnect_t;
 216:Generated_Source\PSoC6\pdl\drivers/peripheral/gpio/cy_gpio.h **** 
 217:Generated_Source\PSoC6\pdl\drivers/peripheral/gpio/cy_gpio.h **** /**
 218:Generated_Source\PSoC6\pdl\drivers/peripheral/gpio/cy_gpio.h **** * AMux Bus selection
 219:Generated_Source\PSoC6\pdl\drivers/peripheral/gpio/cy_gpio.h **** */
 220:Generated_Source\PSoC6\pdl\drivers/peripheral/gpio/cy_gpio.h **** typedef enum
 221:Generated_Source\PSoC6\pdl\drivers/peripheral/gpio/cy_gpio.h **** {
 222:Generated_Source\PSoC6\pdl\drivers/peripheral/gpio/cy_gpio.h ****     CY_GPIO_AMUXBUSA,       /**< AMuxBus A */
 223:Generated_Source\PSoC6\pdl\drivers/peripheral/gpio/cy_gpio.h ****     CY_GPIO_AMUXBUSB        /**< AMuxBus B */
 224:Generated_Source\PSoC6\pdl\drivers/peripheral/gpio/cy_gpio.h **** }cy_en_gpio_amuxselect_t;
 225:Generated_Source\PSoC6\pdl\drivers/peripheral/gpio/cy_gpio.h **** 
 226:Generated_Source\PSoC6\pdl\drivers/peripheral/gpio/cy_gpio.h **** /** \} group_gpio_enums */
 227:Generated_Source\PSoC6\pdl\drivers/peripheral/gpio/cy_gpio.h **** 
 228:Generated_Source\PSoC6\pdl\drivers/peripheral/gpio/cy_gpio.h **** 
 229:Generated_Source\PSoC6\pdl\drivers/peripheral/gpio/cy_gpio.h **** /***************************************
 230:Generated_Source\PSoC6\pdl\drivers/peripheral/gpio/cy_gpio.h **** *       Configuration Structures
 231:Generated_Source\PSoC6\pdl\drivers/peripheral/gpio/cy_gpio.h **** ***************************************/
 232:Generated_Source\PSoC6\pdl\drivers/peripheral/gpio/cy_gpio.h **** 
 233:Generated_Source\PSoC6\pdl\drivers/peripheral/gpio/cy_gpio.h **** /**
 234:Generated_Source\PSoC6\pdl\drivers/peripheral/gpio/cy_gpio.h **** * \addtogroup group_gpio_data_structures
 235:Generated_Source\PSoC6\pdl\drivers/peripheral/gpio/cy_gpio.h **** * \{
 236:Generated_Source\PSoC6\pdl\drivers/peripheral/gpio/cy_gpio.h **** */
 237:Generated_Source\PSoC6\pdl\drivers/peripheral/gpio/cy_gpio.h **** 
 238:Generated_Source\PSoC6\pdl\drivers/peripheral/gpio/cy_gpio.h **** /** This structure is used to initialize a port of GPIO pins */
 239:Generated_Source\PSoC6\pdl\drivers/peripheral/gpio/cy_gpio.h **** typedef struct 
 240:Generated_Source\PSoC6\pdl\drivers/peripheral/gpio/cy_gpio.h **** {
 241:Generated_Source\PSoC6\pdl\drivers/peripheral/gpio/cy_gpio.h ****     uint32_t out;           /**< Initial output data for the IO pins in the port */
 242:Generated_Source\PSoC6\pdl\drivers/peripheral/gpio/cy_gpio.h ****     uint32_t intrMask;      /**< Interrupt enable mask for the port interrupt */
 243:Generated_Source\PSoC6\pdl\drivers/peripheral/gpio/cy_gpio.h ****     uint32_t intrCfg;       /**< Port pin interrupt edge detection configuration */
 244:Generated_Source\PSoC6\pdl\drivers/peripheral/gpio/cy_gpio.h ****     uint32_t cfg;           /**< Port pin drive modes and input buffer enable configuration */
 245:Generated_Source\PSoC6\pdl\drivers/peripheral/gpio/cy_gpio.h ****     uint32_t cfgIn;         /**< Port pin input buffer configuration */
 246:Generated_Source\PSoC6\pdl\drivers/peripheral/gpio/cy_gpio.h ****     uint32_t cfgOut;        /**< Port pin output buffer configuration */
 247:Generated_Source\PSoC6\pdl\drivers/peripheral/gpio/cy_gpio.h ****     uint32_t cfgSIO;        /**< Port SIO pins configuration */
 248:Generated_Source\PSoC6\pdl\drivers/peripheral/gpio/cy_gpio.h ****     uint32_t sel0Active;    /**< HSIOM selection for port pins 0,1,2,3 */
 249:Generated_Source\PSoC6\pdl\drivers/peripheral/gpio/cy_gpio.h ****     uint32_t sel1Active;    /**< HSIOM selection for port pins 4,5,6,7 */
 250:Generated_Source\PSoC6\pdl\drivers/peripheral/gpio/cy_gpio.h **** } cy_stc_gpio_prt_config_t;
 251:Generated_Source\PSoC6\pdl\drivers/peripheral/gpio/cy_gpio.h **** 
 252:Generated_Source\PSoC6\pdl\drivers/peripheral/gpio/cy_gpio.h **** /** This structure is used to initialize a single GPIO pin */
 253:Generated_Source\PSoC6\pdl\drivers/peripheral/gpio/cy_gpio.h **** typedef struct
 254:Generated_Source\PSoC6\pdl\drivers/peripheral/gpio/cy_gpio.h **** {
 255:Generated_Source\PSoC6\pdl\drivers/peripheral/gpio/cy_gpio.h ****     uint32_t outVal;         /**< Pin output state */
 256:Generated_Source\PSoC6\pdl\drivers/peripheral/gpio/cy_gpio.h ****     uint32_t driveMode;      /**< Drive mode */
 257:Generated_Source\PSoC6\pdl\drivers/peripheral/gpio/cy_gpio.h ****     en_hsiom_sel_t hsiom;    /**< HSIOM selection */
 258:Generated_Source\PSoC6\pdl\drivers/peripheral/gpio/cy_gpio.h ****     uint32_t intEdge;        /**< Interrupt Edge type */
 259:Generated_Source\PSoC6\pdl\drivers/peripheral/gpio/cy_gpio.h ****     uint32_t intMask;        /**< Interrupt enable mask */
 260:Generated_Source\PSoC6\pdl\drivers/peripheral/gpio/cy_gpio.h ****     uint32_t vtrip;          /**< Input buffer voltage trip type */
 261:Generated_Source\PSoC6\pdl\drivers/peripheral/gpio/cy_gpio.h ****     uint32_t slewRate;       /**< Output buffer slew rate */
 262:Generated_Source\PSoC6\pdl\drivers/peripheral/gpio/cy_gpio.h ****     uint32_t driveSel;       /**< Drive strength */
 263:Generated_Source\PSoC6\pdl\drivers/peripheral/gpio/cy_gpio.h ****     uint32_t vregEn;         /**< SIO pair output buffer mode */
 264:Generated_Source\PSoC6\pdl\drivers/peripheral/gpio/cy_gpio.h ****     uint32_t ibufMode;       /**< SIO pair input buffer mode */
 265:Generated_Source\PSoC6\pdl\drivers/peripheral/gpio/cy_gpio.h ****     uint32_t vtripSel;       /**< SIO pair input buffer trip point */
 266:Generated_Source\PSoC6\pdl\drivers/peripheral/gpio/cy_gpio.h ****     uint32_t vrefSel;        /**< SIO pair reference voltage for input buffer trip point */
 267:Generated_Source\PSoC6\pdl\drivers/peripheral/gpio/cy_gpio.h ****     uint32_t vohSel;         /**< SIO pair regulated voltage output level */
 268:Generated_Source\PSoC6\pdl\drivers/peripheral/gpio/cy_gpio.h **** } cy_stc_gpio_pin_config_t;
 269:Generated_Source\PSoC6\pdl\drivers/peripheral/gpio/cy_gpio.h **** 
ARM GAS  C:\Users\louis\AppData\Local\Temp\ccj8Y2ua.s 			page 49


 270:Generated_Source\PSoC6\pdl\drivers/peripheral/gpio/cy_gpio.h **** /** \} group_gpio_data_structures */
 271:Generated_Source\PSoC6\pdl\drivers/peripheral/gpio/cy_gpio.h **** 
 272:Generated_Source\PSoC6\pdl\drivers/peripheral/gpio/cy_gpio.h **** /***************************************
 273:Generated_Source\PSoC6\pdl\drivers/peripheral/gpio/cy_gpio.h **** *        Constants
 274:Generated_Source\PSoC6\pdl\drivers/peripheral/gpio/cy_gpio.h **** ***************************************/
 275:Generated_Source\PSoC6\pdl\drivers/peripheral/gpio/cy_gpio.h **** 
 276:Generated_Source\PSoC6\pdl\drivers/peripheral/gpio/cy_gpio.h **** /** \cond INTERNAL */
 277:Generated_Source\PSoC6\pdl\drivers/peripheral/gpio/cy_gpio.h **** 
 278:Generated_Source\PSoC6\pdl\drivers/peripheral/gpio/cy_gpio.h **** /* General Constants */
 279:Generated_Source\PSoC6\pdl\drivers/peripheral/gpio/cy_gpio.h **** #define CY_GPIO_PRT_HALF                       (4UL)      /**< Half-way point of a GPIO port */
 280:Generated_Source\PSoC6\pdl\drivers/peripheral/gpio/cy_gpio.h **** #define CY_GPIO_PRT_DEINIT                     (0UL)      /**< De-init value for port registers */
 281:Generated_Source\PSoC6\pdl\drivers/peripheral/gpio/cy_gpio.h **** 
 282:Generated_Source\PSoC6\pdl\drivers/peripheral/gpio/cy_gpio.h **** /* GPIO Masks */
 283:Generated_Source\PSoC6\pdl\drivers/peripheral/gpio/cy_gpio.h **** #define CY_GPIO_HSIOM_MASK                     (0x1FUL)   /**< HSIOM selection mask */
 284:Generated_Source\PSoC6\pdl\drivers/peripheral/gpio/cy_gpio.h **** #define CY_GPIO_OUT_MASK                       (0x01UL)   /**< Single pin mask for OUT register */
 285:Generated_Source\PSoC6\pdl\drivers/peripheral/gpio/cy_gpio.h **** #define CY_GPIO_IN_MASK                        (0x01UL)   /**< Single pin mask for IN register */
 286:Generated_Source\PSoC6\pdl\drivers/peripheral/gpio/cy_gpio.h **** #define CY_GPIO_CFG_DM_MASK                    (0x0FUL)   /**< Single pin mask for drive mode in CF
 287:Generated_Source\PSoC6\pdl\drivers/peripheral/gpio/cy_gpio.h **** #define CY_GPIO_CFG_IN_VTRIP_SEL_MASK          (0x01UL)   /**< Single pin mask for VTRIP selection 
 288:Generated_Source\PSoC6\pdl\drivers/peripheral/gpio/cy_gpio.h **** #define CY_GPIO_CFG_OUT_SLOW_MASK              (0x01UL)   /**< Single pin mask for slew rate in CFG
 289:Generated_Source\PSoC6\pdl\drivers/peripheral/gpio/cy_gpio.h **** #define CY_GPIO_CFG_OUT_DRIVE_SEL_MASK         (0x03UL)   /**< Single pin mask for drive strength i
 290:Generated_Source\PSoC6\pdl\drivers/peripheral/gpio/cy_gpio.h **** #define CY_GPIO_INTR_STATUS_MASK               (0x01UL)   /**< Single pin mask for interrupt status
 291:Generated_Source\PSoC6\pdl\drivers/peripheral/gpio/cy_gpio.h **** #define CY_GPIO_INTR_EN_MASK                   (0x01UL)   /**< Single pin mask for interrupt status
 292:Generated_Source\PSoC6\pdl\drivers/peripheral/gpio/cy_gpio.h **** #define CY_GPIO_INTR_MASKED_MASK               (0x01UL)   /**< Single pin mask for masked interrupt
 293:Generated_Source\PSoC6\pdl\drivers/peripheral/gpio/cy_gpio.h **** #define CY_GPIO_INTR_SET_MASK                  (0x01UL)   /**< Single pin mask for setting the inte
 294:Generated_Source\PSoC6\pdl\drivers/peripheral/gpio/cy_gpio.h **** #define CY_GPIO_INTR_EDGE_MASK                 (0x03UL)   /**< Single pin mask for interrupt edge t
 295:Generated_Source\PSoC6\pdl\drivers/peripheral/gpio/cy_gpio.h **** #define CY_GPIO_INTR_FLT_EDGE_MASK             (0x07UL)   /**< Single pin mask for setting filtered
 296:Generated_Source\PSoC6\pdl\drivers/peripheral/gpio/cy_gpio.h **** 
 297:Generated_Source\PSoC6\pdl\drivers/peripheral/gpio/cy_gpio.h **** /* SIO Masks */
 298:Generated_Source\PSoC6\pdl\drivers/peripheral/gpio/cy_gpio.h **** #define CY_GPIO_VREG_EN_MASK                   (0x01UL)   /**< Single SIO pin mask for voltage regu
 299:Generated_Source\PSoC6\pdl\drivers/peripheral/gpio/cy_gpio.h **** #define CY_GPIO_IBUF_MASK                      (0x01UL)   /**< Single SIO pin mask for input buffer
 300:Generated_Source\PSoC6\pdl\drivers/peripheral/gpio/cy_gpio.h **** #define CY_GPIO_IBUF_SHIFT                     (0x01UL)   /**< Single SIO pin shift for input buffe
 301:Generated_Source\PSoC6\pdl\drivers/peripheral/gpio/cy_gpio.h **** #define CY_GPIO_VTRIP_SEL_MASK                 (0x01UL)   /**< Single SIO pin mask for the input bu
 302:Generated_Source\PSoC6\pdl\drivers/peripheral/gpio/cy_gpio.h **** #define CY_GPIO_VTRIP_SEL_SHIFT                (0x02UL)   /**< Single SIO pin shift for the input b
 303:Generated_Source\PSoC6\pdl\drivers/peripheral/gpio/cy_gpio.h **** #define CY_GPIO_VREF_SEL_MASK                  (0x03UL)   /**< Single SIO pin mask for voltage refe
 304:Generated_Source\PSoC6\pdl\drivers/peripheral/gpio/cy_gpio.h **** #define CY_GPIO_VREF_SEL_SHIFT                 (0x03UL)   /**< Single SIO pin shift for voltage ref
 305:Generated_Source\PSoC6\pdl\drivers/peripheral/gpio/cy_gpio.h **** #define CY_GPIO_VOH_SEL_MASK                   (0x07UL)   /**< Single SIO pin mask for VOH */
 306:Generated_Source\PSoC6\pdl\drivers/peripheral/gpio/cy_gpio.h **** #define CY_GPIO_VOH_SEL_SHIFT                  (0x05UL)   /**< Single SIO pin shift for VOH */
 307:Generated_Source\PSoC6\pdl\drivers/peripheral/gpio/cy_gpio.h **** 
 308:Generated_Source\PSoC6\pdl\drivers/peripheral/gpio/cy_gpio.h **** /* Special mask for SIO pin pair setting */
 309:Generated_Source\PSoC6\pdl\drivers/peripheral/gpio/cy_gpio.h **** #define CY_GPIO_SIO_ODD_PIN_MASK               (0x00FEUL) /**< SIO pin pair selection mask */
 310:Generated_Source\PSoC6\pdl\drivers/peripheral/gpio/cy_gpio.h **** #define CY_GPIO_SIO_PIN_MASK                   (0x00FFUL) /**< SIO pin pair mask */
 311:Generated_Source\PSoC6\pdl\drivers/peripheral/gpio/cy_gpio.h **** 
 312:Generated_Source\PSoC6\pdl\drivers/peripheral/gpio/cy_gpio.h **** /* Offsets */
 313:Generated_Source\PSoC6\pdl\drivers/peripheral/gpio/cy_gpio.h **** #define CY_GPIO_HSIOM_OFFSET                   (3UL)      /**< Offset for HSIOM */
 314:Generated_Source\PSoC6\pdl\drivers/peripheral/gpio/cy_gpio.h **** #define CY_GPIO_DRIVE_MODE_OFFSET              (2UL)      /**< Offset for Drive mode */
 315:Generated_Source\PSoC6\pdl\drivers/peripheral/gpio/cy_gpio.h **** #define CY_GPIO_INBUF_OFFSET                   (3UL)      /**< Offset for input buffer */
 316:Generated_Source\PSoC6\pdl\drivers/peripheral/gpio/cy_gpio.h **** #define CY_GPIO_CFG_OUT_DRIVE_OFFSET           (16UL)     /**< Offset for drive strength */
 317:Generated_Source\PSoC6\pdl\drivers/peripheral/gpio/cy_gpio.h **** #define CY_GPIO_INTR_CFG_OFFSET                (1UL)      /**< Offset for interrupt config */
 318:Generated_Source\PSoC6\pdl\drivers/peripheral/gpio/cy_gpio.h **** #define CY_GPIO_INTR_FILT_OFFSET               (18UL)     /**< Offset for filtered interrupt config
 319:Generated_Source\PSoC6\pdl\drivers/peripheral/gpio/cy_gpio.h **** #define CY_GPIO_CFG_SIO_OFFSET                 (2UL)      /**< Offset for SIO config */
 320:Generated_Source\PSoC6\pdl\drivers/peripheral/gpio/cy_gpio.h **** 
 321:Generated_Source\PSoC6\pdl\drivers/peripheral/gpio/cy_gpio.h **** /* Parameter validation constants */
 322:Generated_Source\PSoC6\pdl\drivers/peripheral/gpio/cy_gpio.h **** #define CY_GPIO_PINS_MAX                       (8UL)      /**< Number of pins in the port */
 323:Generated_Source\PSoC6\pdl\drivers/peripheral/gpio/cy_gpio.h **** #define CY_GPIO_PRT_PINS_MASK                  (0x0000000FFUL)
 324:Generated_Source\PSoC6\pdl\drivers/peripheral/gpio/cy_gpio.h **** #define CY_GPIO_PRT_INTR_CFG_EDGE_SEL_MASK     (GPIO_PRT_INTR_CFG_EDGE0_SEL_Msk | \
 325:Generated_Source\PSoC6\pdl\drivers/peripheral/gpio/cy_gpio.h ****                                                 GPIO_PRT_INTR_CFG_EDGE1_SEL_Msk | \
 326:Generated_Source\PSoC6\pdl\drivers/peripheral/gpio/cy_gpio.h ****                                                 GPIO_PRT_INTR_CFG_EDGE2_SEL_Msk | \
ARM GAS  C:\Users\louis\AppData\Local\Temp\ccj8Y2ua.s 			page 50


 327:Generated_Source\PSoC6\pdl\drivers/peripheral/gpio/cy_gpio.h ****                                                 GPIO_PRT_INTR_CFG_EDGE3_SEL_Msk | \
 328:Generated_Source\PSoC6\pdl\drivers/peripheral/gpio/cy_gpio.h ****                                                 GPIO_PRT_INTR_CFG_EDGE4_SEL_Msk | \
 329:Generated_Source\PSoC6\pdl\drivers/peripheral/gpio/cy_gpio.h ****                                                 GPIO_PRT_INTR_CFG_EDGE5_SEL_Msk | \
 330:Generated_Source\PSoC6\pdl\drivers/peripheral/gpio/cy_gpio.h ****                                                 GPIO_PRT_INTR_CFG_EDGE6_SEL_Msk | \
 331:Generated_Source\PSoC6\pdl\drivers/peripheral/gpio/cy_gpio.h ****                                                 GPIO_PRT_INTR_CFG_EDGE7_SEL_Msk)
 332:Generated_Source\PSoC6\pdl\drivers/peripheral/gpio/cy_gpio.h **** #define CY_GPIO_PRT_INTR_CFG_RANGE_MASK        (CY_GPIO_PRT_INTR_CFG_EDGE_SEL_MASK | \
 333:Generated_Source\PSoC6\pdl\drivers/peripheral/gpio/cy_gpio.h ****                                                 GPIO_PRT_INTR_CFG_FLT_EDGE_SEL_Msk | \
 334:Generated_Source\PSoC6\pdl\drivers/peripheral/gpio/cy_gpio.h ****                                                 GPIO_PRT_INTR_CFG_FLT_SEL_Msk)
 335:Generated_Source\PSoC6\pdl\drivers/peripheral/gpio/cy_gpio.h **** #define CY_GPIO_PRT_INT_MASK_MASK              (0x0000001FFUL)
 336:Generated_Source\PSoC6\pdl\drivers/peripheral/gpio/cy_gpio.h **** #define CY_GPIO_PRT_SEL_ACTIVE_MASK            (0x1FFFFFFFUL)
 337:Generated_Source\PSoC6\pdl\drivers/peripheral/gpio/cy_gpio.h **** 
 338:Generated_Source\PSoC6\pdl\drivers/peripheral/gpio/cy_gpio.h **** #define GPIO_MAX_SPLIT_CELL_SEGMENTS           (9U)
 339:Generated_Source\PSoC6\pdl\drivers/peripheral/gpio/cy_gpio.h **** 
 340:Generated_Source\PSoC6\pdl\drivers/peripheral/gpio/cy_gpio.h **** /* Parameter validation macros */
 341:Generated_Source\PSoC6\pdl\drivers/peripheral/gpio/cy_gpio.h **** #define CY_GPIO_IS_PIN_VALID(pinNum)           (CY_GPIO_PINS_MAX > (pinNum))
 342:Generated_Source\PSoC6\pdl\drivers/peripheral/gpio/cy_gpio.h **** #define CY_GPIO_IS_FILTER_PIN_VALID(pinNum)    (CY_GPIO_PINS_MAX >= (pinNum))
 343:Generated_Source\PSoC6\pdl\drivers/peripheral/gpio/cy_gpio.h **** #define CY_GPIO_IS_VALUE_VALID(outVal)         (1UL >= (outVal))
 344:Generated_Source\PSoC6\pdl\drivers/peripheral/gpio/cy_gpio.h **** #define CY_GPIO_IS_DM_VALID(driveMode)         (0U == ((driveMode) & (uint32_t)~CY_GPIO_CFG_DM_MASK
 345:Generated_Source\PSoC6\pdl\drivers/peripheral/gpio/cy_gpio.h **** 
 346:Generated_Source\PSoC6\pdl\drivers/peripheral/gpio/cy_gpio.h **** #define CY_GPIO_IS_HSIOM_VALID(hsiom)          (0U == ((hsiom) & (uint32_t)~CY_GPIO_HSIOM_MASK))
 347:Generated_Source\PSoC6\pdl\drivers/peripheral/gpio/cy_gpio.h **** 
 348:Generated_Source\PSoC6\pdl\drivers/peripheral/gpio/cy_gpio.h **** #define CY_GPIO_IS_INT_EDGE_VALID(intEdge)     ((CY_GPIO_INTR_DISABLE  == (intEdge)) || \
 349:Generated_Source\PSoC6\pdl\drivers/peripheral/gpio/cy_gpio.h ****                                                 (CY_GPIO_INTR_RISING   == (intEdge)) || \
 350:Generated_Source\PSoC6\pdl\drivers/peripheral/gpio/cy_gpio.h ****                                                 (CY_GPIO_INTR_FALLING  == (intEdge)) || \
 351:Generated_Source\PSoC6\pdl\drivers/peripheral/gpio/cy_gpio.h ****                                                 (CY_GPIO_INTR_BOTH     == (intEdge)))
 352:Generated_Source\PSoC6\pdl\drivers/peripheral/gpio/cy_gpio.h **** 
 353:Generated_Source\PSoC6\pdl\drivers/peripheral/gpio/cy_gpio.h **** #define CY_GPIO_IS_DRIVE_SEL_VALID(driveSel)   ((CY_GPIO_DRIVE_FULL    == (driveSel)) || \
 354:Generated_Source\PSoC6\pdl\drivers/peripheral/gpio/cy_gpio.h ****                                                 (CY_GPIO_DRIVE_1_2     == (driveSel)) || \
 355:Generated_Source\PSoC6\pdl\drivers/peripheral/gpio/cy_gpio.h ****                                                 (CY_GPIO_DRIVE_1_4     == (driveSel)) || \
 356:Generated_Source\PSoC6\pdl\drivers/peripheral/gpio/cy_gpio.h ****                                                 (CY_GPIO_DRIVE_1_8     == (driveSel)))
 357:Generated_Source\PSoC6\pdl\drivers/peripheral/gpio/cy_gpio.h **** 
 358:Generated_Source\PSoC6\pdl\drivers/peripheral/gpio/cy_gpio.h **** #define CY_GPIO_IS_VREF_SEL_VALID(vrefSel)     ((CY_SIO_VREF_PINREF    == (vrefSel)) || \
 359:Generated_Source\PSoC6\pdl\drivers/peripheral/gpio/cy_gpio.h ****                                                 (CY_SIO_VREF_1_2V      == (vrefSel)) || \
 360:Generated_Source\PSoC6\pdl\drivers/peripheral/gpio/cy_gpio.h ****                                                 (CY_SIO_VREF_AMUX_A    == (vrefSel)) || \
 361:Generated_Source\PSoC6\pdl\drivers/peripheral/gpio/cy_gpio.h ****                                                 (CY_SIO_VREF_AMUX_B    == (vrefSel)))
 362:Generated_Source\PSoC6\pdl\drivers/peripheral/gpio/cy_gpio.h **** 
 363:Generated_Source\PSoC6\pdl\drivers/peripheral/gpio/cy_gpio.h **** #define CY_GPIO_IS_VOH_SEL_VALID(vrefSel)      ((CY_SIO_VOH_1_00       == (vrefSel)) || \
 364:Generated_Source\PSoC6\pdl\drivers/peripheral/gpio/cy_gpio.h ****                                                 (CY_SIO_VOH_1_25       == (vrefSel)) || \
 365:Generated_Source\PSoC6\pdl\drivers/peripheral/gpio/cy_gpio.h ****                                                 (CY_SIO_VOH_1_49       == (vrefSel)) || \
 366:Generated_Source\PSoC6\pdl\drivers/peripheral/gpio/cy_gpio.h ****                                                 (CY_SIO_VOH_1_67       == (vrefSel)) || \
 367:Generated_Source\PSoC6\pdl\drivers/peripheral/gpio/cy_gpio.h ****                                                 (CY_SIO_VOH_2_08       == (vrefSel)) || \
 368:Generated_Source\PSoC6\pdl\drivers/peripheral/gpio/cy_gpio.h ****                                                 (CY_SIO_VOH_2_50       == (vrefSel)) || \
 369:Generated_Source\PSoC6\pdl\drivers/peripheral/gpio/cy_gpio.h ****                                                 (CY_SIO_VOH_2_78       == (vrefSel)) || \
 370:Generated_Source\PSoC6\pdl\drivers/peripheral/gpio/cy_gpio.h ****                                                 (CY_SIO_VOH_4_16       == (vrefSel)))
 371:Generated_Source\PSoC6\pdl\drivers/peripheral/gpio/cy_gpio.h ****                    
 372:Generated_Source\PSoC6\pdl\drivers/peripheral/gpio/cy_gpio.h **** #define CY_GPIO_IS_PIN_BIT_VALID(pinBit)       (0U == ((pinBit) & (uint32_t)~CY_GPIO_PRT_PINS_MASK)
 373:Generated_Source\PSoC6\pdl\drivers/peripheral/gpio/cy_gpio.h **** #define CY_GPIO_IS_INTR_CFG_VALID(intrCfg)     (0U == ((intrCfg) & (uint32_t)~CY_GPIO_PRT_INTR_CFG_
 374:Generated_Source\PSoC6\pdl\drivers/peripheral/gpio/cy_gpio.h **** #define CY_GPIO_IS_INTR_MASK_VALID(intrMask)   (0U == ((intrMask) & (uint32_t)~CY_GPIO_PRT_INT_MASK
 375:Generated_Source\PSoC6\pdl\drivers/peripheral/gpio/cy_gpio.h **** #define CY_GPIO_IS_SEL_ACT_VALID(selActive)    (0U == ((selActive) & (uint32_t)~CY_GPIO_PRT_SEL_ACT
 376:Generated_Source\PSoC6\pdl\drivers/peripheral/gpio/cy_gpio.h **** 
 377:Generated_Source\PSoC6\pdl\drivers/peripheral/gpio/cy_gpio.h **** #define CY_GPIO_IS_AMUX_SPLIT_VALID(switchCtrl)       (((uint32_t) (switchCtrl)) < GPIO_MAX_SPLIT_C
 378:Generated_Source\PSoC6\pdl\drivers/peripheral/gpio/cy_gpio.h **** 
 379:Generated_Source\PSoC6\pdl\drivers/peripheral/gpio/cy_gpio.h **** #define CY_GPIO_IS_AMUX_CONNECT_VALID(amuxConnect)    ((CY_GPIO_AMUX_OPENALL == (amuxConnect)) || \
 380:Generated_Source\PSoC6\pdl\drivers/peripheral/gpio/cy_gpio.h ****                                                        (CY_GPIO_AMUX_L       == (amuxConnect)) || \
 381:Generated_Source\PSoC6\pdl\drivers/peripheral/gpio/cy_gpio.h ****                                                        (CY_GPIO_AMUX_R       == (amuxConnect)) || \
 382:Generated_Source\PSoC6\pdl\drivers/peripheral/gpio/cy_gpio.h ****                                                        (CY_GPIO_AMUX_LR      == (amuxConnect)) || \
 383:Generated_Source\PSoC6\pdl\drivers/peripheral/gpio/cy_gpio.h ****                                                        (CY_GPIO_AMUX_G       == (amuxConnect)) || \
ARM GAS  C:\Users\louis\AppData\Local\Temp\ccj8Y2ua.s 			page 51


 384:Generated_Source\PSoC6\pdl\drivers/peripheral/gpio/cy_gpio.h ****                                                        (CY_GPIO_AMUX_GL      == (amuxConnect)) || \
 385:Generated_Source\PSoC6\pdl\drivers/peripheral/gpio/cy_gpio.h ****                                                        (CY_GPIO_AMUX_GR      == (amuxConnect)) || \
 386:Generated_Source\PSoC6\pdl\drivers/peripheral/gpio/cy_gpio.h ****                                                        (CY_GPIO_AMUX_GLR     == (amuxConnect)))
 387:Generated_Source\PSoC6\pdl\drivers/peripheral/gpio/cy_gpio.h **** 
 388:Generated_Source\PSoC6\pdl\drivers/peripheral/gpio/cy_gpio.h **** #define CY_GPIO_IS_AMUX_SELECT_VALID(amuxBus)       ((CY_GPIO_AMUXBUSA       == (amuxBus)) || \
 389:Generated_Source\PSoC6\pdl\drivers/peripheral/gpio/cy_gpio.h ****                                                      (CY_GPIO_AMUXBUSB       == (amuxBus)))
 390:Generated_Source\PSoC6\pdl\drivers/peripheral/gpio/cy_gpio.h **** /** \endcond */
 391:Generated_Source\PSoC6\pdl\drivers/peripheral/gpio/cy_gpio.h **** 
 392:Generated_Source\PSoC6\pdl\drivers/peripheral/gpio/cy_gpio.h **** 
 393:Generated_Source\PSoC6\pdl\drivers/peripheral/gpio/cy_gpio.h **** /***************************************
 394:Generated_Source\PSoC6\pdl\drivers/peripheral/gpio/cy_gpio.h **** *        Function Constants
 395:Generated_Source\PSoC6\pdl\drivers/peripheral/gpio/cy_gpio.h **** ***************************************/
 396:Generated_Source\PSoC6\pdl\drivers/peripheral/gpio/cy_gpio.h **** 
 397:Generated_Source\PSoC6\pdl\drivers/peripheral/gpio/cy_gpio.h **** /**
 398:Generated_Source\PSoC6\pdl\drivers/peripheral/gpio/cy_gpio.h **** * \addtogroup group_gpio_macros
 399:Generated_Source\PSoC6\pdl\drivers/peripheral/gpio/cy_gpio.h **** * \{
 400:Generated_Source\PSoC6\pdl\drivers/peripheral/gpio/cy_gpio.h **** */
 401:Generated_Source\PSoC6\pdl\drivers/peripheral/gpio/cy_gpio.h **** 
 402:Generated_Source\PSoC6\pdl\drivers/peripheral/gpio/cy_gpio.h **** /**
 403:Generated_Source\PSoC6\pdl\drivers/peripheral/gpio/cy_gpio.h **** * \defgroup group_gpio_driveModes Pin drive mode
 404:Generated_Source\PSoC6\pdl\drivers/peripheral/gpio/cy_gpio.h **** * \{
 405:Generated_Source\PSoC6\pdl\drivers/peripheral/gpio/cy_gpio.h **** * Constants to be used for setting the drive mode of the pin.
 406:Generated_Source\PSoC6\pdl\drivers/peripheral/gpio/cy_gpio.h **** */
 407:Generated_Source\PSoC6\pdl\drivers/peripheral/gpio/cy_gpio.h **** #define CY_GPIO_DM_ANALOG                      (0x00UL) /**< Analog High-Z. Input buffer off */
 408:Generated_Source\PSoC6\pdl\drivers/peripheral/gpio/cy_gpio.h **** #define CY_GPIO_DM_PULLUP_IN_OFF               (0x02UL) /**< Resistive Pull-Up. Input buffer off */
 409:Generated_Source\PSoC6\pdl\drivers/peripheral/gpio/cy_gpio.h **** #define CY_GPIO_DM_PULLDOWN_IN_OFF             (0x03UL) /**< Resistive Pull-Down. Input buffer off 
 410:Generated_Source\PSoC6\pdl\drivers/peripheral/gpio/cy_gpio.h **** #define CY_GPIO_DM_OD_DRIVESLOW_IN_OFF         (0x04UL) /**< Open Drain, Drives Low. Input buffer o
 411:Generated_Source\PSoC6\pdl\drivers/peripheral/gpio/cy_gpio.h **** #define CY_GPIO_DM_OD_DRIVESHIGH_IN_OFF        (0x05UL) /**< Open Drain, Drives High. Input buffer 
 412:Generated_Source\PSoC6\pdl\drivers/peripheral/gpio/cy_gpio.h **** #define CY_GPIO_DM_STRONG_IN_OFF               (0x06UL) /**< Strong Drive. Input buffer off */
 413:Generated_Source\PSoC6\pdl\drivers/peripheral/gpio/cy_gpio.h **** #define CY_GPIO_DM_PULLUP_DOWN_IN_OFF          (0x07UL) /**< Resistive Pull-Up/Down. Input buffer o
 414:Generated_Source\PSoC6\pdl\drivers/peripheral/gpio/cy_gpio.h **** #define CY_GPIO_DM_HIGHZ                       (0x08UL) /**< Digital High-Z. Input buffer on */
 415:Generated_Source\PSoC6\pdl\drivers/peripheral/gpio/cy_gpio.h **** #define CY_GPIO_DM_PULLUP                      (0x0AUL) /**< Resistive Pull-Up. Input buffer on */
 416:Generated_Source\PSoC6\pdl\drivers/peripheral/gpio/cy_gpio.h **** #define CY_GPIO_DM_PULLDOWN                    (0x0BUL) /**< Resistive Pull-Down. Input buffer on *
 417:Generated_Source\PSoC6\pdl\drivers/peripheral/gpio/cy_gpio.h **** #define CY_GPIO_DM_OD_DRIVESLOW                (0x0CUL) /**< Open Drain, Drives Low. Input buffer o
 418:Generated_Source\PSoC6\pdl\drivers/peripheral/gpio/cy_gpio.h **** #define CY_GPIO_DM_OD_DRIVESHIGH               (0x0DUL) /**< Open Drain, Drives High. Input buffer 
 419:Generated_Source\PSoC6\pdl\drivers/peripheral/gpio/cy_gpio.h **** #define CY_GPIO_DM_STRONG                      (0x0EUL) /**< Strong Drive. Input buffer on */
 420:Generated_Source\PSoC6\pdl\drivers/peripheral/gpio/cy_gpio.h **** #define CY_GPIO_DM_PULLUP_DOWN                 (0x0FUL) /**< Resistive Pull-Up/Down. Input buffer o
 421:Generated_Source\PSoC6\pdl\drivers/peripheral/gpio/cy_gpio.h **** /** \} */
 422:Generated_Source\PSoC6\pdl\drivers/peripheral/gpio/cy_gpio.h **** 
 423:Generated_Source\PSoC6\pdl\drivers/peripheral/gpio/cy_gpio.h **** /**
 424:Generated_Source\PSoC6\pdl\drivers/peripheral/gpio/cy_gpio.h **** * \defgroup group_gpio_vtrip Voltage trip mode
 425:Generated_Source\PSoC6\pdl\drivers/peripheral/gpio/cy_gpio.h **** * \{
 426:Generated_Source\PSoC6\pdl\drivers/peripheral/gpio/cy_gpio.h **** * Constants to be used for setting the voltage trip type on the pin.
 427:Generated_Source\PSoC6\pdl\drivers/peripheral/gpio/cy_gpio.h **** */
 428:Generated_Source\PSoC6\pdl\drivers/peripheral/gpio/cy_gpio.h **** #define CY_GPIO_VTRIP_CMOS                     (0x00UL) /**< Input buffer compatible with CMOS and 
 429:Generated_Source\PSoC6\pdl\drivers/peripheral/gpio/cy_gpio.h **** #define CY_GPIO_VTRIP_TTL                      (0x01UL) /**< Input buffer compatible with TTL and M
 430:Generated_Source\PSoC6\pdl\drivers/peripheral/gpio/cy_gpio.h **** /** \} */
 431:Generated_Source\PSoC6\pdl\drivers/peripheral/gpio/cy_gpio.h **** 
 432:Generated_Source\PSoC6\pdl\drivers/peripheral/gpio/cy_gpio.h **** /**
 433:Generated_Source\PSoC6\pdl\drivers/peripheral/gpio/cy_gpio.h **** * \defgroup group_gpio_slewRate Slew Rate Mode
 434:Generated_Source\PSoC6\pdl\drivers/peripheral/gpio/cy_gpio.h **** * \{
 435:Generated_Source\PSoC6\pdl\drivers/peripheral/gpio/cy_gpio.h **** * Constants to be used for setting the slew rate of the pin.
 436:Generated_Source\PSoC6\pdl\drivers/peripheral/gpio/cy_gpio.h **** */
 437:Generated_Source\PSoC6\pdl\drivers/peripheral/gpio/cy_gpio.h **** #define CY_GPIO_SLEW_FAST                      (0x00UL) /**< Fast slew rate */
 438:Generated_Source\PSoC6\pdl\drivers/peripheral/gpio/cy_gpio.h **** #define CY_GPIO_SLEW_SLOW                      (0x01UL) /**< Slow slew rate */
 439:Generated_Source\PSoC6\pdl\drivers/peripheral/gpio/cy_gpio.h **** /** \} */
 440:Generated_Source\PSoC6\pdl\drivers/peripheral/gpio/cy_gpio.h **** 
ARM GAS  C:\Users\louis\AppData\Local\Temp\ccj8Y2ua.s 			page 52


 441:Generated_Source\PSoC6\pdl\drivers/peripheral/gpio/cy_gpio.h **** /**
 442:Generated_Source\PSoC6\pdl\drivers/peripheral/gpio/cy_gpio.h **** * \defgroup group_gpio_driveStrength Pin drive strength
 443:Generated_Source\PSoC6\pdl\drivers/peripheral/gpio/cy_gpio.h **** * \{
 444:Generated_Source\PSoC6\pdl\drivers/peripheral/gpio/cy_gpio.h **** * Constants to be used for setting the drive strength of the pin.
 445:Generated_Source\PSoC6\pdl\drivers/peripheral/gpio/cy_gpio.h **** */
 446:Generated_Source\PSoC6\pdl\drivers/peripheral/gpio/cy_gpio.h **** #define CY_GPIO_DRIVE_FULL                     (0x00UL) /**< Full drive strength: Max drive current
 447:Generated_Source\PSoC6\pdl\drivers/peripheral/gpio/cy_gpio.h **** #define CY_GPIO_DRIVE_1_2                      (0x01UL) /**< 1/2 drive strength: 1/2 drive current 
 448:Generated_Source\PSoC6\pdl\drivers/peripheral/gpio/cy_gpio.h **** #define CY_GPIO_DRIVE_1_4                      (0x02UL) /**< 1/4 drive strength: 1/4 drive current 
 449:Generated_Source\PSoC6\pdl\drivers/peripheral/gpio/cy_gpio.h **** #define CY_GPIO_DRIVE_1_8                      (0x03UL) /**< 1/8 drive strength: 1/8 drive current 
 450:Generated_Source\PSoC6\pdl\drivers/peripheral/gpio/cy_gpio.h **** /** \} */
 451:Generated_Source\PSoC6\pdl\drivers/peripheral/gpio/cy_gpio.h **** 
 452:Generated_Source\PSoC6\pdl\drivers/peripheral/gpio/cy_gpio.h **** /**
 453:Generated_Source\PSoC6\pdl\drivers/peripheral/gpio/cy_gpio.h **** * \defgroup group_gpio_interruptTrigger Interrupt trigger type
 454:Generated_Source\PSoC6\pdl\drivers/peripheral/gpio/cy_gpio.h **** * \{
 455:Generated_Source\PSoC6\pdl\drivers/peripheral/gpio/cy_gpio.h **** * Constants to be used for setting the interrupt trigger type on the pin.
 456:Generated_Source\PSoC6\pdl\drivers/peripheral/gpio/cy_gpio.h **** */
 457:Generated_Source\PSoC6\pdl\drivers/peripheral/gpio/cy_gpio.h **** #define CY_GPIO_INTR_DISABLE                   (0x00UL) /**< Disable the pin interrupt generation *
 458:Generated_Source\PSoC6\pdl\drivers/peripheral/gpio/cy_gpio.h **** #define CY_GPIO_INTR_RISING                    (0x01UL) /**< Rising-Edge interrupt */
 459:Generated_Source\PSoC6\pdl\drivers/peripheral/gpio/cy_gpio.h **** #define CY_GPIO_INTR_FALLING                   (0x02UL) /**< Falling-Edge interrupt */
 460:Generated_Source\PSoC6\pdl\drivers/peripheral/gpio/cy_gpio.h **** #define CY_GPIO_INTR_BOTH                      (0x03UL) /**< Both-Edge interrupt */
 461:Generated_Source\PSoC6\pdl\drivers/peripheral/gpio/cy_gpio.h **** /** \} */
 462:Generated_Source\PSoC6\pdl\drivers/peripheral/gpio/cy_gpio.h **** 
 463:Generated_Source\PSoC6\pdl\drivers/peripheral/gpio/cy_gpio.h **** /**
 464:Generated_Source\PSoC6\pdl\drivers/peripheral/gpio/cy_gpio.h **** * \defgroup group_gpio_sioVreg SIO output buffer mode
 465:Generated_Source\PSoC6\pdl\drivers/peripheral/gpio/cy_gpio.h **** * \{
 466:Generated_Source\PSoC6\pdl\drivers/peripheral/gpio/cy_gpio.h **** * Constants to be used for setting the SIO output buffer mode on the pin.
 467:Generated_Source\PSoC6\pdl\drivers/peripheral/gpio/cy_gpio.h **** */
 468:Generated_Source\PSoC6\pdl\drivers/peripheral/gpio/cy_gpio.h **** #define CY_SIO_VREG_UNREGULATED                (0x00UL) /**< Unregulated output buffer */
 469:Generated_Source\PSoC6\pdl\drivers/peripheral/gpio/cy_gpio.h **** #define CY_SIO_VREG_REGULATED                  (0x01UL) /**< Regulated output buffer */
 470:Generated_Source\PSoC6\pdl\drivers/peripheral/gpio/cy_gpio.h **** /** \} */
 471:Generated_Source\PSoC6\pdl\drivers/peripheral/gpio/cy_gpio.h **** 
 472:Generated_Source\PSoC6\pdl\drivers/peripheral/gpio/cy_gpio.h **** /**
 473:Generated_Source\PSoC6\pdl\drivers/peripheral/gpio/cy_gpio.h **** * \defgroup group_gpio_sioIbuf SIO input buffer mode
 474:Generated_Source\PSoC6\pdl\drivers/peripheral/gpio/cy_gpio.h **** * \{
 475:Generated_Source\PSoC6\pdl\drivers/peripheral/gpio/cy_gpio.h **** * Constants to be used for setting the SIO input buffer mode on the pin.
 476:Generated_Source\PSoC6\pdl\drivers/peripheral/gpio/cy_gpio.h **** */
 477:Generated_Source\PSoC6\pdl\drivers/peripheral/gpio/cy_gpio.h **** #define CY_SIO_IBUF_SINGLEENDED                (0x00UL) /**< Single ended input buffer */
 478:Generated_Source\PSoC6\pdl\drivers/peripheral/gpio/cy_gpio.h **** #define CY_SIO_IBUF_DIFFERENTIAL               (0x01UL) /**< Differential input buffer */
 479:Generated_Source\PSoC6\pdl\drivers/peripheral/gpio/cy_gpio.h **** /** \} */
 480:Generated_Source\PSoC6\pdl\drivers/peripheral/gpio/cy_gpio.h **** 
 481:Generated_Source\PSoC6\pdl\drivers/peripheral/gpio/cy_gpio.h **** /**
 482:Generated_Source\PSoC6\pdl\drivers/peripheral/gpio/cy_gpio.h **** * \defgroup group_gpio_sioVtrip SIO input buffer trip-point
 483:Generated_Source\PSoC6\pdl\drivers/peripheral/gpio/cy_gpio.h **** * \{
 484:Generated_Source\PSoC6\pdl\drivers/peripheral/gpio/cy_gpio.h **** * Constants to be used for setting the SIO input buffer trip-point of the pin.
 485:Generated_Source\PSoC6\pdl\drivers/peripheral/gpio/cy_gpio.h **** */
 486:Generated_Source\PSoC6\pdl\drivers/peripheral/gpio/cy_gpio.h **** #define CY_SIO_VTRIP_CMOS                      (0x00UL) /**< CMOS input buffer (single-ended) */
 487:Generated_Source\PSoC6\pdl\drivers/peripheral/gpio/cy_gpio.h **** #define CY_SIO_VTRIP_TTL                       (0x01UL) /**< TTL input buffer (single-ended) */
 488:Generated_Source\PSoC6\pdl\drivers/peripheral/gpio/cy_gpio.h **** #define CY_SIO_VTRIP_0_5VDDIO_0_5VOH           (0x00UL) /**< 0.5xVddio or 0.5xVoh (differential) */
 489:Generated_Source\PSoC6\pdl\drivers/peripheral/gpio/cy_gpio.h **** #define CY_SIO_VTRIP_0_4VDDIO_1_0VREF          (0x01UL) /**< 0.4xVddio or 0.4xVoh (differential) */
 490:Generated_Source\PSoC6\pdl\drivers/peripheral/gpio/cy_gpio.h **** /** \} */
 491:Generated_Source\PSoC6\pdl\drivers/peripheral/gpio/cy_gpio.h **** 
 492:Generated_Source\PSoC6\pdl\drivers/peripheral/gpio/cy_gpio.h **** /**
 493:Generated_Source\PSoC6\pdl\drivers/peripheral/gpio/cy_gpio.h **** * \defgroup group_gpio_sioVref SIO reference voltage for input buffer trip-point
 494:Generated_Source\PSoC6\pdl\drivers/peripheral/gpio/cy_gpio.h **** * \{
 495:Generated_Source\PSoC6\pdl\drivers/peripheral/gpio/cy_gpio.h **** * Constants to be used for setting the reference voltage of SIO input buffer trip-point.
 496:Generated_Source\PSoC6\pdl\drivers/peripheral/gpio/cy_gpio.h **** */
 497:Generated_Source\PSoC6\pdl\drivers/peripheral/gpio/cy_gpio.h **** #define CY_SIO_VREF_PINREF                     (0x00UL) /**< Vref from analog pin */
ARM GAS  C:\Users\louis\AppData\Local\Temp\ccj8Y2ua.s 			page 53


 498:Generated_Source\PSoC6\pdl\drivers/peripheral/gpio/cy_gpio.h **** #define CY_SIO_VREF_1_2V                       (0x01UL) /**< Vref from internal 1.2V reference */
 499:Generated_Source\PSoC6\pdl\drivers/peripheral/gpio/cy_gpio.h **** #define CY_SIO_VREF_AMUX_A                     (0x02UL) /**< Vref from AMUXBUS_A */
 500:Generated_Source\PSoC6\pdl\drivers/peripheral/gpio/cy_gpio.h **** #define CY_SIO_VREF_AMUX_B                     (0x03UL) /**< Vref from AMUXBUS_B */
 501:Generated_Source\PSoC6\pdl\drivers/peripheral/gpio/cy_gpio.h **** /** \} */
 502:Generated_Source\PSoC6\pdl\drivers/peripheral/gpio/cy_gpio.h **** 
 503:Generated_Source\PSoC6\pdl\drivers/peripheral/gpio/cy_gpio.h **** /**
 504:Generated_Source\PSoC6\pdl\drivers/peripheral/gpio/cy_gpio.h **** * \defgroup group_gpio_sioVoh Regulated output voltage level (Voh) and input buffer trip-point of a
 505:Generated_Source\PSoC6\pdl\drivers/peripheral/gpio/cy_gpio.h **** * \{
 506:Generated_Source\PSoC6\pdl\drivers/peripheral/gpio/cy_gpio.h **** * Constants to be used for setting the Voh and input buffer trip-point of an SIO pair
 507:Generated_Source\PSoC6\pdl\drivers/peripheral/gpio/cy_gpio.h **** */
 508:Generated_Source\PSoC6\pdl\drivers/peripheral/gpio/cy_gpio.h **** #define CY_SIO_VOH_1_00                        (0x00UL) /**< Voh = 1 x Reference */
 509:Generated_Source\PSoC6\pdl\drivers/peripheral/gpio/cy_gpio.h **** #define CY_SIO_VOH_1_25                        (0x01UL) /**< Voh = 1.25 x Reference */
 510:Generated_Source\PSoC6\pdl\drivers/peripheral/gpio/cy_gpio.h **** #define CY_SIO_VOH_1_49                        (0x02UL) /**< Voh = 1.49 x Reference */
 511:Generated_Source\PSoC6\pdl\drivers/peripheral/gpio/cy_gpio.h **** #define CY_SIO_VOH_1_67                        (0x03UL) /**< Voh = 1.67 x Reference */
 512:Generated_Source\PSoC6\pdl\drivers/peripheral/gpio/cy_gpio.h **** #define CY_SIO_VOH_2_08                        (0x04UL) /**< Voh = 2.08 x Reference */
 513:Generated_Source\PSoC6\pdl\drivers/peripheral/gpio/cy_gpio.h **** #define CY_SIO_VOH_2_50                        (0x05UL) /**< Voh = 2.50 x Reference */
 514:Generated_Source\PSoC6\pdl\drivers/peripheral/gpio/cy_gpio.h **** #define CY_SIO_VOH_2_78                        (0x06UL) /**< Voh = 2.78 x Reference */
 515:Generated_Source\PSoC6\pdl\drivers/peripheral/gpio/cy_gpio.h **** #define CY_SIO_VOH_4_16                        (0x07UL) /**< Voh = 4.16 x Reference */
 516:Generated_Source\PSoC6\pdl\drivers/peripheral/gpio/cy_gpio.h **** /** \} */
 517:Generated_Source\PSoC6\pdl\drivers/peripheral/gpio/cy_gpio.h **** 
 518:Generated_Source\PSoC6\pdl\drivers/peripheral/gpio/cy_gpio.h **** /** \} group_gpio_macros */
 519:Generated_Source\PSoC6\pdl\drivers/peripheral/gpio/cy_gpio.h **** 
 520:Generated_Source\PSoC6\pdl\drivers/peripheral/gpio/cy_gpio.h **** /***************************************
 521:Generated_Source\PSoC6\pdl\drivers/peripheral/gpio/cy_gpio.h **** *        Function Prototypes
 522:Generated_Source\PSoC6\pdl\drivers/peripheral/gpio/cy_gpio.h **** ***************************************/
 523:Generated_Source\PSoC6\pdl\drivers/peripheral/gpio/cy_gpio.h **** 
 524:Generated_Source\PSoC6\pdl\drivers/peripheral/gpio/cy_gpio.h **** /**
 525:Generated_Source\PSoC6\pdl\drivers/peripheral/gpio/cy_gpio.h **** * \addtogroup group_gpio_functions
 526:Generated_Source\PSoC6\pdl\drivers/peripheral/gpio/cy_gpio.h **** * \{
 527:Generated_Source\PSoC6\pdl\drivers/peripheral/gpio/cy_gpio.h **** */
 528:Generated_Source\PSoC6\pdl\drivers/peripheral/gpio/cy_gpio.h **** 
 529:Generated_Source\PSoC6\pdl\drivers/peripheral/gpio/cy_gpio.h **** /**
 530:Generated_Source\PSoC6\pdl\drivers/peripheral/gpio/cy_gpio.h **** * \addtogroup group_gpio_functions_init
 531:Generated_Source\PSoC6\pdl\drivers/peripheral/gpio/cy_gpio.h **** * \{
 532:Generated_Source\PSoC6\pdl\drivers/peripheral/gpio/cy_gpio.h **** */
 533:Generated_Source\PSoC6\pdl\drivers/peripheral/gpio/cy_gpio.h **** 
 534:Generated_Source\PSoC6\pdl\drivers/peripheral/gpio/cy_gpio.h **** cy_en_gpio_status_t Cy_GPIO_Pin_Init(GPIO_PRT_Type* base, uint32_t pinNum, const cy_stc_gpio_pin_co
 535:Generated_Source\PSoC6\pdl\drivers/peripheral/gpio/cy_gpio.h **** cy_en_gpio_status_t Cy_GPIO_Port_Init(GPIO_PRT_Type* base, const cy_stc_gpio_prt_config_t *config);
 536:Generated_Source\PSoC6\pdl\drivers/peripheral/gpio/cy_gpio.h **** void Cy_GPIO_Pin_FastInit(GPIO_PRT_Type* base, uint32_t pinNum, uint32_t driveMode, uint32_t outVal
 537:Generated_Source\PSoC6\pdl\drivers/peripheral/gpio/cy_gpio.h **** void Cy_GPIO_Port_Deinit(GPIO_PRT_Type* base);
 538:Generated_Source\PSoC6\pdl\drivers/peripheral/gpio/cy_gpio.h **** __STATIC_INLINE void Cy_GPIO_SetHSIOM(GPIO_PRT_Type* base, uint32_t pinNum, en_hsiom_sel_t value);
 539:Generated_Source\PSoC6\pdl\drivers/peripheral/gpio/cy_gpio.h **** __STATIC_INLINE en_hsiom_sel_t Cy_GPIO_GetHSIOM(GPIO_PRT_Type* base, uint32_t pinNum);
 540:Generated_Source\PSoC6\pdl\drivers/peripheral/gpio/cy_gpio.h **** __STATIC_INLINE GPIO_PRT_Type* Cy_GPIO_PortToAddr(uint32_t portNum);
 541:Generated_Source\PSoC6\pdl\drivers/peripheral/gpio/cy_gpio.h **** 
 542:Generated_Source\PSoC6\pdl\drivers/peripheral/gpio/cy_gpio.h **** /** \} group_gpio_functions_init */
 543:Generated_Source\PSoC6\pdl\drivers/peripheral/gpio/cy_gpio.h **** 
 544:Generated_Source\PSoC6\pdl\drivers/peripheral/gpio/cy_gpio.h **** /**
 545:Generated_Source\PSoC6\pdl\drivers/peripheral/gpio/cy_gpio.h **** * \addtogroup group_gpio_functions_gpio
 546:Generated_Source\PSoC6\pdl\drivers/peripheral/gpio/cy_gpio.h **** * \{
 547:Generated_Source\PSoC6\pdl\drivers/peripheral/gpio/cy_gpio.h **** */
 548:Generated_Source\PSoC6\pdl\drivers/peripheral/gpio/cy_gpio.h **** 
 549:Generated_Source\PSoC6\pdl\drivers/peripheral/gpio/cy_gpio.h **** void Cy_GPIO_SetAmuxSplit(cy_en_amux_split_t switchCtrl, cy_en_gpio_amuxconnect_t amuxConnect, cy_e
 550:Generated_Source\PSoC6\pdl\drivers/peripheral/gpio/cy_gpio.h **** cy_en_gpio_amuxconnect_t Cy_GPIO_GetAmuxSplit(cy_en_amux_split_t switchCtrl, cy_en_gpio_amuxselect_
 551:Generated_Source\PSoC6\pdl\drivers/peripheral/gpio/cy_gpio.h **** 
 552:Generated_Source\PSoC6\pdl\drivers/peripheral/gpio/cy_gpio.h **** __STATIC_INLINE uint32_t Cy_GPIO_Read(GPIO_PRT_Type* base, uint32_t pinNum);
 553:Generated_Source\PSoC6\pdl\drivers/peripheral/gpio/cy_gpio.h **** __STATIC_INLINE void Cy_GPIO_Write(GPIO_PRT_Type* base, uint32_t pinNum, uint32_t value);
 554:Generated_Source\PSoC6\pdl\drivers/peripheral/gpio/cy_gpio.h **** __STATIC_INLINE uint32_t Cy_GPIO_ReadOut(GPIO_PRT_Type* base, uint32_t pinNum);
ARM GAS  C:\Users\louis\AppData\Local\Temp\ccj8Y2ua.s 			page 54


 555:Generated_Source\PSoC6\pdl\drivers/peripheral/gpio/cy_gpio.h **** __STATIC_INLINE void Cy_GPIO_Set(GPIO_PRT_Type* base, uint32_t pinNum);
 556:Generated_Source\PSoC6\pdl\drivers/peripheral/gpio/cy_gpio.h **** __STATIC_INLINE void Cy_GPIO_Clr(GPIO_PRT_Type* base, uint32_t pinNum);
 557:Generated_Source\PSoC6\pdl\drivers/peripheral/gpio/cy_gpio.h **** __STATIC_INLINE void Cy_GPIO_Inv(GPIO_PRT_Type* base, uint32_t pinNum);
 558:Generated_Source\PSoC6\pdl\drivers/peripheral/gpio/cy_gpio.h **** __STATIC_INLINE void Cy_GPIO_SetDrivemode(GPIO_PRT_Type* base, uint32_t pinNum, uint32_t value);
 559:Generated_Source\PSoC6\pdl\drivers/peripheral/gpio/cy_gpio.h **** __STATIC_INLINE uint32_t Cy_GPIO_GetDrivemode(GPIO_PRT_Type* base, uint32_t pinNum);
 560:Generated_Source\PSoC6\pdl\drivers/peripheral/gpio/cy_gpio.h **** __STATIC_INLINE void Cy_GPIO_SetVtrip(GPIO_PRT_Type* base, uint32_t pinNum, uint32_t value);
 561:Generated_Source\PSoC6\pdl\drivers/peripheral/gpio/cy_gpio.h **** __STATIC_INLINE uint32_t Cy_GPIO_GetVtrip(GPIO_PRT_Type* base, uint32_t pinNum);
 562:Generated_Source\PSoC6\pdl\drivers/peripheral/gpio/cy_gpio.h **** __STATIC_INLINE void Cy_GPIO_SetSlewRate(GPIO_PRT_Type* base, uint32_t pinNum, uint32_t value);
 563:Generated_Source\PSoC6\pdl\drivers/peripheral/gpio/cy_gpio.h **** __STATIC_INLINE uint32_t Cy_GPIO_GetSlewRate(GPIO_PRT_Type* base, uint32_t pinNum);
 564:Generated_Source\PSoC6\pdl\drivers/peripheral/gpio/cy_gpio.h **** __STATIC_INLINE void Cy_GPIO_SetDriveSel(GPIO_PRT_Type* base, uint32_t pinNum, uint32_t value);
 565:Generated_Source\PSoC6\pdl\drivers/peripheral/gpio/cy_gpio.h **** __STATIC_INLINE uint32_t Cy_GPIO_GetDriveSel(GPIO_PRT_Type* base, uint32_t pinNum);
 566:Generated_Source\PSoC6\pdl\drivers/peripheral/gpio/cy_gpio.h **** 
 567:Generated_Source\PSoC6\pdl\drivers/peripheral/gpio/cy_gpio.h **** /** \} group_gpio_functions_gpio */
 568:Generated_Source\PSoC6\pdl\drivers/peripheral/gpio/cy_gpio.h **** 
 569:Generated_Source\PSoC6\pdl\drivers/peripheral/gpio/cy_gpio.h **** /**
 570:Generated_Source\PSoC6\pdl\drivers/peripheral/gpio/cy_gpio.h **** * \addtogroup group_gpio_functions_sio
 571:Generated_Source\PSoC6\pdl\drivers/peripheral/gpio/cy_gpio.h **** * \{
 572:Generated_Source\PSoC6\pdl\drivers/peripheral/gpio/cy_gpio.h **** */
 573:Generated_Source\PSoC6\pdl\drivers/peripheral/gpio/cy_gpio.h **** 
 574:Generated_Source\PSoC6\pdl\drivers/peripheral/gpio/cy_gpio.h **** __STATIC_INLINE void Cy_GPIO_SetVregEn(GPIO_PRT_Type* base, uint32_t pinNum, uint32_t value);
 575:Generated_Source\PSoC6\pdl\drivers/peripheral/gpio/cy_gpio.h **** __STATIC_INLINE uint32_t Cy_GPIO_GetVregEn(GPIO_PRT_Type* base, uint32_t pinNum);
 576:Generated_Source\PSoC6\pdl\drivers/peripheral/gpio/cy_gpio.h **** __STATIC_INLINE void Cy_GPIO_SetIbufMode(GPIO_PRT_Type* base, uint32_t pinNum, uint32_t value);
 577:Generated_Source\PSoC6\pdl\drivers/peripheral/gpio/cy_gpio.h **** __STATIC_INLINE uint32_t Cy_GPIO_GetIbufMode(GPIO_PRT_Type* base, uint32_t pinNum);
 578:Generated_Source\PSoC6\pdl\drivers/peripheral/gpio/cy_gpio.h **** __STATIC_INLINE void Cy_GPIO_SetVtripSel(GPIO_PRT_Type* base, uint32_t pinNum, uint32_t value);
 579:Generated_Source\PSoC6\pdl\drivers/peripheral/gpio/cy_gpio.h **** __STATIC_INLINE uint32_t Cy_GPIO_GetVtripSel(GPIO_PRT_Type* base, uint32_t pinNum);
 580:Generated_Source\PSoC6\pdl\drivers/peripheral/gpio/cy_gpio.h **** __STATIC_INLINE void Cy_GPIO_SetVrefSel(GPIO_PRT_Type* base, uint32_t pinNum, uint32_t value);
 581:Generated_Source\PSoC6\pdl\drivers/peripheral/gpio/cy_gpio.h **** __STATIC_INLINE uint32_t Cy_GPIO_GetVrefSel(GPIO_PRT_Type* base, uint32_t pinNum);
 582:Generated_Source\PSoC6\pdl\drivers/peripheral/gpio/cy_gpio.h **** __STATIC_INLINE void Cy_GPIO_SetVohSel(GPIO_PRT_Type* base, uint32_t pinNum, uint32_t value);
 583:Generated_Source\PSoC6\pdl\drivers/peripheral/gpio/cy_gpio.h **** __STATIC_INLINE uint32_t Cy_GPIO_GetVohSel(GPIO_PRT_Type* base, uint32_t pinNum);
 584:Generated_Source\PSoC6\pdl\drivers/peripheral/gpio/cy_gpio.h **** 
 585:Generated_Source\PSoC6\pdl\drivers/peripheral/gpio/cy_gpio.h **** /** \} group_gpio_functions_sio */
 586:Generated_Source\PSoC6\pdl\drivers/peripheral/gpio/cy_gpio.h **** 
 587:Generated_Source\PSoC6\pdl\drivers/peripheral/gpio/cy_gpio.h **** /**
 588:Generated_Source\PSoC6\pdl\drivers/peripheral/gpio/cy_gpio.h **** * \addtogroup group_gpio_functions_interrupt
 589:Generated_Source\PSoC6\pdl\drivers/peripheral/gpio/cy_gpio.h **** * \{
 590:Generated_Source\PSoC6\pdl\drivers/peripheral/gpio/cy_gpio.h **** */
 591:Generated_Source\PSoC6\pdl\drivers/peripheral/gpio/cy_gpio.h **** 
 592:Generated_Source\PSoC6\pdl\drivers/peripheral/gpio/cy_gpio.h **** __STATIC_INLINE uint32_t Cy_GPIO_GetInterruptStatus(GPIO_PRT_Type* base, uint32_t pinNum);
 593:Generated_Source\PSoC6\pdl\drivers/peripheral/gpio/cy_gpio.h **** __STATIC_INLINE void Cy_GPIO_ClearInterrupt(GPIO_PRT_Type* base, uint32_t pinNum);
 594:Generated_Source\PSoC6\pdl\drivers/peripheral/gpio/cy_gpio.h **** __STATIC_INLINE void Cy_GPIO_SetInterruptMask(GPIO_PRT_Type* base, uint32_t pinNum, uint32_t value)
 595:Generated_Source\PSoC6\pdl\drivers/peripheral/gpio/cy_gpio.h **** __STATIC_INLINE uint32_t Cy_GPIO_GetInterruptMask(GPIO_PRT_Type* base, uint32_t pinNum);
 596:Generated_Source\PSoC6\pdl\drivers/peripheral/gpio/cy_gpio.h **** __STATIC_INLINE uint32_t Cy_GPIO_GetInterruptStatusMasked(GPIO_PRT_Type* base, uint32_t pinNum);
 597:Generated_Source\PSoC6\pdl\drivers/peripheral/gpio/cy_gpio.h **** __STATIC_INLINE void Cy_GPIO_SetSwInterrupt(GPIO_PRT_Type* base, uint32_t pinNum);
 598:Generated_Source\PSoC6\pdl\drivers/peripheral/gpio/cy_gpio.h **** __STATIC_INLINE void Cy_GPIO_SetInterruptEdge(GPIO_PRT_Type* base, uint32_t pinNum, uint32_t value)
 599:Generated_Source\PSoC6\pdl\drivers/peripheral/gpio/cy_gpio.h **** __STATIC_INLINE uint32_t Cy_GPIO_GetInterruptEdge(GPIO_PRT_Type* base, uint32_t pinNum);
 600:Generated_Source\PSoC6\pdl\drivers/peripheral/gpio/cy_gpio.h **** __STATIC_INLINE void Cy_GPIO_SetFilter(GPIO_PRT_Type* base, uint32_t value);
 601:Generated_Source\PSoC6\pdl\drivers/peripheral/gpio/cy_gpio.h **** __STATIC_INLINE uint32_t Cy_GPIO_GetFilter(GPIO_PRT_Type* base);
 602:Generated_Source\PSoC6\pdl\drivers/peripheral/gpio/cy_gpio.h **** 
 603:Generated_Source\PSoC6\pdl\drivers/peripheral/gpio/cy_gpio.h **** __STATIC_INLINE uint32_t Cy_GPIO_GetInterruptCause0(void);
 604:Generated_Source\PSoC6\pdl\drivers/peripheral/gpio/cy_gpio.h **** __STATIC_INLINE uint32_t Cy_GPIO_GetInterruptCause1(void);
 605:Generated_Source\PSoC6\pdl\drivers/peripheral/gpio/cy_gpio.h **** __STATIC_INLINE uint32_t Cy_GPIO_GetInterruptCause2(void);
 606:Generated_Source\PSoC6\pdl\drivers/peripheral/gpio/cy_gpio.h **** __STATIC_INLINE uint32_t Cy_GPIO_GetInterruptCause3(void);
 607:Generated_Source\PSoC6\pdl\drivers/peripheral/gpio/cy_gpio.h **** 
 608:Generated_Source\PSoC6\pdl\drivers/peripheral/gpio/cy_gpio.h **** /** \} group_gpio_functions_interrupt */
 609:Generated_Source\PSoC6\pdl\drivers/peripheral/gpio/cy_gpio.h **** 
 610:Generated_Source\PSoC6\pdl\drivers/peripheral/gpio/cy_gpio.h **** 
 611:Generated_Source\PSoC6\pdl\drivers/peripheral/gpio/cy_gpio.h **** /**
ARM GAS  C:\Users\louis\AppData\Local\Temp\ccj8Y2ua.s 			page 55


 612:Generated_Source\PSoC6\pdl\drivers/peripheral/gpio/cy_gpio.h **** * \addtogroup group_gpio_functions_init
 613:Generated_Source\PSoC6\pdl\drivers/peripheral/gpio/cy_gpio.h **** * \{
 614:Generated_Source\PSoC6\pdl\drivers/peripheral/gpio/cy_gpio.h **** */
 615:Generated_Source\PSoC6\pdl\drivers/peripheral/gpio/cy_gpio.h **** 
 616:Generated_Source\PSoC6\pdl\drivers/peripheral/gpio/cy_gpio.h **** /*******************************************************************************
 617:Generated_Source\PSoC6\pdl\drivers/peripheral/gpio/cy_gpio.h **** * Function Name: Cy_GPIO_SetHSIOM
 618:Generated_Source\PSoC6\pdl\drivers/peripheral/gpio/cy_gpio.h **** ****************************************************************************//**
 619:Generated_Source\PSoC6\pdl\drivers/peripheral/gpio/cy_gpio.h **** *
 620:Generated_Source\PSoC6\pdl\drivers/peripheral/gpio/cy_gpio.h **** * Configures the HSIOM connection to the pin.
 621:Generated_Source\PSoC6\pdl\drivers/peripheral/gpio/cy_gpio.h **** *
 622:Generated_Source\PSoC6\pdl\drivers/peripheral/gpio/cy_gpio.h **** * Connects the specified High-Speed Input Output Multiplexer (HSIOM) selection
 623:Generated_Source\PSoC6\pdl\drivers/peripheral/gpio/cy_gpio.h **** * to the pin.
 624:Generated_Source\PSoC6\pdl\drivers/peripheral/gpio/cy_gpio.h **** *
 625:Generated_Source\PSoC6\pdl\drivers/peripheral/gpio/cy_gpio.h **** * \param base
 626:Generated_Source\PSoC6\pdl\drivers/peripheral/gpio/cy_gpio.h **** * Pointer to the pin's port register base address
 627:Generated_Source\PSoC6\pdl\drivers/peripheral/gpio/cy_gpio.h **** *
 628:Generated_Source\PSoC6\pdl\drivers/peripheral/gpio/cy_gpio.h **** * \param pinNum
 629:Generated_Source\PSoC6\pdl\drivers/peripheral/gpio/cy_gpio.h **** * Position of the pin bit-field within the port register
 630:Generated_Source\PSoC6\pdl\drivers/peripheral/gpio/cy_gpio.h **** *
 631:Generated_Source\PSoC6\pdl\drivers/peripheral/gpio/cy_gpio.h **** * \param value
 632:Generated_Source\PSoC6\pdl\drivers/peripheral/gpio/cy_gpio.h **** * HSIOM input selection
 633:Generated_Source\PSoC6\pdl\drivers/peripheral/gpio/cy_gpio.h **** *
 634:Generated_Source\PSoC6\pdl\drivers/peripheral/gpio/cy_gpio.h **** * \note 
 635:Generated_Source\PSoC6\pdl\drivers/peripheral/gpio/cy_gpio.h **** * This function modifies a port register in a read-modify-write operation. It is
 636:Generated_Source\PSoC6\pdl\drivers/peripheral/gpio/cy_gpio.h **** * not thread safe as the resource is shared among multiple pins on a port.
 637:Generated_Source\PSoC6\pdl\drivers/peripheral/gpio/cy_gpio.h **** *
 638:Generated_Source\PSoC6\pdl\drivers/peripheral/gpio/cy_gpio.h **** * \funcusage
 639:Generated_Source\PSoC6\pdl\drivers/peripheral/gpio/cy_gpio.h **** * \snippet gpio/gpio_v1_10_sut_01.cydsn/main_cm4.c snippet_Cy_GPIO_SetHSIOM
 640:Generated_Source\PSoC6\pdl\drivers/peripheral/gpio/cy_gpio.h **** *
 641:Generated_Source\PSoC6\pdl\drivers/peripheral/gpio/cy_gpio.h **** *******************************************************************************/
 642:Generated_Source\PSoC6\pdl\drivers/peripheral/gpio/cy_gpio.h **** __STATIC_INLINE void Cy_GPIO_SetHSIOM(GPIO_PRT_Type* base, uint32_t pinNum, en_hsiom_sel_t value)
 643:Generated_Source\PSoC6\pdl\drivers/peripheral/gpio/cy_gpio.h **** {
 644:Generated_Source\PSoC6\pdl\drivers/peripheral/gpio/cy_gpio.h ****     uint32_t portNum;
 645:Generated_Source\PSoC6\pdl\drivers/peripheral/gpio/cy_gpio.h ****     uint32_t tempReg;
 646:Generated_Source\PSoC6\pdl\drivers/peripheral/gpio/cy_gpio.h ****     HSIOM_PRT_V1_Type* portAddrHSIOM;
 647:Generated_Source\PSoC6\pdl\drivers/peripheral/gpio/cy_gpio.h **** 
 648:Generated_Source\PSoC6\pdl\drivers/peripheral/gpio/cy_gpio.h ****     CY_ASSERT_L2(CY_GPIO_IS_PIN_VALID(pinNum));
 649:Generated_Source\PSoC6\pdl\drivers/peripheral/gpio/cy_gpio.h ****     CY_ASSERT_L2(CY_GPIO_IS_HSIOM_VALID(value));
 650:Generated_Source\PSoC6\pdl\drivers/peripheral/gpio/cy_gpio.h **** 
 651:Generated_Source\PSoC6\pdl\drivers/peripheral/gpio/cy_gpio.h ****     portNum = ((uint32_t)(base) - CY_GPIO_BASE) / GPIO_PRT_SECTION_SIZE;
 652:Generated_Source\PSoC6\pdl\drivers/peripheral/gpio/cy_gpio.h ****     portAddrHSIOM = (HSIOM_PRT_V1_Type*)(CY_HSIOM_BASE + (HSIOM_PRT_SECTION_SIZE * portNum));
 653:Generated_Source\PSoC6\pdl\drivers/peripheral/gpio/cy_gpio.h **** 
 654:Generated_Source\PSoC6\pdl\drivers/peripheral/gpio/cy_gpio.h ****     if(pinNum < CY_GPIO_PRT_HALF)
 655:Generated_Source\PSoC6\pdl\drivers/peripheral/gpio/cy_gpio.h ****     {
 656:Generated_Source\PSoC6\pdl\drivers/peripheral/gpio/cy_gpio.h ****         tempReg = HSIOM_PRT_PORT_SEL0(portAddrHSIOM) & ~(CY_GPIO_HSIOM_MASK << (pinNum << CY_GPIO_H
 657:Generated_Source\PSoC6\pdl\drivers/peripheral/gpio/cy_gpio.h ****         HSIOM_PRT_PORT_SEL0(portAddrHSIOM) = tempReg | ((value & CY_GPIO_HSIOM_MASK) << (pinNum << 
 658:Generated_Source\PSoC6\pdl\drivers/peripheral/gpio/cy_gpio.h ****     }
 659:Generated_Source\PSoC6\pdl\drivers/peripheral/gpio/cy_gpio.h ****     else
 660:Generated_Source\PSoC6\pdl\drivers/peripheral/gpio/cy_gpio.h ****     {
 661:Generated_Source\PSoC6\pdl\drivers/peripheral/gpio/cy_gpio.h ****         pinNum -= CY_GPIO_PRT_HALF;
 662:Generated_Source\PSoC6\pdl\drivers/peripheral/gpio/cy_gpio.h ****         tempReg = HSIOM_PRT_PORT_SEL1(portAddrHSIOM) & ~(CY_GPIO_HSIOM_MASK << (pinNum << CY_GPIO_H
 663:Generated_Source\PSoC6\pdl\drivers/peripheral/gpio/cy_gpio.h ****         HSIOM_PRT_PORT_SEL1(portAddrHSIOM) = tempReg | ((value & CY_GPIO_HSIOM_MASK) << (pinNum << 
 664:Generated_Source\PSoC6\pdl\drivers/peripheral/gpio/cy_gpio.h ****     }
 665:Generated_Source\PSoC6\pdl\drivers/peripheral/gpio/cy_gpio.h **** }
 666:Generated_Source\PSoC6\pdl\drivers/peripheral/gpio/cy_gpio.h **** 
 667:Generated_Source\PSoC6\pdl\drivers/peripheral/gpio/cy_gpio.h **** 
 668:Generated_Source\PSoC6\pdl\drivers/peripheral/gpio/cy_gpio.h **** /*******************************************************************************
ARM GAS  C:\Users\louis\AppData\Local\Temp\ccj8Y2ua.s 			page 56


 669:Generated_Source\PSoC6\pdl\drivers/peripheral/gpio/cy_gpio.h **** * Function Name: Cy_GPIO_GetHSIOM
 670:Generated_Source\PSoC6\pdl\drivers/peripheral/gpio/cy_gpio.h **** ****************************************************************************//**
 671:Generated_Source\PSoC6\pdl\drivers/peripheral/gpio/cy_gpio.h **** *
 672:Generated_Source\PSoC6\pdl\drivers/peripheral/gpio/cy_gpio.h **** * Returns the current HSIOM multiplexer connection to the pin.
 673:Generated_Source\PSoC6\pdl\drivers/peripheral/gpio/cy_gpio.h **** *
 674:Generated_Source\PSoC6\pdl\drivers/peripheral/gpio/cy_gpio.h **** * \param base
 675:Generated_Source\PSoC6\pdl\drivers/peripheral/gpio/cy_gpio.h **** * Pointer to the pin's port register base address
 676:Generated_Source\PSoC6\pdl\drivers/peripheral/gpio/cy_gpio.h **** *
 677:Generated_Source\PSoC6\pdl\drivers/peripheral/gpio/cy_gpio.h **** * \param pinNum
 678:Generated_Source\PSoC6\pdl\drivers/peripheral/gpio/cy_gpio.h **** * Position of the pin bit-field within the port register
 679:Generated_Source\PSoC6\pdl\drivers/peripheral/gpio/cy_gpio.h **** *
 680:Generated_Source\PSoC6\pdl\drivers/peripheral/gpio/cy_gpio.h **** * \return
 681:Generated_Source\PSoC6\pdl\drivers/peripheral/gpio/cy_gpio.h **** * HSIOM input selection
 682:Generated_Source\PSoC6\pdl\drivers/peripheral/gpio/cy_gpio.h **** *
 683:Generated_Source\PSoC6\pdl\drivers/peripheral/gpio/cy_gpio.h **** * \funcusage
 684:Generated_Source\PSoC6\pdl\drivers/peripheral/gpio/cy_gpio.h **** * \snippet gpio/gpio_v1_10_sut_01.cydsn/main_cm4.c snippet_Cy_GPIO_SetHSIOM
 685:Generated_Source\PSoC6\pdl\drivers/peripheral/gpio/cy_gpio.h **** *
 686:Generated_Source\PSoC6\pdl\drivers/peripheral/gpio/cy_gpio.h **** *******************************************************************************/
 687:Generated_Source\PSoC6\pdl\drivers/peripheral/gpio/cy_gpio.h **** __STATIC_INLINE en_hsiom_sel_t Cy_GPIO_GetHSIOM(GPIO_PRT_Type* base, uint32_t pinNum)
 688:Generated_Source\PSoC6\pdl\drivers/peripheral/gpio/cy_gpio.h **** {
 689:Generated_Source\PSoC6\pdl\drivers/peripheral/gpio/cy_gpio.h ****     uint32_t returnValue;
 690:Generated_Source\PSoC6\pdl\drivers/peripheral/gpio/cy_gpio.h ****     uint32_t portNum;
 691:Generated_Source\PSoC6\pdl\drivers/peripheral/gpio/cy_gpio.h ****     HSIOM_PRT_V1_Type* portAddrHSIOM;
 692:Generated_Source\PSoC6\pdl\drivers/peripheral/gpio/cy_gpio.h ****     
 693:Generated_Source\PSoC6\pdl\drivers/peripheral/gpio/cy_gpio.h ****     CY_ASSERT_L2(CY_GPIO_IS_PIN_VALID(pinNum));
 694:Generated_Source\PSoC6\pdl\drivers/peripheral/gpio/cy_gpio.h **** 
 695:Generated_Source\PSoC6\pdl\drivers/peripheral/gpio/cy_gpio.h ****     portNum = ((uint32_t)(base) - CY_GPIO_BASE) / GPIO_PRT_SECTION_SIZE;
 696:Generated_Source\PSoC6\pdl\drivers/peripheral/gpio/cy_gpio.h ****     portAddrHSIOM = (HSIOM_PRT_V1_Type*)(CY_HSIOM_BASE + (HSIOM_PRT_SECTION_SIZE * portNum));
 697:Generated_Source\PSoC6\pdl\drivers/peripheral/gpio/cy_gpio.h **** 
 698:Generated_Source\PSoC6\pdl\drivers/peripheral/gpio/cy_gpio.h ****     if(pinNum < CY_GPIO_PRT_HALF)
 699:Generated_Source\PSoC6\pdl\drivers/peripheral/gpio/cy_gpio.h ****     {
 700:Generated_Source\PSoC6\pdl\drivers/peripheral/gpio/cy_gpio.h ****         returnValue = (HSIOM_PRT_PORT_SEL0(portAddrHSIOM) >> (pinNum << CY_GPIO_HSIOM_OFFSET)) & CY
 701:Generated_Source\PSoC6\pdl\drivers/peripheral/gpio/cy_gpio.h ****     }
 702:Generated_Source\PSoC6\pdl\drivers/peripheral/gpio/cy_gpio.h ****     else
 703:Generated_Source\PSoC6\pdl\drivers/peripheral/gpio/cy_gpio.h ****     {
 704:Generated_Source\PSoC6\pdl\drivers/peripheral/gpio/cy_gpio.h ****         pinNum -= CY_GPIO_PRT_HALF;
 705:Generated_Source\PSoC6\pdl\drivers/peripheral/gpio/cy_gpio.h ****         returnValue = (HSIOM_PRT_PORT_SEL1(portAddrHSIOM) >> (pinNum << CY_GPIO_HSIOM_OFFSET)) & CY
 706:Generated_Source\PSoC6\pdl\drivers/peripheral/gpio/cy_gpio.h ****     }
 707:Generated_Source\PSoC6\pdl\drivers/peripheral/gpio/cy_gpio.h **** 
 708:Generated_Source\PSoC6\pdl\drivers/peripheral/gpio/cy_gpio.h ****     return (en_hsiom_sel_t)returnValue;
 709:Generated_Source\PSoC6\pdl\drivers/peripheral/gpio/cy_gpio.h **** }
 710:Generated_Source\PSoC6\pdl\drivers/peripheral/gpio/cy_gpio.h **** 
 711:Generated_Source\PSoC6\pdl\drivers/peripheral/gpio/cy_gpio.h **** 
 712:Generated_Source\PSoC6\pdl\drivers/peripheral/gpio/cy_gpio.h **** /*******************************************************************************
 713:Generated_Source\PSoC6\pdl\drivers/peripheral/gpio/cy_gpio.h **** * Function Name: Cy_GPIO_PortToAddr
 714:Generated_Source\PSoC6\pdl\drivers/peripheral/gpio/cy_gpio.h **** ****************************************************************************//**
 715:Generated_Source\PSoC6\pdl\drivers/peripheral/gpio/cy_gpio.h **** *
 716:Generated_Source\PSoC6\pdl\drivers/peripheral/gpio/cy_gpio.h **** * Retrieves the port address based on the given port number.
 717:Generated_Source\PSoC6\pdl\drivers/peripheral/gpio/cy_gpio.h **** *
 718:Generated_Source\PSoC6\pdl\drivers/peripheral/gpio/cy_gpio.h **** * This is a helper function to calculate the port base address when given a port
 719:Generated_Source\PSoC6\pdl\drivers/peripheral/gpio/cy_gpio.h **** * number. It is to be used when pin access needs to be calculated at runtime.
 720:Generated_Source\PSoC6\pdl\drivers/peripheral/gpio/cy_gpio.h **** *
 721:Generated_Source\PSoC6\pdl\drivers/peripheral/gpio/cy_gpio.h **** * \param portNum
 722:Generated_Source\PSoC6\pdl\drivers/peripheral/gpio/cy_gpio.h **** * Port number
 723:Generated_Source\PSoC6\pdl\drivers/peripheral/gpio/cy_gpio.h **** *
 724:Generated_Source\PSoC6\pdl\drivers/peripheral/gpio/cy_gpio.h **** * \return
 725:Generated_Source\PSoC6\pdl\drivers/peripheral/gpio/cy_gpio.h **** * Base address of the port register structure
ARM GAS  C:\Users\louis\AppData\Local\Temp\ccj8Y2ua.s 			page 57


 726:Generated_Source\PSoC6\pdl\drivers/peripheral/gpio/cy_gpio.h **** *
 727:Generated_Source\PSoC6\pdl\drivers/peripheral/gpio/cy_gpio.h **** * \funcusage
 728:Generated_Source\PSoC6\pdl\drivers/peripheral/gpio/cy_gpio.h **** * \snippet gpio/gpio_v1_10_sut_01.cydsn/main_cm4.c snippet_Cy_GPIO_PortToAddr
 729:Generated_Source\PSoC6\pdl\drivers/peripheral/gpio/cy_gpio.h **** *
 730:Generated_Source\PSoC6\pdl\drivers/peripheral/gpio/cy_gpio.h **** *******************************************************************************/
 731:Generated_Source\PSoC6\pdl\drivers/peripheral/gpio/cy_gpio.h **** __STATIC_INLINE GPIO_PRT_Type* Cy_GPIO_PortToAddr(uint32_t portNum)
 732:Generated_Source\PSoC6\pdl\drivers/peripheral/gpio/cy_gpio.h **** {
 733:Generated_Source\PSoC6\pdl\drivers/peripheral/gpio/cy_gpio.h ****     GPIO_PRT_Type* portBase;
 734:Generated_Source\PSoC6\pdl\drivers/peripheral/gpio/cy_gpio.h ****     
 735:Generated_Source\PSoC6\pdl\drivers/peripheral/gpio/cy_gpio.h ****     if(portNum < (uint32_t)IOSS_GPIO_GPIO_PORT_NR)
 736:Generated_Source\PSoC6\pdl\drivers/peripheral/gpio/cy_gpio.h ****     {
 737:Generated_Source\PSoC6\pdl\drivers/peripheral/gpio/cy_gpio.h ****         portBase = (GPIO_PRT_Type *)(CY_GPIO_BASE + (GPIO_PRT_SECTION_SIZE * portNum));
 738:Generated_Source\PSoC6\pdl\drivers/peripheral/gpio/cy_gpio.h ****     }
 739:Generated_Source\PSoC6\pdl\drivers/peripheral/gpio/cy_gpio.h ****     else
 740:Generated_Source\PSoC6\pdl\drivers/peripheral/gpio/cy_gpio.h ****     {
 741:Generated_Source\PSoC6\pdl\drivers/peripheral/gpio/cy_gpio.h ****         /* Error: Return default base address */
 742:Generated_Source\PSoC6\pdl\drivers/peripheral/gpio/cy_gpio.h ****         portBase = (GPIO_PRT_Type *)(CY_GPIO_BASE);
 743:Generated_Source\PSoC6\pdl\drivers/peripheral/gpio/cy_gpio.h ****     }
 744:Generated_Source\PSoC6\pdl\drivers/peripheral/gpio/cy_gpio.h **** 
 745:Generated_Source\PSoC6\pdl\drivers/peripheral/gpio/cy_gpio.h ****     return (portBase);
 746:Generated_Source\PSoC6\pdl\drivers/peripheral/gpio/cy_gpio.h **** }
 747:Generated_Source\PSoC6\pdl\drivers/peripheral/gpio/cy_gpio.h **** 
 748:Generated_Source\PSoC6\pdl\drivers/peripheral/gpio/cy_gpio.h **** /** \} group_gpio_functions_init */
 749:Generated_Source\PSoC6\pdl\drivers/peripheral/gpio/cy_gpio.h **** 
 750:Generated_Source\PSoC6\pdl\drivers/peripheral/gpio/cy_gpio.h **** /**
 751:Generated_Source\PSoC6\pdl\drivers/peripheral/gpio/cy_gpio.h **** * \addtogroup group_gpio_functions_gpio
 752:Generated_Source\PSoC6\pdl\drivers/peripheral/gpio/cy_gpio.h **** * \{
 753:Generated_Source\PSoC6\pdl\drivers/peripheral/gpio/cy_gpio.h **** */
 754:Generated_Source\PSoC6\pdl\drivers/peripheral/gpio/cy_gpio.h **** 
 755:Generated_Source\PSoC6\pdl\drivers/peripheral/gpio/cy_gpio.h **** /*******************************************************************************
 756:Generated_Source\PSoC6\pdl\drivers/peripheral/gpio/cy_gpio.h **** * Function Name: Cy_GPIO_Read
 757:Generated_Source\PSoC6\pdl\drivers/peripheral/gpio/cy_gpio.h **** ****************************************************************************//**
 758:Generated_Source\PSoC6\pdl\drivers/peripheral/gpio/cy_gpio.h **** *
 759:Generated_Source\PSoC6\pdl\drivers/peripheral/gpio/cy_gpio.h **** * Reads the current logic level on the input buffer of the pin.
 760:Generated_Source\PSoC6\pdl\drivers/peripheral/gpio/cy_gpio.h **** *
 761:Generated_Source\PSoC6\pdl\drivers/peripheral/gpio/cy_gpio.h **** * \param base
 762:Generated_Source\PSoC6\pdl\drivers/peripheral/gpio/cy_gpio.h **** * Pointer to the pin's port register base address
 763:Generated_Source\PSoC6\pdl\drivers/peripheral/gpio/cy_gpio.h **** *
 764:Generated_Source\PSoC6\pdl\drivers/peripheral/gpio/cy_gpio.h **** * \param pinNum
 765:Generated_Source\PSoC6\pdl\drivers/peripheral/gpio/cy_gpio.h **** * Position of the pin bit-field within the port register.
 766:Generated_Source\PSoC6\pdl\drivers/peripheral/gpio/cy_gpio.h **** * Bit position 8 is the routed pin through the port glitch filter.
 767:Generated_Source\PSoC6\pdl\drivers/peripheral/gpio/cy_gpio.h **** *
 768:Generated_Source\PSoC6\pdl\drivers/peripheral/gpio/cy_gpio.h **** * \return
 769:Generated_Source\PSoC6\pdl\drivers/peripheral/gpio/cy_gpio.h **** * Logic level present on the pin
 770:Generated_Source\PSoC6\pdl\drivers/peripheral/gpio/cy_gpio.h **** *
 771:Generated_Source\PSoC6\pdl\drivers/peripheral/gpio/cy_gpio.h **** * \funcusage
 772:Generated_Source\PSoC6\pdl\drivers/peripheral/gpio/cy_gpio.h **** * \snippet gpio/gpio_v1_10_sut_01.cydsn/main_cm4.c snippet_Cy_GPIO_Read
 773:Generated_Source\PSoC6\pdl\drivers/peripheral/gpio/cy_gpio.h **** *
 774:Generated_Source\PSoC6\pdl\drivers/peripheral/gpio/cy_gpio.h **** *******************************************************************************/
 775:Generated_Source\PSoC6\pdl\drivers/peripheral/gpio/cy_gpio.h **** __STATIC_INLINE uint32_t Cy_GPIO_Read(GPIO_PRT_Type* base, uint32_t pinNum)
 776:Generated_Source\PSoC6\pdl\drivers/peripheral/gpio/cy_gpio.h **** {
 777:Generated_Source\PSoC6\pdl\drivers/peripheral/gpio/cy_gpio.h ****     CY_ASSERT_L2(CY_GPIO_IS_FILTER_PIN_VALID(pinNum));
 778:Generated_Source\PSoC6\pdl\drivers/peripheral/gpio/cy_gpio.h ****     
 779:Generated_Source\PSoC6\pdl\drivers/peripheral/gpio/cy_gpio.h ****     return (GPIO_PRT_IN(base) >> (pinNum)) & CY_GPIO_IN_MASK;
 780:Generated_Source\PSoC6\pdl\drivers/peripheral/gpio/cy_gpio.h **** }
 781:Generated_Source\PSoC6\pdl\drivers/peripheral/gpio/cy_gpio.h **** 
 782:Generated_Source\PSoC6\pdl\drivers/peripheral/gpio/cy_gpio.h **** 
ARM GAS  C:\Users\louis\AppData\Local\Temp\ccj8Y2ua.s 			page 58


 783:Generated_Source\PSoC6\pdl\drivers/peripheral/gpio/cy_gpio.h **** /*******************************************************************************
 784:Generated_Source\PSoC6\pdl\drivers/peripheral/gpio/cy_gpio.h **** * Function Name: Cy_GPIO_Write
 785:Generated_Source\PSoC6\pdl\drivers/peripheral/gpio/cy_gpio.h **** ****************************************************************************//**
 786:Generated_Source\PSoC6\pdl\drivers/peripheral/gpio/cy_gpio.h **** *
 787:Generated_Source\PSoC6\pdl\drivers/peripheral/gpio/cy_gpio.h **** * Write a logic 0 or logic 1 state to the output driver.
 788:Generated_Source\PSoC6\pdl\drivers/peripheral/gpio/cy_gpio.h **** *
 789:Generated_Source\PSoC6\pdl\drivers/peripheral/gpio/cy_gpio.h **** * This function should be used only for software driven pins. It does not have
 790:Generated_Source\PSoC6\pdl\drivers/peripheral/gpio/cy_gpio.h **** * any effect on peripheral driven pins.
 791:Generated_Source\PSoC6\pdl\drivers/peripheral/gpio/cy_gpio.h **** *
 792:Generated_Source\PSoC6\pdl\drivers/peripheral/gpio/cy_gpio.h **** * \param base
 793:Generated_Source\PSoC6\pdl\drivers/peripheral/gpio/cy_gpio.h **** * Pointer to the pin's port register base address
 794:Generated_Source\PSoC6\pdl\drivers/peripheral/gpio/cy_gpio.h **** *
 795:Generated_Source\PSoC6\pdl\drivers/peripheral/gpio/cy_gpio.h **** * \param pinNum
 796:Generated_Source\PSoC6\pdl\drivers/peripheral/gpio/cy_gpio.h **** * Position of the pin bit-field within the port register
 797:Generated_Source\PSoC6\pdl\drivers/peripheral/gpio/cy_gpio.h **** *
 798:Generated_Source\PSoC6\pdl\drivers/peripheral/gpio/cy_gpio.h **** * \param value
 799:Generated_Source\PSoC6\pdl\drivers/peripheral/gpio/cy_gpio.h **** * Logic level to drive out on the pin
 800:Generated_Source\PSoC6\pdl\drivers/peripheral/gpio/cy_gpio.h **** *
 801:Generated_Source\PSoC6\pdl\drivers/peripheral/gpio/cy_gpio.h **** * \funcusage
 802:Generated_Source\PSoC6\pdl\drivers/peripheral/gpio/cy_gpio.h **** * \snippet gpio/gpio_v1_10_sut_01.cydsn/main_cm4.c snippet_Cy_GPIO_Write
 803:Generated_Source\PSoC6\pdl\drivers/peripheral/gpio/cy_gpio.h **** *
 804:Generated_Source\PSoC6\pdl\drivers/peripheral/gpio/cy_gpio.h **** *******************************************************************************/
 805:Generated_Source\PSoC6\pdl\drivers/peripheral/gpio/cy_gpio.h **** __STATIC_INLINE void Cy_GPIO_Write(GPIO_PRT_Type* base, uint32_t pinNum, uint32_t value)
 806:Generated_Source\PSoC6\pdl\drivers/peripheral/gpio/cy_gpio.h **** {
 807:Generated_Source\PSoC6\pdl\drivers/peripheral/gpio/cy_gpio.h ****     CY_ASSERT_L2(CY_GPIO_IS_PIN_VALID(pinNum));
 808:Generated_Source\PSoC6\pdl\drivers/peripheral/gpio/cy_gpio.h ****     CY_ASSERT_L2(CY_GPIO_IS_VALUE_VALID(value));
 809:Generated_Source\PSoC6\pdl\drivers/peripheral/gpio/cy_gpio.h **** 
 810:Generated_Source\PSoC6\pdl\drivers/peripheral/gpio/cy_gpio.h ****     /* Thread-safe: Directly access the pin registers instead of base->OUT */
 811:Generated_Source\PSoC6\pdl\drivers/peripheral/gpio/cy_gpio.h ****     if(0UL == value)
 812:Generated_Source\PSoC6\pdl\drivers/peripheral/gpio/cy_gpio.h ****     {
 813:Generated_Source\PSoC6\pdl\drivers/peripheral/gpio/cy_gpio.h ****         GPIO_PRT_OUT_CLR(base) = CY_GPIO_OUT_MASK << pinNum;
 1282              		.loc 4 813 0 discriminator 1
 1283 007c 074D     		ldr	r5, .L50+4
 1284 007e 0226     		movs	r6, #2
 1285 0080 6E60     		str	r6, [r5, #4]
 1286              	.LVL205:
 1287              	.LBE44:
 1288              	.LBE43:
 577:main_cm4.c    ****     
 578:main_cm4.c    ****     for(;;)
 579:main_cm4.c    ****     {
 580:main_cm4.c    ****         /* Turn on the Green LED before page update */
 581:main_cm4.c    ****         Cy_GPIO_Write(GreenLED_PORT, GreenLED_NUM, 0);
 582:main_cm4.c    ****         
 583:main_cm4.c    ****         /* Using pageNumber as index, update the display with a demo screen
 584:main_cm4.c    ****             Following are the functions that are called in sequence 
 585:main_cm4.c    ****                 ShowFontSizesNormal()
 586:main_cm4.c    ****                 ShowFontSizesBold()
 587:main_cm4.c    ****                 ShowTextModes()
 588:main_cm4.c    ****                 ShowTextWrapAndOrientation()
 589:main_cm4.c    ****                 Show2DGraphics1()
 590:main_cm4.c    ****                 Show2DGraphics2()
 591:main_cm4.c    ****         */
 592:main_cm4.c    ****         (*demoPageArray[pageNumber])();
 1289              		.loc 1 592 0 discriminator 1
 1290 0082 074B     		ldr	r3, .L50+8
 1291 0084 53F82430 		ldr	r3, [r3, r4, lsl #2]
ARM GAS  C:\Users\louis\AppData\Local\Temp\ccj8Y2ua.s 			page 59


 1292 0088 9847     		blx	r3
 1293              	.LVL206:
 1294              	.LBB45:
 1295              	.LBB46:
 814:Generated_Source\PSoC6\pdl\drivers/peripheral/gpio/cy_gpio.h ****     }
 815:Generated_Source\PSoC6\pdl\drivers/peripheral/gpio/cy_gpio.h ****     else
 816:Generated_Source\PSoC6\pdl\drivers/peripheral/gpio/cy_gpio.h ****     {
 817:Generated_Source\PSoC6\pdl\drivers/peripheral/gpio/cy_gpio.h ****         GPIO_PRT_OUT_SET(base) = CY_GPIO_OUT_MASK << pinNum;
 1296              		.loc 4 817 0 discriminator 1
 1297 008a AE60     		str	r6, [r5, #8]
 1298              	.LVL207:
 1299              	.LBE46:
 1300              	.LBE45:
 593:main_cm4.c    ****         
 594:main_cm4.c    ****         /* Turn off the Greed LED after page update */
 595:main_cm4.c    ****         Cy_GPIO_Write(GreenLED_PORT, GreenLED_NUM, 1);
 596:main_cm4.c    ****         
 597:main_cm4.c    ****         /* Wait for a switch press event */
 598:main_cm4.c    ****         WaitforSwitchPressAndRelease();
 1301              		.loc 1 598 0 discriminator 1
 1302 008c FFF7FEFF 		bl	WaitforSwitchPressAndRelease
 1303              	.LVL208:
 599:main_cm4.c    ****         
 600:main_cm4.c    ****         /* Cycle through page numbers */
 601:main_cm4.c    ****         pageNumber = (pageNumber+1) % NUMBER_OF_DEMO_PAGES;
 1304              		.loc 1 601 0 discriminator 1
 1305 0090 0134     		adds	r4, r4, #1
 1306              	.LVL209:
 1307 0092 04F00304 		and	r4, r4, #3
 1308              	.LVL210:
 1309 0096 F1E7     		b	.L48
 1310              	.L51:
 1311              		.align	2
 1312              	.L50:
 1313 0098 00001D41 		.word	1092419584
 1314 009c 80003240 		.word	1077018752
 1315 00a0 00000000 		.word	.LANCHOR2
 1316              		.cfi_endproc
 1317              	.LFE690:
 1318              		.size	main, .-main
 1319              		.global	demoPageArray
 1320              		.global	imageBufferCache
 1321              		.section	.rodata
 1322              		.align	2
 1323              		.set	.LANCHOR1,. + 0
 1324              	.LC21:
 1325 0000 30010000 		.word	.LC0
 1326 0004 3C010000 		.word	.LC1
 1327 0008 50010000 		.word	.LC2
 1328 000c 60010000 		.word	.LC3
 1329 0010 7C010000 		.word	.LC4
 1330 0014 88010000 		.word	.LC5
 1331              		.data
 1332              		.align	2
 1333              		.set	.LANCHOR2,. + 0
 1334              		.type	demoPageArray, %object
 1335              		.size	demoPageArray, 16
ARM GAS  C:\Users\louis\AppData\Local\Temp\ccj8Y2ua.s 			page 60


 1336              	demoPageArray:
 1337 0000 00000000 		.word	TemperatureDisplay
 1338 0004 00000000 		.word	CampingActivity
 1339 0008 00000000 		.word	EggTimer
 1340 000c 00000000 		.word	GasSensor
 1341              		.section	.rodata.str1.4,"aMS",%progbits,1
 1342              		.align	2
 1343              	.LC7:
 1344 0000 5631203D 		.ascii	"V1 = %fv V2=%fv Vtot =%fv T=%fC T=%fF\015\012\000"
 1344      20256676 
 1344      2056323D 
 1344      25667620 
 1344      56746F74 
 1345              	.LC8:
 1346 0028 256700   		.ascii	"%g\000"
 1347 002b 00       		.space	1
 1348              	.LC9:
 1349 002c 43757272 		.ascii	"Current temperature\000"
 1349      656E7420 
 1349      74656D70 
 1349      65726174 
 1349      75726500 
 1350              	.LC10:
 1351 0040 64656772 		.ascii	"degrees\000"
 1351      65657300 
 1352              	.LC11:
 1353 0048 256600   		.ascii	"%f\000"
 1354 004b 00       		.space	1
 1355              	.LC12:
 1356 004c 596F7520 		.ascii	"You have entered: %s\000"
 1356      68617665 
 1356      20656E74 
 1356      65726564 
 1356      3A202573 
 1357 0061 000000   		.space	3
 1358              	.LC13:
 1359 0064 47617320 		.ascii	"Gas reading\000"
 1359      72656164 
 1359      696E6700 
 1360              	.LC14:
 1361 0070 00       		.ascii	"\000"
 1362 0071 000000   		.space	3
 1363              	.LC15:
 1364 0074 74657374 		.ascii	"test\000"
 1364      00
 1365 0079 000000   		.space	3
 1366              	.LC16:
 1367 007c 45676720 		.ascii	"Egg Timer\000"
 1367      54696D65 
 1367      7200
 1368 0086 0000     		.space	2
 1369              	.LC17:
 1370 0088 54696D65 		.ascii	"Timer started now\000"
 1370      72207374 
 1370      61727465 
 1370      64206E6F 
 1370      7700
ARM GAS  C:\Users\louis\AppData\Local\Temp\ccj8Y2ua.s 			page 61


 1371 009a 0000     		.space	2
 1372              	.LC18:
 1373 009c 256400   		.ascii	"%d\000"
 1374 009f 00       		.space	1
 1375              	.LC19:
 1376 00a0 5365636F 		.ascii	"Seconds Left\000"
 1376      6E647320 
 1376      4C656674 
 1376      00
 1377 00ad 000000   		.space	3
 1378              	.LC20:
 1379 00b0 3000     		.ascii	"0\000"
 1380 00b2 0000     		.space	2
 1381              	.LC22:
 1382 00b4 52616E64 		.ascii	"Random camping activity\000"
 1382      6F6D2063 
 1382      616D7069 
 1382      6E672061 
 1382      63746976 
 1383              	.LC23:
 1384 00cc 48617665 		.ascii	"Have fun!\000"
 1384      2066756E 
 1384      2100
 1385 00d6 0000     		.space	2
 1386              	.LC24:
 1387 00d8 43616D70 		.ascii	"Campanion\000"
 1387      616E696F 
 1387      6E00
 1388 00e2 0000     		.space	2
 1389              	.LC25:
 1390 00e4 596F7572 		.ascii	"Your Camping Buddy\000"
 1390      2043616D 
 1390      70696E67 
 1390      20427564 
 1390      647900
 1391 00f7 00       		.space	1
 1392              	.LC26:
 1393 00f8 50524553 		.ascii	"PRESS THE PUSH BUTTON\000"
 1393      53205448 
 1393      45205055 
 1393      53482042 
 1393      5554544F 
 1394 010e 0000     		.space	2
 1395              	.LC27:
 1396 0110 544F2053 		.ascii	"TO SCROLL THROUGH \000"
 1396      43524F4C 
 1396      4C205448 
 1396      524F5547 
 1396      482000
 1397 0123 00       		.space	1
 1398              	.LC28:
 1399 0124 54484520 		.ascii	"THE PAGES!\000"
 1399      50414745 
 1399      532100
 1400 012f 00       		.space	1
 1401              	.LC0:
 1402 0130 43617264 		.ascii	"Card Game\000"
ARM GAS  C:\Users\louis\AppData\Local\Temp\ccj8Y2ua.s 			page 62


 1402      2047616D 
 1402      6500
 1403 013a 0000     		.space	2
 1404              	.LC1:
 1405 013c 45617420 		.ascii	"Eat a boiled egg\000"
 1405      6120626F 
 1405      696C6564 
 1405      20656767 
 1405      00
 1406 014d 000000   		.space	3
 1407              	.LC2:
 1408 0150 73636176 		.ascii	"scavenger hunt\000"
 1408      656E6765 
 1408      72206875 
 1408      6E7400
 1409 015f 00       		.space	1
 1410              	.LC3:
 1411 0160 42726176 		.ascii	"Brave the campsite showers\000"
 1411      65207468 
 1411      65206361 
 1411      6D707369 
 1411      74652073 
 1412 017b 00       		.space	1
 1413              	.LC4:
 1414 017c 54616B65 		.ascii	"Take a walk\000"
 1414      20612077 
 1414      616C6B00 
 1415              	.LC5:
 1416 0188 506C6179 		.ascii	"Play i spy\000"
 1416      20692073 
 1416      707900
 1417              		.bss
 1418              		.align	2
 1419              		.set	.LANCHOR0,. + 0
 1420              		.type	imageBufferCache, %object
 1421              		.size	imageBufferCache, 5808
 1422              	imageBufferCache:
 1423 0000 00000000 		.space	5808
 1423      00000000 
 1423      00000000 
 1423      00000000 
 1423      00000000 
 1424              		.text
 1425              	.Letext0:
 1426              		.file 5 "c:\\program files (x86)\\cypress\\psoc creator\\4.4\\psoc creator\\import\\gnu\\arm\\5.4.
 1427              		.file 6 "c:\\program files (x86)\\cypress\\psoc creator\\4.4\\psoc creator\\import\\gnu\\arm\\5.4.
 1428              		.file 7 "Generated_Source\\PSoC6\\pdl\\devices/psoc6/include/ip/cyip_gpio.h"
 1429              		.file 8 "Generated_Source\\PSoC6\\pdl\\devices/psoc6/include/ip/cyip_tcpwm.h"
 1430              		.file 9 "Generated_Source\\PSoC6\\pdl\\devices/psoc6/include/ip/cyip_sar.h"
 1431              		.file 10 "Generated_Source\\PSoC6\\pdl\\devices/psoc6/include/psoc6_01_config.h"
 1432              		.file 11 "Generated_Source\\PSoC6\\pdl\\drivers/peripheral/device/cy_device.h"
 1433              		.file 12 "Generated_Source\\PSoC6\\pdl\\drivers/peripheral/syslib/cy_syslib.h"
 1434              		.file 13 "Generated_Source\\PSoC6\\pdl\\drivers/peripheral/sar/cy_sar.h"
 1435              		.file 14 "Generated_Source\\PSoC6\\pdl\\drivers/peripheral/scb/cy_scb_spi.h"
 1436              		.file 15 "Generated_Source\\PSoC6\\pdl\\drivers/peripheral/scb/cy_scb_uart.h"
 1437              		.file 16 "Generated_Source\\PSoC6\\pdl\\drivers/peripheral/tcpwm/cy_tcpwm_counter.h"
 1438              		.file 17 "Generated_Source\\PSoC6\\pdl\\drivers/peripheral/tcpwm/cy_tcpwm_pwm.h"
ARM GAS  C:\Users\louis\AppData\Local\Temp\ccj8Y2ua.s 			page 63


 1439              		.file 18 "Generated_Source\\PSoC6/ADC_1.h"
 1440              		.file 19 "Generated_Source\\PSoC6\\pdl\\middleware/emWin/code/include/LCD.h"
 1441              		.file 20 "Generated_Source\\PSoC6\\pdl\\middleware/emWin/code/include/GUI_Type.h"
 1442              		.file 21 ".\\eInk Library/pervasive_eink_hardware_driver.h"
 1443              		.file 22 ".\\eInk Library/cy_eink_library.h"
 1444              		.file 23 "Generated_Source\\PSoC6/PWM.h"
 1445              		.file 24 "Generated_Source\\PSoC6\\pdl\\cmsis/include/core_cm4.h"
 1446              		.file 25 "Generated_Source\\PSoC6/CY_EINK_SPIM.h"
 1447              		.file 26 "Generated_Source\\PSoC6/CY_EINK_Timer.h"
 1448              		.file 27 "Generated_Source\\PSoC6/UART_1.h"
 1449              		.file 28 "Generated_Source\\PSoC6\\pdl\\middleware/emWin/code/include/GUI.h"
 1450              		.file 29 "LCDConf.h"
 1451              		.file 30 "Thermistor.h"
 1452              		.file 31 "c:\\program files (x86)\\cypress\\psoc creator\\4.4\\psoc creator\\import\\gnu\\arm\\5.4
 1453              		.file 32 "c:\\program files (x86)\\cypress\\psoc creator\\4.4\\psoc creator\\import\\gnu\\arm\\5.4
